SF:/Users/lsh/projects/crates/wami/src/arn/builder.rs
FN:101,_RNvMNtNtCs9VsQExrgwtF_4wami3arn7builderNtB2_10ArnBuilder11tenant_path
FN:250,_RNvMNtNtCs9VsQExrgwtF_4wami3arn7builderNtB2_10ArnBuilder12resource_obj
FN:219,_RNvMNtNtCs9VsQExrgwtF_4wami3arn7builderNtB2_10ArnBuilder13cloud_mapping
FN:235,_RNvMNtNtCs9VsQExrgwtF_4wami3arn7builderNtB2_10ArnBuilder16no_cloud_mapping
FN:59,_RNvMNtNtCs9VsQExrgwtF_4wami3arn7builderNtB2_10ArnBuilder3new
FN:298,_RNvMNtNtCs9VsQExrgwtF_4wami3arn7builderNtB2_10ArnBuilder5build
FN:72,_RNvMNtNtCs9VsQExrgwtF_4wami3arn7builderNtB2_10ArnBuilder7service
FN:86,_RINvMNtNtCs9VsQExrgwtF_4wami3arn7builderNtB3_10ArnBuilder11service_strReEB7_
FN:146,_RINvMNtNtCs9VsQExrgwtF_4wami3arn7builderNtB3_10ArnBuilder13wami_instanceNtNtCs1AhsD0INetT_5alloc6string6StringEB7_
FN:146,_RINvMNtNtCs9VsQExrgwtF_4wami3arn7builderNtB3_10ArnBuilder13wami_instanceRNtNtCs1AhsD0INetT_5alloc6string6StringEB7_
FN:146,_RINvMNtNtCs9VsQExrgwtF_4wami3arn7builderNtB3_10ArnBuilder13wami_instanceReEB7_
FN:161,_RINvMNtNtCs9VsQExrgwtF_4wami3arn7builderNtB3_10ArnBuilder14cloud_providerReB19_EB7_
FN:116,_RINvMNtNtCs9VsQExrgwtF_4wami3arn7builderNtB3_10ArnBuilder16tenant_hierarchyReEB7_
FN:180,_RINvMNtNtCs9VsQExrgwtF_4wami3arn7builderNtB3_10ArnBuilder26cloud_provider_with_regionReB1l_B1l_EB7_
FN:202,_RINvMNtNtCs9VsQExrgwtF_4wami3arn7builderNtB3_10ArnBuilder6regionReEB7_
FN:132,_RINvMNtNtCs9VsQExrgwtF_4wami3arn7builderNtB3_10ArnBuilder6tenantReEB7_
FN:264,_RINvMNtNtCs9VsQExrgwtF_4wami3arn7builderNtB3_10ArnBuilder8resourceReB12_EB7_
FN:264,_RINvMNtNtCs9VsQExrgwtF_4wami3arn7builderNtB3_10ArnBuilder8resourceReNtNtCs1AhsD0INetT_5alloc6string6StringEB7_
FN:264,_RINvMNtNtCs9VsQExrgwtF_4wami3arn7builderNtB3_10ArnBuilder8resourceReRNtNtCs1AhsD0INetT_5alloc6string6StringEB7_
FN:118,_RNCINvMNtNtCs9VsQExrgwtF_4wami3arn7builderNtB5_10ArnBuilder16tenant_hierarchyReE0B9_
FN:300,_RNCNvMNtNtCs9VsQExrgwtF_4wami3arn7builderNtB4_10ArnBuilder5build0B8_
FN:310,_RNCNvMNtNtCs9VsQExrgwtF_4wami3arn7builderNtB4_10ArnBuilder5builds0_0B8_
FN:314,_RNCNvMNtNtCs9VsQExrgwtF_4wami3arn7builderNtB4_10ArnBuilder5builds1_0B8_
FN:304,_RNCNvMNtNtCs9VsQExrgwtF_4wami3arn7builderNtB4_10ArnBuilder5builds_0B8_
FN:482,_RNvNtNtNtCs9VsQExrgwtF_4wami3arn7builder5testss_24test_builder_service_str
FN:380,_RNvNtNtNtCs9VsQExrgwtF_4wami3arn7builder5testss_24test_builder_wami_native
FN:402,_RNvNtNtNtCs9VsQExrgwtF_4wami3arn7builder5testss_25test_builder_cloud_synced
FN:603,_RNvNtNtNtCs9VsQExrgwtF_4wami3arn7builder5testss_25test_builder_resource_obj
FN:447,_RNvNtNtNtCs9VsQExrgwtF_4wami3arn7builder5testss_26test_builder_region_method
FN:465,_RNvNtNtNtCs9VsQExrgwtF_4wami3arn7builder5testss_26test_builder_single_tenant
FN:495,_RNvNtNtNtCs9VsQExrgwtF_4wami3arn7builder5testss_27test_builder_custom_service
FN:542,_RNvNtNtNtCs9VsQExrgwtF_4wami3arn7builder5testss_27test_builder_missing_tenant
FN:527,_RNvNtNtNtCs9VsQExrgwtF_4wami3arn7builder5testss_28test_builder_missing_service
FN:557,_RNvNtNtNtCs9VsQExrgwtF_4wami3arn7builder5testss_29test_builder_missing_instance
FN:572,_RNvNtNtNtCs9VsQExrgwtF_4wami3arn7builder5testss_29test_builder_missing_resource
FN:512,_RNvNtNtNtCs9VsQExrgwtF_4wami3arn7builder5testss_29test_builder_no_cloud_mapping
FN:618,_RNvNtNtNtCs9VsQExrgwtF_4wami3arn7builder5testss_30test_builder_cloud_mapping_obj
FN:587,_RNvNtNtNtCs9VsQExrgwtF_4wami3arn7builder5testss_30test_builder_empty_tenant_path
FN:426,_RNvNtNtNtCs9VsQExrgwtF_4wami3arn7builder5testss_37test_builder_cloud_synced_with_region
FN:370,_RNvMs_NtNtCs9VsQExrgwtF_4wami3arn7builderNtNtB6_5types7WamiArn7builder
FNDA:278,_RNvMNtNtCs9VsQExrgwtF_4wami3arn7builderNtB2_10ArnBuilder11tenant_path
FNDA:1,_RNvMNtNtCs9VsQExrgwtF_4wami3arn7builderNtB2_10ArnBuilder12resource_obj
FNDA:1,_RNvMNtNtCs9VsQExrgwtF_4wami3arn7builderNtB2_10ArnBuilder13cloud_mapping
FNDA:1,_RNvMNtNtCs9VsQExrgwtF_4wami3arn7builderNtB2_10ArnBuilder16no_cloud_mapping
FNDA:304,_RNvMNtNtCs9VsQExrgwtF_4wami3arn7builderNtB2_10ArnBuilder3new
FNDA:304,_RNvMNtNtCs9VsQExrgwtF_4wami3arn7builderNtB2_10ArnBuilder5build
FNDA:301,_RNvMNtNtCs9VsQExrgwtF_4wami3arn7builderNtB2_10ArnBuilder7service
FNDA:2,_RINvMNtNtCs9VsQExrgwtF_4wami3arn7builderNtB3_10ArnBuilder11service_strReEB7_
FNDA:7,_RINvMNtNtCs9VsQExrgwtF_4wami3arn7builderNtB3_10ArnBuilder13wami_instanceNtNtCs1AhsD0INetT_5alloc6string6StringEB7_
FNDA:8,_RINvMNtNtCs9VsQExrgwtF_4wami3arn7builderNtB3_10ArnBuilder13wami_instanceRNtNtCs1AhsD0INetT_5alloc6string6StringEB7_
FNDA:288,_RINvMNtNtCs9VsQExrgwtF_4wami3arn7builderNtB3_10ArnBuilder13wami_instanceReEB7_
FNDA:11,_RINvMNtNtCs9VsQExrgwtF_4wami3arn7builderNtB3_10ArnBuilder14cloud_providerReB19_EB7_
FNDA:3,_RINvMNtNtCs9VsQExrgwtF_4wami3arn7builderNtB3_10ArnBuilder16tenant_hierarchyReEB7_
FNDA:2,_RINvMNtNtCs9VsQExrgwtF_4wami3arn7builderNtB3_10ArnBuilder26cloud_provider_with_regionReB1l_B1l_EB7_
FNDA:1,_RINvMNtNtCs9VsQExrgwtF_4wami3arn7builderNtB3_10ArnBuilder6regionReEB7_
FNDA:22,_RINvMNtNtCs9VsQExrgwtF_4wami3arn7builderNtB3_10ArnBuilder6tenantReEB7_
FNDA:62,_RINvMNtNtCs9VsQExrgwtF_4wami3arn7builderNtB3_10ArnBuilder8resourceReB12_EB7_
FNDA:15,_RINvMNtNtCs9VsQExrgwtF_4wami3arn7builderNtB3_10ArnBuilder8resourceReNtNtCs1AhsD0INetT_5alloc6string6StringEB7_
FNDA:225,_RINvMNtNtCs9VsQExrgwtF_4wami3arn7builderNtB3_10ArnBuilder8resourceReRNtNtCs1AhsD0INetT_5alloc6string6StringEB7_
FNDA:9,_RNCINvMNtNtCs9VsQExrgwtF_4wami3arn7builderNtB5_10ArnBuilder16tenant_hierarchyReE0B9_
FNDA:1,_RNCNvMNtNtCs9VsQExrgwtF_4wami3arn7builderNtB4_10ArnBuilder5build0B8_
FNDA:1,_RNCNvMNtNtCs9VsQExrgwtF_4wami3arn7builderNtB4_10ArnBuilder5builds0_0B8_
FNDA:1,_RNCNvMNtNtCs9VsQExrgwtF_4wami3arn7builderNtB4_10ArnBuilder5builds1_0B8_
FNDA:1,_RNCNvMNtNtCs9VsQExrgwtF_4wami3arn7builderNtB4_10ArnBuilder5builds_0B8_
FNDA:1,_RNvNtNtNtCs9VsQExrgwtF_4wami3arn7builder5testss_24test_builder_service_str
FNDA:1,_RNvNtNtNtCs9VsQExrgwtF_4wami3arn7builder5testss_24test_builder_wami_native
FNDA:1,_RNvNtNtNtCs9VsQExrgwtF_4wami3arn7builder5testss_25test_builder_cloud_synced
FNDA:1,_RNvNtNtNtCs9VsQExrgwtF_4wami3arn7builder5testss_25test_builder_resource_obj
FNDA:1,_RNvNtNtNtCs9VsQExrgwtF_4wami3arn7builder5testss_26test_builder_region_method
FNDA:1,_RNvNtNtNtCs9VsQExrgwtF_4wami3arn7builder5testss_26test_builder_single_tenant
FNDA:1,_RNvNtNtNtCs9VsQExrgwtF_4wami3arn7builder5testss_27test_builder_custom_service
FNDA:1,_RNvNtNtNtCs9VsQExrgwtF_4wami3arn7builder5testss_27test_builder_missing_tenant
FNDA:1,_RNvNtNtNtCs9VsQExrgwtF_4wami3arn7builder5testss_28test_builder_missing_service
FNDA:1,_RNvNtNtNtCs9VsQExrgwtF_4wami3arn7builder5testss_29test_builder_missing_instance
FNDA:1,_RNvNtNtNtCs9VsQExrgwtF_4wami3arn7builder5testss_29test_builder_missing_resource
FNDA:1,_RNvNtNtNtCs9VsQExrgwtF_4wami3arn7builder5testss_29test_builder_no_cloud_mapping
FNDA:1,_RNvNtNtNtCs9VsQExrgwtF_4wami3arn7builder5testss_30test_builder_cloud_mapping_obj
FNDA:1,_RNvNtNtNtCs9VsQExrgwtF_4wami3arn7builder5testss_30test_builder_empty_tenant_path
FNDA:1,_RNvNtNtNtCs9VsQExrgwtF_4wami3arn7builder5testss_37test_builder_cloud_synced_with_region
FNDA:304,_RNvMs_NtNtCs9VsQExrgwtF_4wami3arn7builderNtNtB6_5types7WamiArn7builder
FNF:36
FNH:36
DA:59,304
DA:60,304
DA:61,304
DA:72,301
DA:73,301
DA:74,301
DA:75,301
DA:86,2
DA:87,2
DA:88,2
DA:89,2
DA:101,278
DA:102,278
DA:103,278
DA:104,278
DA:116,3
DA:117,3
DA:118,9
DA:120,3
DA:121,3
DA:132,22
DA:133,22
DA:134,22
DA:135,22
DA:146,303
DA:147,303
DA:148,303
DA:149,303
DA:161,11
DA:162,11
DA:163,11
DA:164,11
DA:165,11
DA:166,11
DA:167,11
DA:168,11
DA:180,2
DA:181,2
DA:182,2
DA:183,2
DA:184,2
DA:185,2
DA:186,2
DA:187,2
DA:188,2
DA:202,1
DA:203,1
DA:204,1
DA:205,1
DA:206,1
DA:207,1
DA:219,1
DA:220,1
DA:221,1
DA:222,1
DA:235,1
DA:236,1
DA:237,1
DA:238,1
DA:250,1
DA:251,1
DA:252,1
DA:253,1
DA:264,302
DA:265,302
DA:266,302
DA:267,302
DA:268,302
DA:269,302
DA:270,302
DA:271,302
DA:298,304
DA:299,304
DA:300,1
DA:301,1
DA:303,303
DA:304,1
DA:305,1
DA:307,302
DA:308,302
DA:309,302
DA:310,1
DA:311,1
DA:313,301
DA:314,1
DA:315,1
DA:318,300
DA:319,1
DA:320,1
DA:321,1
DA:322,299
DA:325,299
DA:326,0
DA:327,0
DA:328,0
DA:329,299
DA:332,299
DA:333,0
DA:334,0
DA:335,0
DA:336,299
DA:338,299
DA:339,0
DA:340,0
DA:341,0
DA:342,299
DA:344,299
DA:345,299
DA:346,299
DA:347,299
DA:348,299
DA:349,299
DA:350,299
DA:351,304
DA:370,304
DA:371,304
DA:372,304
DA:380,1
DA:381,1
DA:382,1
DA:383,1
DA:384,1
DA:385,1
DA:386,1
DA:387,1
DA:389,1
DA:390,1
DA:391,1
DA:392,1
DA:393,1
DA:394,1
DA:395,1
DA:396,1
DA:399,1
DA:402,1
DA:403,1
DA:404,1
DA:405,1
DA:406,1
DA:407,1
DA:408,1
DA:409,1
DA:410,1
DA:412,1
DA:413,1
DA:414,1
DA:415,1
DA:418,1
DA:419,1
DA:420,1
DA:423,1
DA:426,1
DA:427,1
DA:428,1
DA:429,1
DA:430,1
DA:431,1
DA:432,1
DA:433,1
DA:434,1
DA:436,1
DA:437,1
DA:438,1
DA:440,1
DA:441,1
DA:444,1
DA:447,1
DA:448,1
DA:449,1
DA:450,1
DA:451,1
DA:452,1
DA:453,1
DA:454,1
DA:455,1
DA:456,1
DA:458,1
DA:459,1
DA:460,1
DA:462,1
DA:465,1
DA:466,1
DA:467,1
DA:468,1
DA:469,1
DA:470,1
DA:471,1
DA:472,1
DA:474,1
DA:475,1
DA:476,1
DA:479,1
DA:482,1
DA:483,1
DA:484,1
DA:485,1
DA:486,1
DA:487,1
DA:488,1
DA:489,1
DA:491,1
DA:492,1
DA:495,1
DA:496,1
DA:497,1
DA:498,1
DA:499,1
DA:500,1
DA:501,1
DA:502,1
DA:504,1
DA:505,1
DA:506,1
DA:509,1
DA:512,1
DA:513,1
DA:514,1
DA:515,1
DA:516,1
DA:517,1
DA:518,1
DA:519,1
DA:520,1
DA:521,1
DA:523,1
DA:524,1
DA:527,1
DA:528,1
DA:529,1
DA:530,1
DA:531,1
DA:532,1
DA:534,1
DA:535,1
DA:536,1
DA:537,1
DA:538,1
DA:539,1
DA:542,1
DA:543,1
DA:544,1
DA:545,1
DA:546,1
DA:547,1
DA:549,1
DA:550,1
DA:551,1
DA:552,1
DA:553,1
DA:554,1
DA:557,1
DA:558,1
DA:559,1
DA:560,1
DA:561,1
DA:562,1
DA:564,1
DA:565,1
DA:566,1
DA:567,1
DA:568,1
DA:569,1
DA:572,1
DA:573,1
DA:574,1
DA:575,1
DA:576,1
DA:577,1
DA:579,1
DA:580,1
DA:581,1
DA:582,1
DA:583,1
DA:584,1
DA:587,1
DA:588,1
DA:589,1
DA:590,1
DA:591,1
DA:592,1
DA:593,1
DA:595,1
DA:596,1
DA:597,1
DA:598,1
DA:599,1
DA:600,1
DA:603,1
DA:604,1
DA:605,1
DA:606,1
DA:607,1
DA:608,1
DA:609,1
DA:610,1
DA:611,1
DA:613,1
DA:614,1
DA:615,1
DA:618,1
DA:619,1
DA:620,1
DA:621,1
DA:622,1
DA:623,1
DA:624,1
DA:625,1
DA:626,1
DA:627,1
DA:629,1
DA:630,1
DA:631,1
BRF:0
BRH:0
LF:317
LH:308
end_of_record
SF:/Users/lsh/projects/crates/wami/src/arn/parser.rs
FN:31,_RNvXs0_NtNtCs9VsQExrgwtF_4wami3arn6parserNtNtB9_5error8AmiErrorINtNtCs2CqrNpCrSUr_4core7convert4FromNtB5_13ArnParseErrorE4from
FN:350,_RNvNtNtNtCs9VsQExrgwtF_4wami3arn6parser5testss_20test_parse_sso_admin
FN:243,_RNvNtNtNtCs9VsQExrgwtF_4wami3arn6parser5testss_22test_parse_wami_native
FN:464,_RNvNtNtNtCs9VsQExrgwtF_4wami3arn6parser5testss_23test_parse_arn_function
FN:424,_RNvNtNtNtCs9VsQExrgwtF_4wami3arn6parser5testss_23test_parse_empty_tenant
FN:330,_RNvNtNtNtCs9VsQExrgwtF_4wami3arn6parser5testss_24test_parse_single_tenant
FN:454,_RNvNtNtNtCs9VsQExrgwtF_4wami3arn6parser5testss_24test_parse_too_few_parts
FN:342,_RNvNtNtNtCs9VsQExrgwtF_4wami3arn6parser5testss_25test_parse_custom_service
FN:394,_RNvNtNtNtCs9VsQExrgwtF_4wami3arn6parser5testss_25test_parse_invalid_prefix
FN:257,_RNvNtNtNtCs9VsQExrgwtF_4wami3arn6parser5testss_27test_parse_cloud_synced_aws
FN:302,_RNvNtNtNtCs9VsQExrgwtF_4wami3arn6parser5testss_27test_parse_cloud_synced_gcp
FN:369,_RNvNtNtNtCs9VsQExrgwtF_4wami3arn6parser5testss_27test_parse_roundtrip_native
FN:434,_RNvNtNtNtCs9VsQExrgwtF_4wami3arn6parser5testss_28test_parse_empty_instance_id
FN:404,_RNvNtNtNtCs9VsQExrgwtF_4wami3arn6parser5testss_28test_parse_invalid_namespace
FN:414,_RNvNtNtNtCs9VsQExrgwtF_4wami3arn6parser5testss_30test_parse_missing_wami_marker
FN:360,_RNvNtNtNtCs9VsQExrgwtF_4wami3arn6parser5testss_30test_parse_resource_with_slash
FN:316,_RNvNtNtNtCs9VsQExrgwtF_4wami3arn6parser5testss_32test_parse_cloud_synced_scaleway
FN:444,_RNvNtNtNtCs9VsQExrgwtF_4wami3arn6parser5testss_34test_parse_invalid_resource_format
FN:276,_RNvNtNtNtCs9VsQExrgwtF_4wami3arn6parser5testss_35test_parse_cloud_synced_with_region
FN:377,_RNvNtNtNtCs9VsQExrgwtF_4wami3arn6parser5testss_40test_parse_roundtrip_cloud_synced_global
FN:385,_RNvNtNtNtCs9VsQExrgwtF_4wami3arn6parser5testss_42test_parse_roundtrip_cloud_synced_regional
FN:291,_RNvNtNtNtCs9VsQExrgwtF_4wami3arn6parser5testss_45test_parse_legacy_cloud_synced_without_region
FN:234,_RNvNtNtCs9VsQExrgwtF_4wami3arn6parser9parse_arn
FN:19,_RNvXNtNtCs9VsQExrgwtF_4wami3arn6parserNtB2_13ArnParseErrorNtNtCs2CqrNpCrSUr_4core3fmt7Display3fmt
FN:235,_RNCNvNtNtCs9VsQExrgwtF_4wami3arn6parser9parse_arn0B7_
FN:100,_RNCNvXs1_NtNtCs9VsQExrgwtF_4wami3arn6parserNtNtB9_5types7WamiArnNtNtNtCs2CqrNpCrSUr_4core3str6traits7FromStr8from_str0Bb_
FN:102,_RNCNvXs1_NtNtCs9VsQExrgwtF_4wami3arn6parserNtNtB9_5types7WamiArnNtNtNtCs2CqrNpCrSUr_4core3str6traits7FromStr8from_strs_0Bb_
FN:69,_RNvXs1_NtNtCs9VsQExrgwtF_4wami3arn6parserNtNtB7_5types7WamiArnNtNtNtCs2CqrNpCrSUr_4core3str6traits7FromStr8from_str
FNDA:1,_RNvXs0_NtNtCs9VsQExrgwtF_4wami3arn6parserNtNtB9_5error8AmiErrorINtNtCs2CqrNpCrSUr_4core7convert4FromNtB5_13ArnParseErrorE4from
FNDA:1,_RNvNtNtNtCs9VsQExrgwtF_4wami3arn6parser5testss_20test_parse_sso_admin
FNDA:1,_RNvNtNtNtCs9VsQExrgwtF_4wami3arn6parser5testss_22test_parse_wami_native
FNDA:1,_RNvNtNtNtCs9VsQExrgwtF_4wami3arn6parser5testss_23test_parse_arn_function
FNDA:1,_RNvNtNtNtCs9VsQExrgwtF_4wami3arn6parser5testss_23test_parse_empty_tenant
FNDA:1,_RNvNtNtNtCs9VsQExrgwtF_4wami3arn6parser5testss_24test_parse_single_tenant
FNDA:1,_RNvNtNtNtCs9VsQExrgwtF_4wami3arn6parser5testss_24test_parse_too_few_parts
FNDA:1,_RNvNtNtNtCs9VsQExrgwtF_4wami3arn6parser5testss_25test_parse_custom_service
FNDA:1,_RNvNtNtNtCs9VsQExrgwtF_4wami3arn6parser5testss_25test_parse_invalid_prefix
FNDA:1,_RNvNtNtNtCs9VsQExrgwtF_4wami3arn6parser5testss_27test_parse_cloud_synced_aws
FNDA:1,_RNvNtNtNtCs9VsQExrgwtF_4wami3arn6parser5testss_27test_parse_cloud_synced_gcp
FNDA:1,_RNvNtNtNtCs9VsQExrgwtF_4wami3arn6parser5testss_27test_parse_roundtrip_native
FNDA:1,_RNvNtNtNtCs9VsQExrgwtF_4wami3arn6parser5testss_28test_parse_empty_instance_id
FNDA:1,_RNvNtNtNtCs9VsQExrgwtF_4wami3arn6parser5testss_28test_parse_invalid_namespace
FNDA:1,_RNvNtNtNtCs9VsQExrgwtF_4wami3arn6parser5testss_30test_parse_missing_wami_marker
FNDA:1,_RNvNtNtNtCs9VsQExrgwtF_4wami3arn6parser5testss_30test_parse_resource_with_slash
FNDA:1,_RNvNtNtNtCs9VsQExrgwtF_4wami3arn6parser5testss_32test_parse_cloud_synced_scaleway
FNDA:1,_RNvNtNtNtCs9VsQExrgwtF_4wami3arn6parser5testss_34test_parse_invalid_resource_format
FNDA:1,_RNvNtNtNtCs9VsQExrgwtF_4wami3arn6parser5testss_35test_parse_cloud_synced_with_region
FNDA:1,_RNvNtNtNtCs9VsQExrgwtF_4wami3arn6parser5testss_40test_parse_roundtrip_cloud_synced_global
FNDA:1,_RNvNtNtNtCs9VsQExrgwtF_4wami3arn6parser5testss_42test_parse_roundtrip_cloud_synced_regional
FNDA:1,_RNvNtNtNtCs9VsQExrgwtF_4wami3arn6parser5testss_45test_parse_legacy_cloud_synced_without_region
FNDA:2,_RNvNtNtCs9VsQExrgwtF_4wami3arn6parser9parse_arn
FNDA:8,_RNvXNtNtCs9VsQExrgwtF_4wami3arn6parserNtB2_13ArnParseErrorNtNtCs2CqrNpCrSUr_4core3fmt7Display3fmt
FNDA:1,_RNCNvNtNtCs9VsQExrgwtF_4wami3arn6parser9parse_arn0B7_
FNDA:268,_RNCNvXs1_NtNtCs9VsQExrgwtF_4wami3arn6parserNtNtB9_5types7WamiArnNtNtNtCs2CqrNpCrSUr_4core3str6traits7FromStr8from_str0Bb_
FNDA:268,_RNCNvXs1_NtNtCs9VsQExrgwtF_4wami3arn6parserNtNtB9_5types7WamiArnNtNtNtCs2CqrNpCrSUr_4core3str6traits7FromStr8from_strs_0Bb_
FNDA:253,_RNvXs1_NtNtCs9VsQExrgwtF_4wami3arn6parserNtNtB7_5types7WamiArnNtNtNtCs2CqrNpCrSUr_4core3str6traits7FromStr8from_str
FNF:28
FNH:28
DA:19,8
DA:20,8
DA:21,6
DA:22,0
DA:23,2
DA:25,8
DA:31,1
DA:32,1
DA:33,1
DA:34,1
DA:35,1
DA:69,253
DA:71,253
DA:74,253
DA:75,4
DA:76,4
DA:77,4
DA:78,4
DA:79,249
DA:82,249
DA:83,1
DA:84,1
DA:85,1
DA:86,1
DA:87,248
DA:89,248
DA:90,1
DA:91,1
DA:92,1
DA:93,1
DA:94,247
DA:97,247
DA:100,268
DA:102,268
DA:103,1
DA:104,1
DA:105,1
DA:106,246
DA:108,246
DA:111,246
DA:112,1
DA:113,1
DA:114,1
DA:115,1
DA:116,245
DA:119,245
DA:120,245
DA:121,1
DA:122,1
DA:123,1
DA:124,244
DA:130,244
DA:133,7
DA:135,7
DA:136,7
DA:137,7
DA:139,7
DA:140,0
DA:141,0
DA:142,0
DA:143,7
DA:145,7
DA:146,2
DA:148,5
DA:152,7
DA:154,7
DA:157,0
DA:158,0
DA:160,237
DA:163,1
DA:165,1
DA:166,1
DA:168,1
DA:169,0
DA:170,0
DA:171,0
DA:172,1
DA:174,1
DA:177,1
DA:179,1
DA:182,0
DA:183,0
DA:187,236
DA:188,236
DA:192,244
DA:193,244
DA:194,1
DA:195,1
DA:196,1
DA:197,1
DA:198,243
DA:200,243
DA:201,243
DA:203,243
DA:204,0
DA:205,0
DA:206,0
DA:207,243
DA:209,243
DA:211,243
DA:212,243
DA:213,243
DA:214,243
DA:215,243
DA:216,243
DA:217,243
DA:218,253
DA:234,2
DA:235,2
DA:236,2
DA:243,1
DA:244,1
DA:245,1
DA:247,1
DA:248,1
DA:249,1
DA:250,1
DA:251,1
DA:252,1
DA:253,1
DA:254,1
DA:257,1
DA:258,1
DA:259,1
DA:261,1
DA:262,1
DA:263,1
DA:264,1
DA:265,1
DA:266,1
DA:267,1
DA:270,1
DA:271,1
DA:272,1
DA:273,1
DA:276,1
DA:277,1
DA:278,1
DA:279,1
DA:281,1
DA:282,1
DA:283,1
DA:284,1
DA:285,1
DA:287,1
DA:288,1
DA:291,1
DA:293,1
DA:294,1
DA:296,1
DA:297,1
DA:298,1
DA:299,1
DA:302,1
DA:303,1
DA:304,1
DA:305,1
DA:307,1
DA:308,1
DA:309,1
DA:310,1
DA:311,1
DA:313,1
DA:316,1
DA:317,1
DA:318,1
DA:319,1
DA:321,1
DA:322,1
DA:323,1
DA:324,1
DA:325,1
DA:327,1
DA:330,1
DA:331,1
DA:332,1
DA:334,1
DA:335,1
DA:336,1
DA:337,1
DA:338,1
DA:339,1
DA:342,1
DA:343,1
DA:344,1
DA:346,1
DA:347,1
DA:350,1
DA:351,1
DA:352,1
DA:354,1
DA:355,1
DA:356,1
DA:357,1
DA:360,1
DA:361,1
DA:362,1
DA:364,1
DA:365,1
DA:366,1
DA:369,1
DA:370,1
DA:371,1
DA:372,1
DA:373,1
DA:374,1
DA:377,1
DA:378,1
DA:379,1
DA:380,1
DA:381,1
DA:382,1
DA:385,1
DA:386,1
DA:387,1
DA:388,1
DA:389,1
DA:390,1
DA:391,1
DA:394,1
DA:395,1
DA:396,1
DA:397,1
DA:398,1
DA:399,1
DA:400,1
DA:401,1
DA:404,1
DA:405,1
DA:406,1
DA:407,1
DA:408,1
DA:409,1
DA:410,1
DA:411,1
DA:414,1
DA:415,1
DA:416,1
DA:417,1
DA:418,1
DA:419,1
DA:420,1
DA:421,1
DA:424,1
DA:425,1
DA:426,1
DA:427,1
DA:428,1
DA:429,1
DA:430,1
DA:431,1
DA:434,1
DA:435,1
DA:436,1
DA:437,1
DA:438,1
DA:439,1
DA:440,1
DA:441,1
DA:444,1
DA:445,1
DA:446,1
DA:447,1
DA:448,1
DA:449,1
DA:450,1
DA:451,1
DA:454,1
DA:455,1
DA:456,1
DA:457,1
DA:458,1
DA:459,1
DA:460,1
DA:461,1
DA:464,1
DA:465,1
DA:466,1
DA:468,1
DA:469,1
DA:470,1
BRF:0
BRH:0
LF:284
LH:270
end_of_record
SF:/Users/lsh/projects/crates/wami/src/arn/transformer.rs
FN:443,_RNvNtNtCs9VsQExrgwtF_4wami3arn11transformer15get_transformer
FN:68,_RNvXNtNtCs9VsQExrgwtF_4wami3arn11transformerNtB2_17AwsArnTransformerNtB2_14ArnTransformer15to_provider_arn
FN:107,_RNvXNtNtCs9VsQExrgwtF_4wami3arn11transformerNtB2_17AwsArnTransformerNtB2_14ArnTransformer17from_provider_arn
FN:272,_RNvXs0_NtNtCs9VsQExrgwtF_4wami3arn11transformerNtB5_19AzureArnTransformerNtB5_14ArnTransformer15to_provider_arn
FN:308,_RNvXs0_NtNtCs9VsQExrgwtF_4wami3arn11transformerNtB5_19AzureArnTransformerNtB5_14ArnTransformer17from_provider_arn
FN:350,_RNvXs1_NtNtCs9VsQExrgwtF_4wami3arn11transformerNtB5_22ScalewayArnTransformerNtB5_14ArnTransformer15to_provider_arn
FN:380,_RNvXs1_NtNtCs9VsQExrgwtF_4wami3arn11transformerNtB5_22ScalewayArnTransformerNtB5_14ArnTransformer17from_provider_arn
FN:173,_RNvXs_NtNtCs9VsQExrgwtF_4wami3arn11transformerNtB4_17GcpArnTransformerNtB4_14ArnTransformer15to_provider_arn
FN:212,_RNvXs_NtNtCs9VsQExrgwtF_4wami3arn11transformerNtB4_17GcpArnTransformerNtB4_14ArnTransformer17from_provider_arn
FN:585,_RNvNtNtNtCs9VsQExrgwtF_4wami3arn11transformer5testss_20test_aws_sts_service
FN:459,_RNvNtNtNtCs9VsQExrgwtF_4wami3arn11transformer5testss_20test_aws_transformer
FN:515,_RNvNtNtNtCs9VsQExrgwtF_4wami3arn11transformer5testss_20test_gcp_transformer
FN:576,_RNvNtNtNtCs9VsQExrgwtF_4wami3arn11transformer5testss_20test_get_transformer
FN:534,_RNvNtNtNtCs9VsQExrgwtF_4wami3arn11transformer5testss_22test_azure_transformer
FN:553,_RNvNtNtNtCs9VsQExrgwtF_4wami3arn11transformer5testss_25test_scaleway_transformer
FN:601,_RNvNtNtNtCs9VsQExrgwtF_4wami3arn11transformer5testss_28test_aws_resource_with_slash
FN:620,_RNvNtNtNtCs9VsQExrgwtF_4wami3arn11transformer5testss_32test_aws_transformer_with_region
FN:644,_RNvNtNtNtCs9VsQExrgwtF_4wami3arn11transformer5testss_32test_gcp_transformer_error_cases
FN:674,_RNvNtNtNtCs9VsQExrgwtF_4wami3arn11transformer5testss_34test_azure_transformer_error_cases
FN:482,_RNvNtNtNtCs9VsQExrgwtF_4wami3arn11transformer5testss_35test_aws_transformer_wrong_provider
FN:499,_RNvNtNtNtCs9VsQExrgwtF_4wami3arn11transformer5testss_37test_aws_transformer_not_cloud_synced
FN:687,_RNvNtNtNtCs9VsQExrgwtF_4wami3arn11transformer5testss_37test_scaleway_transformer_error_cases
FN:637,_RNvNtNtNtCs9VsQExrgwtF_4wami3arn11transformer5testss_39test_aws_transformer_invalid_arn_format
FN:708,_RNvNtNtNtCs9VsQExrgwtF_4wami3arn11transformer5testss_40test_aws_transformer_from_arn_edge_cases
FN:73,_RNCNvXNtNtCs9VsQExrgwtF_4wami3arn11transformerNtB4_17AwsArnTransformerNtB4_14ArnTransformer15to_provider_arn0B8_
FN:277,_RNCNvXs0_NtNtCs9VsQExrgwtF_4wami3arn11transformerNtB7_19AzureArnTransformerNtB7_14ArnTransformer15to_provider_arn0Bb_
FN:355,_RNCNvXs1_NtNtCs9VsQExrgwtF_4wami3arn11transformerNtB7_22ScalewayArnTransformerNtB7_14ArnTransformer15to_provider_arn0Bb_
FN:178,_RNCNvXs_NtNtCs9VsQExrgwtF_4wami3arn11transformerNtB6_17GcpArnTransformerNtB6_14ArnTransformer15to_provider_arn0Ba_
FNDA:5,_RNvNtNtCs9VsQExrgwtF_4wami3arn11transformer15get_transformer
FNDA:6,_RNvXNtNtCs9VsQExrgwtF_4wami3arn11transformerNtB2_17AwsArnTransformerNtB2_14ArnTransformer15to_provider_arn
FNDA:5,_RNvXNtNtCs9VsQExrgwtF_4wami3arn11transformerNtB2_17AwsArnTransformerNtB2_14ArnTransformer17from_provider_arn
FNDA:1,_RNvXs0_NtNtCs9VsQExrgwtF_4wami3arn11transformerNtB5_19AzureArnTransformerNtB5_14ArnTransformer15to_provider_arn
FNDA:2,_RNvXs0_NtNtCs9VsQExrgwtF_4wami3arn11transformerNtB5_19AzureArnTransformerNtB5_14ArnTransformer17from_provider_arn
FNDA:2,_RNvXs1_NtNtCs9VsQExrgwtF_4wami3arn11transformerNtB5_22ScalewayArnTransformerNtB5_14ArnTransformer15to_provider_arn
FNDA:2,_RNvXs1_NtNtCs9VsQExrgwtF_4wami3arn11transformerNtB5_22ScalewayArnTransformerNtB5_14ArnTransformer17from_provider_arn
FNDA:3,_RNvXs_NtNtCs9VsQExrgwtF_4wami3arn11transformerNtB4_17GcpArnTransformerNtB4_14ArnTransformer15to_provider_arn
FNDA:0,_RNvXs_NtNtCs9VsQExrgwtF_4wami3arn11transformerNtB4_17GcpArnTransformerNtB4_14ArnTransformer17from_provider_arn
FNDA:1,_RNvNtNtNtCs9VsQExrgwtF_4wami3arn11transformer5testss_20test_aws_sts_service
FNDA:1,_RNvNtNtNtCs9VsQExrgwtF_4wami3arn11transformer5testss_20test_aws_transformer
FNDA:1,_RNvNtNtNtCs9VsQExrgwtF_4wami3arn11transformer5testss_20test_gcp_transformer
FNDA:1,_RNvNtNtNtCs9VsQExrgwtF_4wami3arn11transformer5testss_20test_get_transformer
FNDA:1,_RNvNtNtNtCs9VsQExrgwtF_4wami3arn11transformer5testss_22test_azure_transformer
FNDA:1,_RNvNtNtNtCs9VsQExrgwtF_4wami3arn11transformer5testss_25test_scaleway_transformer
FNDA:1,_RNvNtNtNtCs9VsQExrgwtF_4wami3arn11transformer5testss_28test_aws_resource_with_slash
FNDA:1,_RNvNtNtNtCs9VsQExrgwtF_4wami3arn11transformer5testss_32test_aws_transformer_with_region
FNDA:1,_RNvNtNtNtCs9VsQExrgwtF_4wami3arn11transformer5testss_32test_gcp_transformer_error_cases
FNDA:1,_RNvNtNtNtCs9VsQExrgwtF_4wami3arn11transformer5testss_34test_azure_transformer_error_cases
FNDA:1,_RNvNtNtNtCs9VsQExrgwtF_4wami3arn11transformer5testss_35test_aws_transformer_wrong_provider
FNDA:1,_RNvNtNtNtCs9VsQExrgwtF_4wami3arn11transformer5testss_37test_aws_transformer_not_cloud_synced
FNDA:1,_RNvNtNtNtCs9VsQExrgwtF_4wami3arn11transformer5testss_37test_scaleway_transformer_error_cases
FNDA:1,_RNvNtNtNtCs9VsQExrgwtF_4wami3arn11transformer5testss_39test_aws_transformer_invalid_arn_format
FNDA:1,_RNvNtNtNtCs9VsQExrgwtF_4wami3arn11transformer5testss_40test_aws_transformer_from_arn_edge_cases
FNDA:1,_RNCNvXNtNtCs9VsQExrgwtF_4wami3arn11transformerNtB4_17AwsArnTransformerNtB4_14ArnTransformer15to_provider_arn0B8_
FNDA:0,_RNCNvXs0_NtNtCs9VsQExrgwtF_4wami3arn11transformerNtB7_19AzureArnTransformerNtB7_14ArnTransformer15to_provider_arn0Bb_
FNDA:1,_RNCNvXs1_NtNtCs9VsQExrgwtF_4wami3arn11transformerNtB7_22ScalewayArnTransformerNtB7_14ArnTransformer15to_provider_arn0Bb_
FNDA:1,_RNCNvXs_NtNtCs9VsQExrgwtF_4wami3arn11transformerNtB6_17GcpArnTransformerNtB6_14ArnTransformer15to_provider_arn0Ba_
FNF:28
FNH:26
DA:68,6
DA:69,5
DA:70,6
DA:71,6
DA:72,6
DA:73,1
DA:74,1
DA:76,5
DA:77,1
DA:78,1
DA:79,1
DA:80,1
DA:81,1
DA:82,1
DA:83,4
DA:86,4
DA:87,3
DA:88,1
DA:89,0
DA:90,0
DA:95,4
DA:97,4
DA:98,4
DA:99,4
DA:100,4
DA:101,4
DA:102,4
DA:103,4
DA:104,4
DA:105,6
DA:107,5
DA:108,5
DA:110,5
DA:111,1
DA:112,1
DA:113,1
DA:114,1
DA:115,1
DA:116,1
DA:117,4
DA:119,4
DA:120,0
DA:121,0
DA:122,0
DA:123,0
DA:124,0
DA:125,0
DA:126,4
DA:128,4
DA:129,4
DA:130,4
DA:133,4
DA:134,4
DA:136,4
DA:137,0
DA:138,0
DA:139,0
DA:140,0
DA:141,0
DA:142,0
DA:143,4
DA:145,4
DA:146,4
DA:149,4
DA:150,4
DA:151,4
DA:152,4
DA:153,4
DA:154,4
DA:155,3
DA:157,1
DA:160,5
DA:173,3
DA:174,2
DA:175,3
DA:176,3
DA:177,3
DA:178,1
DA:179,1
DA:181,2
DA:182,1
DA:183,1
DA:184,1
DA:185,1
DA:186,1
DA:187,1
DA:188,1
DA:191,1
DA:192,1
DA:193,0
DA:194,0
DA:195,0
DA:199,1
DA:200,1
DA:209,1
DA:210,3
DA:212,0
DA:216,0
DA:217,0
DA:218,0
DA:219,0
DA:220,0
DA:222,0
DA:224,0
DA:225,0
DA:226,0
DA:227,0
DA:228,0
DA:229,0
DA:230,0
DA:231,0
DA:233,0
DA:235,0
DA:236,0
DA:237,0
DA:238,0
DA:239,0
DA:240,0
DA:241,0
DA:242,0
DA:244,0
DA:247,0
DA:248,0
DA:249,0
DA:250,0
DA:252,0
DA:254,0
DA:255,0
DA:256,0
DA:257,0
DA:258,0
DA:259,0
DA:260,0
DA:261,0
DA:262,0
DA:272,1
DA:273,1
DA:274,1
DA:275,1
DA:276,1
DA:277,0
DA:278,0
DA:280,1
DA:281,0
DA:282,0
DA:283,0
DA:284,0
DA:285,0
DA:286,0
DA:287,1
DA:290,1
DA:291,1
DA:292,0
DA:293,0
DA:294,0
DA:299,1
DA:300,1
DA:301,1
DA:302,1
DA:303,1
DA:304,1
DA:305,1
DA:306,1
DA:308,2
DA:310,2
DA:312,2
DA:313,2
DA:314,2
DA:315,2
DA:316,0
DA:318,0
DA:319,0
DA:320,0
DA:321,0
DA:322,0
DA:323,0
DA:324,0
DA:325,0
DA:327,0
DA:328,0
DA:329,0
DA:330,0
DA:332,0
DA:333,0
DA:334,0
DA:335,0
DA:336,0
DA:337,0
DA:338,0
DA:339,0
DA:340,2
DA:350,2
DA:351,1
DA:352,2
DA:353,2
DA:354,2
DA:355,1
DA:356,1
DA:358,1
DA:359,0
DA:360,0
DA:361,0
DA:362,0
DA:363,0
DA:364,0
DA:365,1
DA:367,1
DA:368,1
DA:369,0
DA:370,0
DA:371,0
DA:374,1
DA:375,1
DA:376,1
DA:377,1
DA:378,2
DA:380,2
DA:381,2
DA:383,2
DA:384,1
DA:385,1
DA:386,1
DA:387,1
DA:388,1
DA:389,1
DA:390,1
DA:392,1
DA:393,0
DA:394,0
DA:395,0
DA:396,0
DA:397,0
DA:398,0
DA:399,1
DA:401,1
DA:402,1
DA:404,1
DA:405,1
DA:407,1
DA:408,0
DA:409,0
DA:410,0
DA:411,0
DA:412,0
DA:413,0
DA:414,1
DA:416,1
DA:417,1
DA:419,1
DA:420,1
DA:421,1
DA:422,1
DA:423,1
DA:424,1
DA:425,1
DA:426,1
DA:427,2
DA:443,5
DA:444,5
DA:445,5
DA:446,4
DA:447,3
DA:448,2
DA:449,1
DA:451,5
DA:459,1
DA:460,1
DA:461,1
DA:462,1
DA:463,1
DA:464,1
DA:465,1
DA:466,1
DA:467,1
DA:469,1
DA:470,1
DA:471,1
DA:473,1
DA:474,1
DA:475,1
DA:476,1
DA:477,1
DA:478,1
DA:479,1
DA:482,1
DA:483,1
DA:484,1
DA:485,1
DA:486,1
DA:487,1
DA:488,1
DA:489,1
DA:490,1
DA:492,1
DA:493,1
DA:494,1
DA:495,1
DA:496,1
DA:499,1
DA:500,1
DA:501,1
DA:502,1
DA:503,1
DA:504,1
DA:505,1
DA:506,1
DA:508,1
DA:509,1
DA:510,1
DA:511,1
DA:512,1
DA:515,1
DA:516,1
DA:517,1
DA:518,1
DA:519,1
DA:520,1
DA:521,1
DA:522,1
DA:523,1
DA:525,1
DA:526,1
DA:527,1
DA:531,1
DA:534,1
DA:535,1
DA:536,1
DA:537,1
DA:538,1
DA:539,1
DA:540,1
DA:541,1
DA:542,1
DA:544,1
DA:545,1
DA:546,1
DA:550,1
DA:553,1
DA:554,1
DA:555,1
DA:556,1
DA:557,1
DA:558,1
DA:559,1
DA:560,1
DA:561,1
DA:563,1
DA:564,1
DA:565,1
DA:567,1
DA:568,1
DA:569,1
DA:570,1
DA:571,1
DA:572,1
DA:573,1
DA:576,1
DA:577,1
DA:578,1
DA:579,1
DA:580,1
DA:581,1
DA:582,1
DA:585,1
DA:586,1
DA:587,1
DA:588,1
DA:589,1
DA:590,1
DA:591,1
DA:592,1
DA:593,1
DA:595,1
DA:596,1
DA:597,1
DA:598,1
DA:601,1
DA:602,1
DA:603,1
DA:604,1
DA:605,1
DA:606,1
DA:607,1
DA:608,1
DA:609,1
DA:611,1
DA:612,1
DA:613,1
DA:615,1
DA:616,1
DA:617,1
DA:620,1
DA:621,1
DA:622,1
DA:623,1
DA:624,1
DA:625,1
DA:626,1
DA:627,1
DA:628,1
DA:630,1
DA:631,1
DA:633,1
DA:634,1
DA:637,1
DA:638,1
DA:639,1
DA:640,1
DA:641,1
DA:644,1
DA:645,1
DA:648,1
DA:649,1
DA:650,1
DA:651,1
DA:652,1
DA:653,1
DA:654,1
DA:656,1
DA:657,1
DA:660,1
DA:661,1
DA:662,1
DA:663,1
DA:664,1
DA:665,1
DA:666,1
DA:667,1
DA:669,1
DA:670,1
DA:671,1
DA:674,1
DA:675,1
DA:678,1
DA:679,1
DA:682,1
DA:683,1
DA:684,1
DA:687,1
DA:688,1
DA:691,1
DA:692,1
DA:695,1
DA:696,1
DA:697,1
DA:698,1
DA:699,1
DA:700,1
DA:701,1
DA:703,1
DA:704,1
DA:705,1
DA:708,1
DA:709,1
DA:712,1
DA:713,1
DA:714,1
DA:715,1
DA:716,1
DA:717,1
DA:718,1
DA:719,1
DA:722,1
DA:723,1
DA:724,1
DA:725,1
DA:726,1
BRF:0
BRH:0
LF:471
LH:361
end_of_record
SF:/Users/lsh/projects/crates/wami/src/arn/types.rs
FN:491,_RNvNtNtNtCs9VsQExrgwtF_4wami3arn5types5testss_12test_service
FN:484,_RNvNtNtNtCs9VsQExrgwtF_4wami3arn5types5testss_13test_resource
FN:634,_RNvNtNtNtCs9VsQExrgwtF_4wami3arn5types5testss_18test_serialization
FN:593,_RNvNtNtNtCs9VsQExrgwtF_4wami3arn5types5testss_19test_matches_prefix
FN:510,_RNvNtNtNtCs9VsQExrgwtF_4wami3arn5types5testss_20test_wami_arn_native
FN:499,_RNvNtNtNtCs9VsQExrgwtF_4wami3arn5types5testss_21test_service_from_str
FN:609,_RNvNtNtNtCs9VsQExrgwtF_4wami3arn5types5testss_22test_belongs_to_tenant
FN:371,_RNvNtNtNtCs9VsQExrgwtF_4wami3arn5types5testss_23test_tenant_path_single
FN:381,_RNvNtNtNtCs9VsQExrgwtF_4wami3arn5types5testss_26test_tenant_path_hierarchy
FN:537,_RNvNtNtNtCs9VsQExrgwtF_4wami3arn5types5testss_26test_wami_arn_cloud_synced
FN:390,_RNvNtNtNtCs9VsQExrgwtF_4wami3arn5types5testss_27test_tenant_path_descendant
FN:402,_RNvNtNtNtCs9VsQExrgwtF_4wami3arn5types5testss_28test_tenant_path_starts_with
FN:443,_RNvNtNtNtCs9VsQExrgwtF_4wami3arn5types5testss_28test_wami_arn_matches_prefix
FN:653,_RNvNtNtNtCs9VsQExrgwtF_4wami3arn5types5testss_31test_serialization_cloud_synced
FN:459,_RNvNtNtNtCs9VsQExrgwtF_4wami3arn5types5testss_31test_wami_arn_belongs_to_tenant
FN:423,_RNvNtNtNtCs9VsQExrgwtF_4wami3arn5types5testss_32test_tenant_path_empty_root_leaf
FN:432,_RNvNtNtNtCs9VsQExrgwtF_4wami3arn5types5testss_37test_cloud_mapping_global_vs_regional
FN:563,_RNvNtNtNtCs9VsQExrgwtF_4wami3arn5types5testss_38test_wami_arn_cloud_synced_with_region
FN:94,_RNvMNtNtCs9VsQExrgwtF_4wami3arn5typesNtB2_10TenantPath11starts_with
FN:120,_RNvMNtNtCs9VsQExrgwtF_4wami3arn5typesNtB2_10TenantPath14is_ancestor_of
FN:109,_RNvMNtNtCs9VsQExrgwtF_4wami3arn5typesNtB2_10TenantPath16is_descendant_of
FN:62,_RNvMNtNtCs9VsQExrgwtF_4wami3arn5typesNtB2_10TenantPath3new
FN:84,_RNvMNtNtCs9VsQExrgwtF_4wami3arn5typesNtB2_10TenantPath4leaf
FN:79,_RNvMNtNtCs9VsQExrgwtF_4wami3arn5typesNtB2_10TenantPath4root
FN:89,_RNvMNtNtCs9VsQExrgwtF_4wami3arn5typesNtB2_10TenantPath5depth
FN:74,_RNvMNtNtCs9VsQExrgwtF_4wami3arn5typesNtB2_10TenantPath9as_string
FN:169,_RNvMs0_NtNtCs9VsQExrgwtF_4wami3arn5typesNtB5_12CloudMapping11is_regional
FN:174,_RNvMs0_NtNtCs9VsQExrgwtF_4wami3arn5typesNtB5_12CloudMapping16region_or_global
FN:199,_RNvMs1_NtNtCs9VsQExrgwtF_4wami3arn5typesNtB5_8Resource7as_path
FN:230,_RNvMs3_NtNtCs9VsQExrgwtF_4wami3arn5typesNtB5_7Service6as_str
FN:300,_RNvMs6_NtNtCs9VsQExrgwtF_4wami3arn5typesNtB5_7WamiArn11leaf_tenant
FN:334,_RNvMs6_NtNtCs9VsQExrgwtF_4wami3arn5typesNtB5_7WamiArn11resource_id
FN:329,_RNvMs6_NtNtCs9VsQExrgwtF_4wami3arn5typesNtB5_7WamiArn13resource_type
FN:319,_RNvMs6_NtNtCs9VsQExrgwtF_4wami3arn5typesNtB5_7WamiArn14matches_prefix
FN:295,_RNvMs6_NtNtCs9VsQExrgwtF_4wami3arn5typesNtB5_7WamiArn14primary_tenant
FN:285,_RNvMs6_NtNtCs9VsQExrgwtF_4wami3arn5typesNtB5_7WamiArn15is_cloud_synced
FN:305,_RNvMs6_NtNtCs9VsQExrgwtF_4wami3arn5typesNtB5_7WamiArn16full_tenant_path
FN:324,_RNvMs6_NtNtCs9VsQExrgwtF_4wami3arn5typesNtB5_7WamiArn17belongs_to_tenant
FN:267,_RNvMs6_NtNtCs9VsQExrgwtF_4wami3arn5typesNtB5_7WamiArn6prefix
FN:290,_RNvMs6_NtNtCs9VsQExrgwtF_4wami3arn5typesNtB5_7WamiArn8provider
FN:205,_RNvXs2_NtNtCs9VsQExrgwtF_4wami3arn5typesNtB5_8ResourceNtNtCs2CqrNpCrSUr_4core3fmt7Display3fmt
FN:241,_RNvXs4_NtNtCs9VsQExrgwtF_4wami3arn5typesNtB5_7ServiceNtNtCs2CqrNpCrSUr_4core3fmt7Display3fmt
FN:247,_RNvXs5_NtNtCs9VsQExrgwtF_4wami3arn5typesNtB5_7ServiceINtNtCs2CqrNpCrSUr_4core7convert4FromReE4from
FN:340,_RNvXs7_NtNtCs9VsQExrgwtF_4wami3arn5typesNtB5_7WamiArnNtNtCs2CqrNpCrSUr_4core3fmt7Display3fmt
FN:126,_RNvXs_NtNtCs9VsQExrgwtF_4wami3arn5typesNtB4_10TenantPathNtNtCs2CqrNpCrSUr_4core3fmt7Display3fmt
FN:67,_RINvMNtNtCs9VsQExrgwtF_4wami3arn5typesNtB3_10TenantPath6singleReEB7_
FN:156,_RINvMs0_NtNtCs9VsQExrgwtF_4wami3arn5typesNtB6_12CloudMapping11with_regionNtNtCs1AhsD0INetT_5alloc6string6StringB19_B19_EBa_
FN:156,_RINvMs0_NtNtCs9VsQExrgwtF_4wami3arn5typesNtB6_12CloudMapping11with_regionReB19_B19_EBa_
FN:147,_RINvMs0_NtNtCs9VsQExrgwtF_4wami3arn5typesNtB6_12CloudMapping3newNtNtCs1AhsD0INetT_5alloc6string6StringB10_EBa_
FN:147,_RINvMs0_NtNtCs9VsQExrgwtF_4wami3arn5typesNtB6_12CloudMapping3newReB10_EBa_
FN:191,_RINvMs1_NtNtCs9VsQExrgwtF_4wami3arn5typesNtB6_8Resource3newNtNtCs1AhsD0INetT_5alloc6string6StringBV_EBa_
FN:191,_RINvMs1_NtNtCs9VsQExrgwtF_4wami3arn5typesNtB6_8Resource3newReBV_EBa_
FN:191,_RINvMs1_NtNtCs9VsQExrgwtF_4wami3arn5typesNtB6_8Resource3newReNtNtCs1AhsD0INetT_5alloc6string6StringEBa_
FN:191,_RINvMs1_NtNtCs9VsQExrgwtF_4wami3arn5typesNtB6_8Resource3newReRNtNtCs1AhsD0INetT_5alloc6string6StringEBa_
FN:347,_RINvXs8_NtNtCs9VsQExrgwtF_4wami3arn5typesNtB6_7WamiArnNtNtCscet4PgUngVW_10serde_core3ser9Serialize9serializeQINtNtCs3rsZH23P4dn_10serde_json3ser10SerializerQINtNtCs1AhsD0INetT_5alloc3vec3VechEEEBa_
FN:357,_RINvXs9_NtNtCs9VsQExrgwtF_4wami3arn5typesNtB6_7WamiArnNtNtCscet4PgUngVW_10serde_core2de11Deserialize11deserializeQINtNtCs3rsZH23P4dn_10serde_json2de12DeserializerNtNtB1T_4read7StrReadEEBa_
FN:116,_RNCNvMNtNtCs9VsQExrgwtF_4wami3arn5typesNtB4_10TenantPath16is_descendant_of0B8_
FN:85,_RNCNvMNtNtCs9VsQExrgwtF_4wami3arn5typesNtB4_10TenantPath4leaf0B8_
FN:80,_RNCNvMNtNtCs9VsQExrgwtF_4wami3arn5typesNtB4_10TenantPath4root0B8_
FN:291,_RNCNvMs6_NtNtCs9VsQExrgwtF_4wami3arn5typesNtB7_7WamiArn8provider0Bb_
FNDA:1,_RNvNtNtNtCs9VsQExrgwtF_4wami3arn5types5testss_12test_service
FNDA:1,_RNvNtNtNtCs9VsQExrgwtF_4wami3arn5types5testss_13test_resource
FNDA:1,_RNvNtNtNtCs9VsQExrgwtF_4wami3arn5types5testss_18test_serialization
FNDA:1,_RNvNtNtNtCs9VsQExrgwtF_4wami3arn5types5testss_19test_matches_prefix
FNDA:1,_RNvNtNtNtCs9VsQExrgwtF_4wami3arn5types5testss_20test_wami_arn_native
FNDA:1,_RNvNtNtNtCs9VsQExrgwtF_4wami3arn5types5testss_21test_service_from_str
FNDA:1,_RNvNtNtNtCs9VsQExrgwtF_4wami3arn5types5testss_22test_belongs_to_tenant
FNDA:1,_RNvNtNtNtCs9VsQExrgwtF_4wami3arn5types5testss_23test_tenant_path_single
FNDA:1,_RNvNtNtNtCs9VsQExrgwtF_4wami3arn5types5testss_26test_tenant_path_hierarchy
FNDA:1,_RNvNtNtNtCs9VsQExrgwtF_4wami3arn5types5testss_26test_wami_arn_cloud_synced
FNDA:1,_RNvNtNtNtCs9VsQExrgwtF_4wami3arn5types5testss_27test_tenant_path_descendant
FNDA:1,_RNvNtNtNtCs9VsQExrgwtF_4wami3arn5types5testss_28test_tenant_path_starts_with
FNDA:1,_RNvNtNtNtCs9VsQExrgwtF_4wami3arn5types5testss_28test_wami_arn_matches_prefix
FNDA:1,_RNvNtNtNtCs9VsQExrgwtF_4wami3arn5types5testss_31test_serialization_cloud_synced
FNDA:1,_RNvNtNtNtCs9VsQExrgwtF_4wami3arn5types5testss_31test_wami_arn_belongs_to_tenant
FNDA:1,_RNvNtNtNtCs9VsQExrgwtF_4wami3arn5types5testss_32test_tenant_path_empty_root_leaf
FNDA:1,_RNvNtNtNtCs9VsQExrgwtF_4wami3arn5types5testss_37test_cloud_mapping_global_vs_regional
FNDA:1,_RNvNtNtNtCs9VsQExrgwtF_4wami3arn5types5testss_38test_wami_arn_cloud_synced_with_region
FNDA:10,_RNvMNtNtCs9VsQExrgwtF_4wami3arn5typesNtB2_10TenantPath11starts_with
FNDA:1,_RNvMNtNtCs9VsQExrgwtF_4wami3arn5typesNtB2_10TenantPath14is_ancestor_of
FNDA:11,_RNvMNtNtCs9VsQExrgwtF_4wami3arn5typesNtB2_10TenantPath16is_descendant_of
FNDA:273,_RNvMNtNtCs9VsQExrgwtF_4wami3arn5typesNtB2_10TenantPath3new
FNDA:4,_RNvMNtNtCs9VsQExrgwtF_4wami3arn5typesNtB2_10TenantPath4leaf
FNDA:4,_RNvMNtNtCs9VsQExrgwtF_4wami3arn5typesNtB2_10TenantPath4root
FNDA:3,_RNvMNtNtCs9VsQExrgwtF_4wami3arn5typesNtB2_10TenantPath5depth
FNDA:80,_RNvMNtNtCs9VsQExrgwtF_4wami3arn5typesNtB2_10TenantPath9as_string
FNDA:4,_RNvMs0_NtNtCs9VsQExrgwtF_4wami3arn5typesNtB5_12CloudMapping11is_regional
FNDA:11,_RNvMs0_NtNtCs9VsQExrgwtF_4wami3arn5typesNtB5_12CloudMapping16region_or_global
FNDA:69,_RNvMs1_NtNtCs9VsQExrgwtF_4wami3arn5typesNtB5_8Resource7as_path
FNDA:74,_RNvMs3_NtNtCs9VsQExrgwtF_4wami3arn5typesNtB5_7Service6as_str
FNDA:1,_RNvMs6_NtNtCs9VsQExrgwtF_4wami3arn5typesNtB5_7WamiArn11leaf_tenant
FNDA:1,_RNvMs6_NtNtCs9VsQExrgwtF_4wami3arn5typesNtB5_7WamiArn11resource_id
FNDA:1,_RNvMs6_NtNtCs9VsQExrgwtF_4wami3arn5typesNtB5_7WamiArn13resource_type
FNDA:12,_RNvMs6_NtNtCs9VsQExrgwtF_4wami3arn5typesNtB5_7WamiArn14matches_prefix
FNDA:1,_RNvMs6_NtNtCs9VsQExrgwtF_4wami3arn5typesNtB5_7WamiArn14primary_tenant
FNDA:7,_RNvMs6_NtNtCs9VsQExrgwtF_4wami3arn5typesNtB5_7WamiArn15is_cloud_synced
FNDA:1,_RNvMs6_NtNtCs9VsQExrgwtF_4wami3arn5typesNtB5_7WamiArn16full_tenant_path
FNDA:9,_RNvMs6_NtNtCs9VsQExrgwtF_4wami3arn5typesNtB5_7WamiArn17belongs_to_tenant
FNDA:70,_RNvMs6_NtNtCs9VsQExrgwtF_4wami3arn5typesNtB5_7WamiArn6prefix
FNDA:1,_RNvMs6_NtNtCs9VsQExrgwtF_4wami3arn5typesNtB5_7WamiArn8provider
FNDA:68,_RNvXs2_NtNtCs9VsQExrgwtF_4wami3arn5typesNtB5_8ResourceNtNtCs2CqrNpCrSUr_4core3fmt7Display3fmt
FNDA:70,_RNvXs4_NtNtCs9VsQExrgwtF_4wami3arn5typesNtB5_7ServiceNtNtCs2CqrNpCrSUr_4core3fmt7Display3fmt
FNDA:253,_RNvXs5_NtNtCs9VsQExrgwtF_4wami3arn5typesNtB5_7ServiceINtNtCs2CqrNpCrSUr_4core7convert4FromReE4from
FNDA:67,_RNvXs7_NtNtCs9VsQExrgwtF_4wami3arn5typesNtB5_7WamiArnNtNtCs2CqrNpCrSUr_4core3fmt7Display3fmt
FNDA:74,_RNvXs_NtNtCs9VsQExrgwtF_4wami3arn5typesNtB4_10TenantPathNtNtCs2CqrNpCrSUr_4core3fmt7Display3fmt
FNDA:261,_RINvMNtNtCs9VsQExrgwtF_4wami3arn5typesNtB3_10TenantPath6singleReEB7_
FNDA:5,_RINvMs0_NtNtCs9VsQExrgwtF_4wami3arn5typesNtB6_12CloudMapping11with_regionNtNtCs1AhsD0INetT_5alloc6string6StringB19_B19_EBa_
FNDA:5,_RINvMs0_NtNtCs9VsQExrgwtF_4wami3arn5typesNtB6_12CloudMapping11with_regionReB19_B19_EBa_
FNDA:3,_RINvMs0_NtNtCs9VsQExrgwtF_4wami3arn5typesNtB6_12CloudMapping3newNtNtCs1AhsD0INetT_5alloc6string6StringB10_EBa_
FNDA:14,_RINvMs0_NtNtCs9VsQExrgwtF_4wami3arn5typesNtB6_12CloudMapping3newReB10_EBa_
FNDA:243,_RINvMs1_NtNtCs9VsQExrgwtF_4wami3arn5typesNtB6_8Resource3newNtNtCs1AhsD0INetT_5alloc6string6StringBV_EBa_
FNDA:71,_RINvMs1_NtNtCs9VsQExrgwtF_4wami3arn5typesNtB6_8Resource3newReBV_EBa_
FNDA:15,_RINvMs1_NtNtCs9VsQExrgwtF_4wami3arn5typesNtB6_8Resource3newReNtNtCs1AhsD0INetT_5alloc6string6StringEBa_
FNDA:225,_RINvMs1_NtNtCs9VsQExrgwtF_4wami3arn5typesNtB6_8Resource3newReRNtNtCs1AhsD0INetT_5alloc6string6StringEBa_
FNDA:2,_RINvXs8_NtNtCs9VsQExrgwtF_4wami3arn5typesNtB6_7WamiArnNtNtCscet4PgUngVW_10serde_core3ser9Serialize9serializeQINtNtCs3rsZH23P4dn_10serde_json3ser10SerializerQINtNtCs1AhsD0INetT_5alloc3vec3VechEEEBa_
FNDA:2,_RINvXs9_NtNtCs9VsQExrgwtF_4wami3arn5typesNtB6_7WamiArnNtNtCscet4PgUngVW_10serde_core2de11Deserialize11deserializeQINtNtCs3rsZH23P4dn_10serde_json2de12DeserializerNtNtB1T_4read7StrReadEEBa_
FNDA:14,_RNCNvMNtNtCs9VsQExrgwtF_4wami3arn5typesNtB4_10TenantPath16is_descendant_of0B8_
FNDA:3,_RNCNvMNtNtCs9VsQExrgwtF_4wami3arn5typesNtB4_10TenantPath4leaf0B8_
FNDA:3,_RNCNvMNtNtCs9VsQExrgwtF_4wami3arn5typesNtB4_10TenantPath4root0B8_
FNDA:1,_RNCNvMs6_NtNtCs9VsQExrgwtF_4wami3arn5typesNtB7_7WamiArn8provider0Bb_
FNF:55
FNH:55
DA:62,273
DA:63,273
DA:64,273
DA:67,261
DA:68,261
DA:69,261
DA:70,261
DA:71,261
DA:74,80
DA:75,80
DA:76,80
DA:79,4
DA:80,4
DA:81,4
DA:84,4
DA:85,4
DA:86,4
DA:89,3
DA:90,3
DA:91,3
DA:94,10
DA:95,10
DA:96,1
DA:97,9
DA:99,15
DA:100,15
DA:101,3
DA:102,12
DA:105,6
DA:106,10
DA:109,11
DA:110,11
DA:111,2
DA:112,9
DA:113,9
DA:114,9
DA:115,9
DA:116,14
DA:117,11
DA:120,1
DA:121,1
DA:122,1
DA:126,74
DA:127,74
DA:128,74
DA:147,17
DA:148,17
DA:149,17
DA:150,17
DA:151,17
DA:152,17
DA:153,17
DA:156,10
DA:157,10
DA:158,10
DA:159,10
DA:160,10
DA:161,10
DA:162,10
DA:163,10
DA:164,10
DA:165,10
DA:166,10
DA:169,4
DA:170,4
DA:171,4
DA:174,11
DA:175,11
DA:176,11
DA:191,554
DA:192,554
DA:193,554
DA:194,554
DA:195,554
DA:196,554
DA:199,69
DA:200,69
DA:201,69
DA:205,68
DA:206,68
DA:207,68
DA:230,74
DA:231,74
DA:232,69
DA:233,2
DA:234,1
DA:235,2
DA:237,74
DA:241,70
DA:242,70
DA:243,70
DA:247,253
DA:248,253
DA:249,253
DA:250,38
DA:251,24
DA:252,3
DA:254,253
DA:267,70
DA:268,70
DA:269,70
DA:273,70
DA:274,9
DA:275,9
DA:276,9
DA:280,61
DA:282,70
DA:285,7
DA:286,7
DA:287,7
DA:290,1
DA:291,1
DA:292,1
DA:295,1
DA:296,1
DA:297,1
DA:300,1
DA:301,1
DA:302,1
DA:305,1
DA:306,1
DA:307,1
DA:319,12
DA:320,12
DA:321,12
DA:324,9
DA:325,9
DA:326,9
DA:329,1
DA:330,1
DA:331,1
DA:334,1
DA:335,1
DA:336,1
DA:340,67
DA:341,67
DA:342,67
DA:347,2
DA:348,2
DA:349,2
DA:351,2
DA:352,2
DA:357,2
DA:358,2
DA:359,2
DA:361,2
DA:362,2
DA:363,2
DA:371,1
DA:372,1
DA:373,1
DA:374,1
DA:375,1
DA:376,1
DA:377,1
DA:378,1
DA:381,1
DA:382,1
DA:383,1
DA:384,1
DA:385,1
DA:386,1
DA:387,1
DA:390,1
DA:391,1
DA:392,1
DA:393,1
DA:395,1
DA:396,1
DA:397,1
DA:398,1
DA:399,1
DA:402,1
DA:403,1
DA:404,1
DA:405,1
DA:406,1
DA:407,1
DA:408,1
DA:409,1
DA:410,1
DA:412,1
DA:414,1
DA:415,1
DA:416,1
DA:417,1
DA:418,1
DA:419,1
DA:420,1
DA:423,1
DA:424,1
DA:425,1
DA:426,1
DA:427,1
DA:428,1
DA:429,1
DA:432,1
DA:433,1
DA:434,1
DA:435,1
DA:437,1
DA:438,1
DA:439,1
DA:440,1
DA:443,1
DA:444,1
DA:445,1
DA:446,1
DA:448,1
DA:449,1
DA:450,1
DA:451,1
DA:452,1
DA:453,1
DA:454,1
DA:455,1
DA:456,1
DA:459,1
DA:460,1
DA:461,1
DA:462,1
DA:465,1
DA:466,1
DA:469,1
DA:470,1
DA:472,1
DA:473,1
DA:476,1
DA:477,1
DA:479,1
DA:480,1
DA:481,1
DA:484,1
DA:485,1
DA:486,1
DA:487,1
DA:488,1
DA:491,1
DA:492,1
DA:493,1
DA:494,1
DA:495,1
DA:496,1
DA:499,1
DA:500,1
DA:501,1
DA:502,1
DA:503,1
DA:504,1
DA:505,1
DA:507,1
DA:510,1
DA:511,1
DA:512,1
DA:513,1
DA:514,1
DA:515,1
DA:516,1
DA:517,1
DA:518,1
DA:519,1
DA:520,1
DA:521,1
DA:523,1
DA:524,1
DA:527,1
DA:528,1
DA:529,1
DA:530,1
DA:531,1
DA:532,1
DA:533,1
DA:534,1
DA:537,1
DA:538,1
DA:539,1
DA:540,1
DA:541,1
DA:542,1
DA:543,1
DA:544,1
DA:545,1
DA:546,1
DA:547,1
DA:548,1
DA:550,1
DA:551,1
DA:554,1
DA:555,1
DA:558,1
DA:559,1
DA:560,1
DA:563,1
DA:564,1
DA:565,1
DA:566,1
DA:567,1
DA:568,1
DA:569,1
DA:570,1
DA:571,1
DA:572,1
DA:573,1
DA:574,1
DA:575,1
DA:576,1
DA:577,1
DA:578,1
DA:580,1
DA:581,1
DA:584,1
DA:585,1
DA:588,1
DA:589,1
DA:590,1
DA:593,1
DA:594,1
DA:595,1
DA:596,1
DA:597,1
DA:598,1
DA:599,1
DA:600,1
DA:602,1
DA:603,1
DA:604,1
DA:605,1
DA:606,1
DA:609,1
DA:610,1
DA:611,1
DA:612,1
DA:613,1
DA:614,1
DA:615,1
DA:616,1
DA:617,1
DA:618,1
DA:619,1
DA:620,1
DA:622,1
DA:623,1
DA:624,1
DA:625,1
DA:627,1
DA:628,1
DA:629,1
DA:630,1
DA:631,1
DA:634,1
DA:635,1
DA:636,1
DA:637,1
DA:638,1
DA:639,1
DA:640,1
DA:641,1
DA:644,1
DA:645,1
DA:648,1
DA:649,1
DA:650,1
DA:653,1
DA:654,1
DA:655,1
DA:656,1
DA:657,1
DA:658,1
DA:659,1
DA:660,1
DA:661,1
DA:662,1
DA:663,1
DA:664,1
DA:667,1
DA:668,1
DA:674,1
DA:675,1
DA:676,1
BRF:0
BRH:0
LF:383
LH:383
end_of_record
SF:/Users/lsh/projects/crates/wami/src/context.rs
FN:249,_RNvNtNtCs9VsQExrgwtF_4wami7context5testss_17test_root_context
FN:227,_RNvNtNtCs9VsQExrgwtF_4wami7context5testss_20test_context_builder
FN:340,_RNvNtNtCs9VsQExrgwtF_4wami7context5testss_20test_expired_session
FN:267,_RNvNtNtCs9VsQExrgwtF_4wami7context5testss_22test_can_access_tenant
FN:318,_RNvNtNtCs9VsQExrgwtF_4wami7context5testss_23test_session_expiration
FN:407,_RNvNtNtCs9VsQExrgwtF_4wami7context5testss_28test_missing_required_fields
FN:362,_RNvNtNtCs9VsQExrgwtF_4wami7context5testss_31test_context_builder_all_fields
FN:294,_RNvNtNtCs9VsQExrgwtF_4wami7context5testss_31test_root_can_access_any_tenant
FN:391,_RNvNtNtCs9VsQExrgwtF_4wami7context5testss_36test_context_without_optional_fields
FN:385,_RNCNvNtNtCs9VsQExrgwtF_4wami7context5testss_31test_context_builder_all_fields0B7_
FN:160,_RINvMs_NtCs9VsQExrgwtF_4wami7contextNtB5_18WamiContextBuilder11instance_idNtNtCs1AhsD0INetT_5alloc6string6StringEB7_
FN:160,_RINvMs_NtCs9VsQExrgwtF_4wami7contextNtB5_18WamiContextBuilder11instance_idReEB7_
FN:178,_RINvMs_NtCs9VsQExrgwtF_4wami7contextNtB5_18WamiContextBuilder6regionReEB7_
FN:193,_RNCNvMs_NtCs9VsQExrgwtF_4wami7contextNtB6_18WamiContextBuilder5build0B8_
FN:201,_RNCNvMs_NtCs9VsQExrgwtF_4wami7contextNtB6_18WamiContextBuilder5builds0_0B8_
FN:197,_RNCNvMs_NtCs9VsQExrgwtF_4wami7contextNtB6_18WamiContextBuilder5builds_0B8_
FN:91,_RNvMNtCs9VsQExrgwtF_4wami7contextNtB2_11WamiContext10caller_arn
FN:132,_RNvMNtCs9VsQExrgwtF_4wami7contextNtB2_11WamiContext10is_expired
FN:101,_RNvMNtCs9VsQExrgwtF_4wami7contextNtB2_11WamiContext11instance_id
FN:96,_RNvMNtCs9VsQExrgwtF_4wami7contextNtB2_11WamiContext11tenant_path
FN:111,_RNvMNtCs9VsQExrgwtF_4wami7contextNtB2_11WamiContext12session_info
FN:121,_RNvMNtCs9VsQExrgwtF_4wami7contextNtB2_11WamiContext17can_access_tenant
FN:106,_RNvMNtCs9VsQExrgwtF_4wami7contextNtB2_11WamiContext6region
FN:79,_RNvMNtCs9VsQExrgwtF_4wami7contextNtB2_11WamiContext7builder
FN:86,_RNvMNtCs9VsQExrgwtF_4wami7contextNtB2_11WamiContext7is_root
FN:166,_RNvMs_NtCs9VsQExrgwtF_4wami7contextNtB4_18WamiContextBuilder10caller_arn
FN:154,_RNvMs_NtCs9VsQExrgwtF_4wami7contextNtB4_18WamiContextBuilder11tenant_path
FN:184,_RNvMs_NtCs9VsQExrgwtF_4wami7contextNtB4_18WamiContextBuilder12session_info
FN:191,_RNvMs_NtCs9VsQExrgwtF_4wami7contextNtB4_18WamiContextBuilder5build
FN:172,_RNvMs_NtCs9VsQExrgwtF_4wami7contextNtB4_18WamiContextBuilder7is_root
FNDA:1,_RNvNtNtCs9VsQExrgwtF_4wami7context5testss_17test_root_context
FNDA:1,_RNvNtNtCs9VsQExrgwtF_4wami7context5testss_20test_context_builder
FNDA:1,_RNvNtNtCs9VsQExrgwtF_4wami7context5testss_20test_expired_session
FNDA:1,_RNvNtNtCs9VsQExrgwtF_4wami7context5testss_22test_can_access_tenant
FNDA:1,_RNvNtNtCs9VsQExrgwtF_4wami7context5testss_23test_session_expiration
FNDA:1,_RNvNtNtCs9VsQExrgwtF_4wami7context5testss_28test_missing_required_fields
FNDA:1,_RNvNtNtCs9VsQExrgwtF_4wami7context5testss_31test_context_builder_all_fields
FNDA:1,_RNvNtNtCs9VsQExrgwtF_4wami7context5testss_31test_root_can_access_any_tenant
FNDA:1,_RNvNtNtCs9VsQExrgwtF_4wami7context5testss_36test_context_without_optional_fields
FNDA:1,_RNCNvNtNtCs9VsQExrgwtF_4wami7context5testss_31test_context_builder_all_fields0B7_
FNDA:1,_RINvMs_NtCs9VsQExrgwtF_4wami7contextNtB5_18WamiContextBuilder11instance_idNtNtCs1AhsD0INetT_5alloc6string6StringEB7_
FNDA:195,_RINvMs_NtCs9VsQExrgwtF_4wami7contextNtB5_18WamiContextBuilder11instance_idReEB7_
FNDA:3,_RINvMs_NtCs9VsQExrgwtF_4wami7contextNtB5_18WamiContextBuilder6regionReEB7_
FNDA:1,_RNCNvMs_NtCs9VsQExrgwtF_4wami7contextNtB6_18WamiContextBuilder5build0B8_
FNDA:0,_RNCNvMs_NtCs9VsQExrgwtF_4wami7contextNtB6_18WamiContextBuilder5builds0_0B8_
FNDA:1,_RNCNvMs_NtCs9VsQExrgwtF_4wami7contextNtB6_18WamiContextBuilder5builds_0B8_
FNDA:3,_RNvMNtCs9VsQExrgwtF_4wami7contextNtB2_11WamiContext10caller_arn
FNDA:2,_RNvMNtCs9VsQExrgwtF_4wami7contextNtB2_11WamiContext10is_expired
FNDA:430,_RNvMNtCs9VsQExrgwtF_4wami7contextNtB2_11WamiContext11instance_id
FNDA:252,_RNvMNtCs9VsQExrgwtF_4wami7contextNtB2_11WamiContext11tenant_path
FNDA:2,_RNvMNtCs9VsQExrgwtF_4wami7contextNtB2_11WamiContext12session_info
FNDA:7,_RNvMNtCs9VsQExrgwtF_4wami7contextNtB2_11WamiContext17can_access_tenant
FNDA:4,_RNvMNtCs9VsQExrgwtF_4wami7contextNtB2_11WamiContext6region
FNDA:197,_RNvMNtCs9VsQExrgwtF_4wami7contextNtB2_11WamiContext7builder
FNDA:5,_RNvMNtCs9VsQExrgwtF_4wami7contextNtB2_11WamiContext7is_root
FNDA:195,_RNvMs_NtCs9VsQExrgwtF_4wami7contextNtB4_18WamiContextBuilder10caller_arn
FNDA:196,_RNvMs_NtCs9VsQExrgwtF_4wami7contextNtB4_18WamiContextBuilder11tenant_path
FNDA:3,_RNvMs_NtCs9VsQExrgwtF_4wami7contextNtB4_18WamiContextBuilder12session_info
FNDA:197,_RNvMs_NtCs9VsQExrgwtF_4wami7contextNtB4_18WamiContextBuilder5build
FNDA:193,_RNvMs_NtCs9VsQExrgwtF_4wami7contextNtB4_18WamiContextBuilder7is_root
FNF:29
FNH:28
DA:79,197
DA:80,197
DA:81,197
DA:86,5
DA:87,5
DA:88,5
DA:91,3
DA:92,3
DA:93,3
DA:96,252
DA:97,252
DA:98,252
DA:101,430
DA:102,430
DA:103,430
DA:106,4
DA:107,4
DA:108,4
DA:111,2
DA:112,2
DA:113,2
DA:121,7
DA:123,7
DA:124,3
DA:125,4
DA:128,4
DA:129,7
DA:132,2
DA:133,2
DA:134,2
DA:135,2
DA:136,0
DA:137,0
DA:138,2
DA:154,196
DA:155,196
DA:156,196
DA:157,196
DA:160,196
DA:161,196
DA:162,196
DA:163,196
DA:166,195
DA:167,195
DA:168,195
DA:169,195
DA:172,193
DA:173,193
DA:174,193
DA:175,193
DA:178,3
DA:179,3
DA:180,3
DA:181,3
DA:184,3
DA:185,3
DA:186,3
DA:187,3
DA:191,197
DA:192,197
DA:193,1
DA:194,1
DA:196,196
DA:197,1
DA:198,1
DA:200,195
DA:201,0
DA:202,0
DA:205,195
DA:206,0
DA:207,0
DA:208,0
DA:209,195
DA:211,195
DA:212,195
DA:213,195
DA:214,195
DA:215,195
DA:216,195
DA:217,195
DA:218,195
DA:219,197
DA:227,1
DA:228,1
DA:229,1
DA:230,1
DA:232,1
DA:233,1
DA:234,1
DA:235,1
DA:236,1
DA:237,1
DA:238,1
DA:239,1
DA:241,1
DA:242,1
DA:243,1
DA:244,1
DA:245,1
DA:246,1
DA:249,1
DA:250,1
DA:251,1
DA:252,1
DA:254,1
DA:255,1
DA:256,1
DA:257,1
DA:258,1
DA:259,1
DA:260,1
DA:262,1
DA:263,1
DA:264,1
DA:267,1
DA:268,1
DA:270,1
DA:271,1
DA:272,1
DA:273,1
DA:274,1
DA:275,1
DA:276,1
DA:279,1
DA:282,1
DA:283,1
DA:287,1
DA:290,1
DA:291,1
DA:294,1
DA:295,1
DA:296,1
DA:297,1
DA:299,1
DA:300,1
DA:301,1
DA:302,1
DA:303,1
DA:304,1
DA:305,1
DA:308,1
DA:309,1
DA:310,1
DA:311,1
DA:312,1
DA:313,1
DA:314,1
DA:315,1
DA:318,1
DA:319,1
DA:321,1
DA:322,1
DA:323,1
DA:324,1
DA:325,1
DA:326,1
DA:328,1
DA:329,1
DA:330,1
DA:331,1
DA:332,1
DA:333,1
DA:334,1
DA:336,1
DA:337,1
DA:340,1
DA:341,1
DA:343,1
DA:344,1
DA:345,1
DA:346,1
DA:347,1
DA:348,1
DA:350,1
DA:351,1
DA:352,1
DA:353,1
DA:354,1
DA:355,1
DA:356,1
DA:358,1
DA:359,1
DA:362,1
DA:363,1
DA:364,1
DA:365,1
DA:366,1
DA:367,1
DA:368,1
DA:369,1
DA:371,1
DA:372,1
DA:373,1
DA:374,1
DA:375,1
DA:376,1
DA:377,1
DA:378,1
DA:379,1
DA:381,1
DA:382,1
DA:383,1
DA:384,1
DA:385,1
DA:388,1
DA:391,1
DA:392,1
DA:394,1
DA:395,1
DA:396,1
DA:397,1
DA:398,1
DA:399,1
DA:400,1
DA:402,1
DA:403,1
DA:404,1
DA:407,1
DA:409,1
DA:410,1
DA:411,1
DA:412,1
DA:415,1
DA:416,1
DA:417,1
BRF:0
BRH:0
LF:229
LH:221
end_of_record
SF:/Users/lsh/projects/crates/wami/src/lib.rs
FN:245,_RNvCs9VsQExrgwtF_4wami19create_memory_store
FNDA:0,_RNvCs9VsQExrgwtF_4wami19create_memory_store
FNF:1
FNH:0
DA:245,0
DA:246,0
DA:247,0
BRF:0
BRH:0
LF:3
LH:0
end_of_record
SF:/Users/lsh/projects/crates/wami/src/provider/arn_builder.rs
FN:331,_RNvNtNtNtCs9VsQExrgwtF_4wami8provider11arn_builder5testss_21test_parse_arn_simple
FN:290,_RNvNtNtNtCs9VsQExrgwtF_4wami8provider11arn_builder5testss_22test_arn_builder_basic
FN:354,_RNvNtNtNtCs9VsQExrgwtF_4wami8provider11arn_builder5testss_24test_parse_arn_roundtrip
FN:343,_RNvNtNtNtCs9VsQExrgwtF_4wami8provider11arn_builder5testss_24test_parse_arn_with_path
FN:389,_RNvNtNtNtCs9VsQExrgwtF_4wami8provider11arn_builder5testss_25test_arn_pattern_no_match
FN:299,_RNvNtNtNtCs9VsQExrgwtF_4wami8provider11arn_builder5testss_26test_arn_builder_with_path
FN:363,_RNvNtNtNtCs9VsQExrgwtF_4wami8provider11arn_builder5testss_28test_arn_pattern_match_exact
FN:307,_RNvNtNtNtCs9VsQExrgwtF_4wami8provider11arn_builder5testss_30test_arn_builder_deterministic
FN:371,_RNvNtNtNtCs9VsQExrgwtF_4wami8provider11arn_builder5testss_31test_arn_pattern_match_wildcard
FN:402,_RNvNtNtNtCs9VsQExrgwtF_4wami8provider11arn_builder5testss_31test_parsed_arn_matches_pattern
FN:319,_RNvNtNtNtCs9VsQExrgwtF_4wami8provider11arn_builder5testss_35test_arn_builder_different_accounts
FN:108,_RNvMNtNtCs9VsQExrgwtF_4wami8provider11arn_builderNtB2_14WamiArnBuilder4salt
FN:264,_RNvXs1_NtNtCs9VsQExrgwtF_4wami8provider11arn_builderNtB5_9ParsedArnNtNtCs2CqrNpCrSUr_4core3fmt7Display3fmt
FN:114,_RNvXs_NtNtCs9VsQExrgwtF_4wami8provider11arn_builderNtB4_14WamiArnBuilderNtNtCs2CqrNpCrSUr_4core7default7Default7default
FN:56,_RINvMNtNtCs9VsQExrgwtF_4wami8provider11arn_builderNtB3_14WamiArnBuilder9with_saltReEB7_
FN:94,_RNvMNtNtCs9VsQExrgwtF_4wami8provider11arn_builderNtB2_14WamiArnBuilder12hash_account
FN:49,_RNvMNtNtCs9VsQExrgwtF_4wami8provider11arn_builderNtB2_14WamiArnBuilder3new
FN:75,_RNvMNtNtCs9VsQExrgwtF_4wami8provider11arn_builderNtB2_14WamiArnBuilder9build_arn
FN:258,_RNvMs0_NtNtCs9VsQExrgwtF_4wami8provider11arn_builderNtB5_9ParsedArn15matches_pattern
FN:196,_RNvMs0_NtNtCs9VsQExrgwtF_4wami8provider11arn_builderNtB5_9ParsedArn19parse_resource_path
FN:227,_RNvMs0_NtNtCs9VsQExrgwtF_4wami8provider11arn_builderNtB5_9ParsedArn6to_arn
FN:150,_RNvMs0_NtNtCs9VsQExrgwtF_4wami8provider11arn_builderNtB5_9ParsedArn8from_arn
FN:272,_RNvNtNtCs9VsQExrgwtF_4wami8provider11arn_builder17arn_pattern_match
FNDA:1,_RNvNtNtNtCs9VsQExrgwtF_4wami8provider11arn_builder5testss_21test_parse_arn_simple
FNDA:1,_RNvNtNtNtCs9VsQExrgwtF_4wami8provider11arn_builder5testss_22test_arn_builder_basic
FNDA:1,_RNvNtNtNtCs9VsQExrgwtF_4wami8provider11arn_builder5testss_24test_parse_arn_roundtrip
FNDA:1,_RNvNtNtNtCs9VsQExrgwtF_4wami8provider11arn_builder5testss_24test_parse_arn_with_path
FNDA:1,_RNvNtNtNtCs9VsQExrgwtF_4wami8provider11arn_builder5testss_25test_arn_pattern_no_match
FNDA:1,_RNvNtNtNtCs9VsQExrgwtF_4wami8provider11arn_builder5testss_26test_arn_builder_with_path
FNDA:1,_RNvNtNtNtCs9VsQExrgwtF_4wami8provider11arn_builder5testss_28test_arn_pattern_match_exact
FNDA:1,_RNvNtNtNtCs9VsQExrgwtF_4wami8provider11arn_builder5testss_30test_arn_builder_deterministic
FNDA:1,_RNvNtNtNtCs9VsQExrgwtF_4wami8provider11arn_builder5testss_31test_arn_pattern_match_wildcard
FNDA:1,_RNvNtNtNtCs9VsQExrgwtF_4wami8provider11arn_builder5testss_31test_parsed_arn_matches_pattern
FNDA:1,_RNvNtNtNtCs9VsQExrgwtF_4wami8provider11arn_builder5testss_35test_arn_builder_different_accounts
FNDA:0,_RNvMNtNtCs9VsQExrgwtF_4wami8provider11arn_builderNtB2_14WamiArnBuilder4salt
FNDA:0,_RNvXs1_NtNtCs9VsQExrgwtF_4wami8provider11arn_builderNtB5_9ParsedArnNtNtCs2CqrNpCrSUr_4core3fmt7Display3fmt
FNDA:0,_RNvXs_NtNtCs9VsQExrgwtF_4wami8provider11arn_builderNtB4_14WamiArnBuilderNtNtCs2CqrNpCrSUr_4core7default7Default7default
FNDA:1,_RINvMNtNtCs9VsQExrgwtF_4wami8provider11arn_builderNtB3_14WamiArnBuilder9with_saltReEB7_
FNDA:6,_RNvMNtNtCs9VsQExrgwtF_4wami8provider11arn_builderNtB2_14WamiArnBuilder12hash_account
FNDA:3,_RNvMNtNtCs9VsQExrgwtF_4wami8provider11arn_builderNtB2_14WamiArnBuilder3new
FNDA:6,_RNvMNtNtCs9VsQExrgwtF_4wami8provider11arn_builderNtB2_14WamiArnBuilder9build_arn
FNDA:3,_RNvMs0_NtNtCs9VsQExrgwtF_4wami8provider11arn_builderNtB5_9ParsedArn15matches_pattern
FNDA:4,_RNvMs0_NtNtCs9VsQExrgwtF_4wami8provider11arn_builderNtB5_9ParsedArn19parse_resource_path
FNDA:4,_RNvMs0_NtNtCs9VsQExrgwtF_4wami8provider11arn_builderNtB5_9ParsedArn6to_arn
FNDA:4,_RNvMs0_NtNtCs9VsQExrgwtF_4wami8provider11arn_builderNtB5_9ParsedArn8from_arn
FNDA:9,_RNvNtNtCs9VsQExrgwtF_4wami8provider11arn_builder17arn_pattern_match
FNF:23
FNH:20
DA:49,3
DA:50,3
DA:51,3
DA:52,3
DA:53,3
DA:56,1
DA:57,1
DA:58,1
DA:59,1
DA:60,1
DA:75,6
DA:76,6
DA:77,6
DA:78,6
DA:79,6
DA:80,6
DA:81,6
DA:82,6
DA:83,6
DA:84,6
DA:85,6
DA:88,6
DA:94,6
DA:95,6
DA:96,6
DA:98,6
DA:99,2
DA:100,4
DA:102,6
DA:104,6
DA:105,6
DA:108,0
DA:109,0
DA:110,0
DA:114,0
DA:115,0
DA:116,0
DA:150,4
DA:151,4
DA:153,4
DA:154,0
DA:155,0
DA:156,0
DA:157,4
DA:159,4
DA:160,0
DA:161,0
DA:162,0
DA:163,4
DA:165,4
DA:166,0
DA:167,0
DA:168,0
DA:169,4
DA:171,4
DA:172,4
DA:173,4
DA:174,4
DA:177,4
DA:179,4
DA:180,4
DA:181,4
DA:182,4
DA:183,4
DA:184,4
DA:185,4
DA:186,4
DA:187,4
DA:196,4
DA:197,4
DA:199,4
DA:200,0
DA:201,0
DA:202,0
DA:203,4
DA:205,4
DA:207,4
DA:208,0
DA:209,0
DA:210,0
DA:211,4
DA:213,4
DA:215,1
DA:216,3
DA:219,3
DA:220,3
DA:221,3
DA:223,3
DA:224,4
DA:227,4
DA:228,4
DA:229,0
DA:230,0
DA:234,4
DA:235,4
DA:244,4
DA:258,3
DA:259,3
DA:260,3
DA:264,0
DA:265,0
DA:266,0
DA:272,9
DA:274,9
DA:275,9
DA:276,9
DA:278,9
DA:279,9
DA:281,0
DA:283,9
DA:290,1
DA:291,1
DA:292,1
DA:294,1
DA:295,1
DA:296,1
DA:299,1
DA:300,1
DA:301,1
DA:303,1
DA:304,1
DA:307,1
DA:308,1
DA:309,1
DA:310,1
DA:313,1
DA:314,1
DA:315,1
DA:316,1
DA:319,1
DA:320,1
DA:321,1
DA:322,1
DA:325,1
DA:326,1
DA:327,1
DA:328,1
DA:331,1
DA:332,1
DA:334,1
DA:335,1
DA:336,1
DA:337,1
DA:338,1
DA:339,1
DA:340,1
DA:343,1
DA:344,1
DA:345,1
DA:346,1
DA:348,1
DA:349,1
DA:350,1
DA:351,1
DA:354,1
DA:355,1
DA:356,1
DA:357,1
DA:359,1
DA:360,1
DA:363,1
DA:364,1
DA:365,1
DA:366,1
DA:368,1
DA:371,1
DA:372,1
DA:373,1
DA:374,1
DA:377,1
DA:378,1
DA:379,1
DA:382,1
DA:383,1
DA:384,1
DA:386,1
DA:389,1
DA:390,1
DA:391,1
DA:392,1
DA:393,1
DA:395,1
DA:396,1
DA:397,1
DA:398,1
DA:399,1
DA:402,1
DA:403,1
DA:405,1
DA:406,1
DA:407,1
DA:408,1
BRF:0
BRH:0
LF:192
LH:165
end_of_record
SF:/Users/lsh/projects/crates/wami/src/provider/aws.rs
FN:22,_RNvXNtNtCs9VsQExrgwtF_4wami8provider3awsNtB2_11AwsProviderNtNtCs2CqrNpCrSUr_4core7default7Default7default
FN:406,_RNvNtNtNtCs9VsQExrgwtF_4wami8provider3aws5testss_18test_custom_limits
FN:322,_RNvNtNtNtCs9VsQExrgwtF_4wami8provider3aws5testss_18test_validate_path
FN:389,_RNvNtNtNtCs9VsQExrgwtF_4wami8provider3aws5testss_19test_to_pascal_case
FN:293,_RNvNtNtNtCs9VsQExrgwtF_4wami8provider3aws5testss_20test_resource_limits
FN:277,_RNvNtNtNtCs9VsQExrgwtF_4wami8provider3aws5testss_21test_generate_role_id
FN:261,_RNvNtNtNtCs9VsQExrgwtF_4wami8provider3aws5testss_21test_generate_user_id
FN:223,_RNvNtNtNtCs9VsQExrgwtF_4wami8provider3aws5testss_22test_aws_provider_name
FN:269,_RNvNtNtNtCs9VsQExrgwtF_4wami8provider3aws5testss_22test_generate_group_id
FN:249,_RNvNtNtNtCs9VsQExrgwtF_4wami8provider3aws5testss_22test_generate_role_arn
FN:229,_RNvNtNtNtCs9VsQExrgwtF_4wami8provider3aws5testss_22test_generate_user_arn
FN:373,_RNvNtNtNtCs9VsQExrgwtF_4wami8provider3aws5testss_25test_extract_service_name
FN:285,_RNvNtNtNtCs9VsQExrgwtF_4wami8provider3aws5testss_27test_generate_access_key_id
FN:366,_RNvNtNtNtCs9VsQExrgwtF_4wami8provider3aws5testss_29test_service_linked_role_path
FN:304,_RNvNtNtNtCs9VsQExrgwtF_4wami8provider3aws5testss_30test_validate_aws_service_name
FN:333,_RNvNtNtNtCs9VsQExrgwtF_4wami8provider3aws5testss_30test_validate_session_duration
FN:237,_RNvNtNtNtCs9VsQExrgwtF_4wami8provider3aws5testss_32test_generate_user_arn_with_path
FN:343,_RNvNtNtNtCs9VsQExrgwtF_4wami8provider3aws5testss_36test_service_linked_role_name_simple
FN:358,_RNvNtNtNtCs9VsQExrgwtF_4wami8provider3aws5testss_40test_service_linked_role_name_hyphenated
FN:351,_RNvNtNtNtCs9VsQExrgwtF_4wami8provider3aws5testss_41test_service_linked_role_name_with_suffix
FN:48,_RNvMs_NtNtCs9VsQExrgwtF_4wami8provider3awsNtB4_11AwsProvider11with_limits
FN:74,_RNvMs_NtNtCs9VsQExrgwtF_4wami8provider3awsNtB4_11AwsProvider14to_pascal_case
FN:87,_RNvMs_NtNtCs9VsQExrgwtF_4wami8provider3awsNtB4_11AwsProvider19random_alphanumeric
FN:61,_RNvMs_NtNtCs9VsQExrgwtF_4wami8provider3awsNtB4_11AwsProvider20extract_service_name
FN:29,_RNvMs_NtNtCs9VsQExrgwtF_4wami8provider3awsNtB4_11AwsProvider3new
FN:180,_RNvXs0_NtNtCs9VsQExrgwtF_4wami8provider3awsNtB5_11AwsProviderNtB7_13CloudProvider13validate_path
FN:162,_RNvXs0_NtNtCs9VsQExrgwtF_4wami8provider3awsNtB5_11AwsProviderNtB7_13CloudProvider15resource_limits
FN:135,_RNvXs0_NtNtCs9VsQExrgwtF_4wami8provider3awsNtB5_11AwsProviderNtB7_13CloudProvider20generate_resource_id
FN:166,_RNvXs0_NtNtCs9VsQExrgwtF_4wami8provider3awsNtB5_11AwsProviderNtB7_13CloudProvider21validate_service_name
FN:102,_RNvXs0_NtNtCs9VsQExrgwtF_4wami8provider3awsNtB5_11AwsProviderNtB7_13CloudProvider28generate_resource_identifier
FN:193,_RNvXs0_NtNtCs9VsQExrgwtF_4wami8provider3awsNtB5_11AwsProviderNtB7_13CloudProvider33generate_service_linked_role_name
FN:212,_RNvXs0_NtNtCs9VsQExrgwtF_4wami8provider3awsNtB5_11AwsProviderNtB7_13CloudProvider33generate_service_linked_role_path
FN:98,_RNvXs0_NtNtCs9VsQExrgwtF_4wami8provider3awsNtB5_11AwsProviderNtB7_13CloudProvider4name
FN:76,_RNCNvMs_NtNtCs9VsQExrgwtF_4wami8provider3awsNtB6_11AwsProvider14to_pascal_case0Ba_
FNDA:0,_RNvXNtNtCs9VsQExrgwtF_4wami8provider3awsNtB2_11AwsProviderNtNtCs2CqrNpCrSUr_4core7default7Default7default
FNDA:1,_RNvNtNtNtCs9VsQExrgwtF_4wami8provider3aws5testss_18test_custom_limits
FNDA:1,_RNvNtNtNtCs9VsQExrgwtF_4wami8provider3aws5testss_18test_validate_path
FNDA:1,_RNvNtNtNtCs9VsQExrgwtF_4wami8provider3aws5testss_19test_to_pascal_case
FNDA:1,_RNvNtNtNtCs9VsQExrgwtF_4wami8provider3aws5testss_20test_resource_limits
FNDA:1,_RNvNtNtNtCs9VsQExrgwtF_4wami8provider3aws5testss_21test_generate_role_id
FNDA:1,_RNvNtNtNtCs9VsQExrgwtF_4wami8provider3aws5testss_21test_generate_user_id
FNDA:1,_RNvNtNtNtCs9VsQExrgwtF_4wami8provider3aws5testss_22test_aws_provider_name
FNDA:1,_RNvNtNtNtCs9VsQExrgwtF_4wami8provider3aws5testss_22test_generate_group_id
FNDA:1,_RNvNtNtNtCs9VsQExrgwtF_4wami8provider3aws5testss_22test_generate_role_arn
FNDA:1,_RNvNtNtNtCs9VsQExrgwtF_4wami8provider3aws5testss_22test_generate_user_arn
FNDA:1,_RNvNtNtNtCs9VsQExrgwtF_4wami8provider3aws5testss_25test_extract_service_name
FNDA:1,_RNvNtNtNtCs9VsQExrgwtF_4wami8provider3aws5testss_27test_generate_access_key_id
FNDA:1,_RNvNtNtNtCs9VsQExrgwtF_4wami8provider3aws5testss_29test_service_linked_role_path
FNDA:1,_RNvNtNtNtCs9VsQExrgwtF_4wami8provider3aws5testss_30test_validate_aws_service_name
FNDA:1,_RNvNtNtNtCs9VsQExrgwtF_4wami8provider3aws5testss_30test_validate_session_duration
FNDA:1,_RNvNtNtNtCs9VsQExrgwtF_4wami8provider3aws5testss_32test_generate_user_arn_with_path
FNDA:1,_RNvNtNtNtCs9VsQExrgwtF_4wami8provider3aws5testss_36test_service_linked_role_name_simple
FNDA:1,_RNvNtNtNtCs9VsQExrgwtF_4wami8provider3aws5testss_40test_service_linked_role_name_hyphenated
FNDA:1,_RNvNtNtNtCs9VsQExrgwtF_4wami8provider3aws5testss_41test_service_linked_role_name_with_suffix
FNDA:1,_RNvMs_NtNtCs9VsQExrgwtF_4wami8provider3awsNtB4_11AwsProvider11with_limits
FNDA:7,_RNvMs_NtNtCs9VsQExrgwtF_4wami8provider3awsNtB4_11AwsProvider14to_pascal_case
FNDA:4,_RNvMs_NtNtCs9VsQExrgwtF_4wami8provider3awsNtB4_11AwsProvider19random_alphanumeric
FNDA:6,_RNvMs_NtNtCs9VsQExrgwtF_4wami8provider3awsNtB4_11AwsProvider20extract_service_name
FNDA:49,_RNvMs_NtNtCs9VsQExrgwtF_4wami8provider3awsNtB4_11AwsProvider3new
FNDA:6,_RNvXs0_NtNtCs9VsQExrgwtF_4wami8provider3awsNtB5_11AwsProviderNtB7_13CloudProvider13validate_path
FNDA:8,_RNvXs0_NtNtCs9VsQExrgwtF_4wami8provider3awsNtB5_11AwsProviderNtB7_13CloudProvider15resource_limits
FNDA:4,_RNvXs0_NtNtCs9VsQExrgwtF_4wami8provider3awsNtB5_11AwsProviderNtB7_13CloudProvider20generate_resource_id
FNDA:5,_RNvXs0_NtNtCs9VsQExrgwtF_4wami8provider3awsNtB5_11AwsProviderNtB7_13CloudProvider21validate_service_name
FNDA:3,_RNvXs0_NtNtCs9VsQExrgwtF_4wami8provider3awsNtB5_11AwsProviderNtB7_13CloudProvider28generate_resource_identifier
FNDA:3,_RNvXs0_NtNtCs9VsQExrgwtF_4wami8provider3awsNtB5_11AwsProviderNtB7_13CloudProvider33generate_service_linked_role_name
FNDA:1,_RNvXs0_NtNtCs9VsQExrgwtF_4wami8provider3awsNtB5_11AwsProviderNtB7_13CloudProvider33generate_service_linked_role_path
FNDA:1,_RNvXs0_NtNtCs9VsQExrgwtF_4wami8provider3awsNtB5_11AwsProviderNtB7_13CloudProvider4name
FNDA:11,_RNCNvMs_NtNtCs9VsQExrgwtF_4wami8provider3awsNtB6_11AwsProvider14to_pascal_case0Ba_
FNF:34
FNH:33
DA:22,0
DA:23,0
DA:24,0
DA:29,49
DA:30,49
DA:31,49
DA:32,49
DA:33,49
DA:48,1
DA:49,1
DA:50,1
DA:61,6
DA:62,6
DA:63,6
DA:74,7
DA:75,7
DA:76,11
DA:77,11
DA:78,11
DA:79,0
DA:80,11
DA:82,11
DA:83,7
DA:84,7
DA:87,4
DA:88,4
DA:89,4
DA:90,4
DA:91,4
DA:92,4
DA:93,4
DA:94,4
DA:98,1
DA:99,1
DA:100,1
DA:102,3
DA:103,3
DA:104,3
DA:105,3
DA:106,3
DA:107,3
DA:108,3
DA:109,3
DA:110,2
DA:111,0
DA:112,1
DA:113,0
DA:114,0
DA:115,0
DA:116,0
DA:117,0
DA:118,0
DA:119,0
DA:120,0
DA:121,0
DA:122,0
DA:123,0
DA:124,0
DA:125,0
DA:129,3
DA:130,3
DA:133,3
DA:135,4
DA:137,4
DA:138,1
DA:139,1
DA:140,1
DA:141,0
DA:142,1
DA:143,0
DA:144,0
DA:145,0
DA:146,0
DA:147,0
DA:149,0
DA:150,0
DA:154,0
DA:155,0
DA:159,4
DA:160,4
DA:162,8
DA:163,8
DA:164,8
DA:166,5
DA:169,5
DA:170,2
DA:171,2
DA:172,2
DA:173,2
DA:174,2
DA:175,2
DA:176,3
DA:177,3
DA:178,5
DA:180,6
DA:182,6
DA:183,3
DA:184,3
DA:185,3
DA:186,3
DA:187,3
DA:188,3
DA:189,3
DA:190,3
DA:191,6
DA:193,3
DA:194,3
DA:195,3
DA:196,3
DA:197,3
DA:199,3
DA:202,3
DA:205,3
DA:206,1
DA:208,2
DA:210,3
DA:212,1
DA:214,1
DA:215,1
DA:223,1
DA:224,1
DA:225,1
DA:226,1
DA:229,1
DA:230,1
DA:231,1
DA:232,1
DA:233,1
DA:234,1
DA:237,1
DA:238,1
DA:239,1
DA:240,1
DA:241,1
DA:242,1
DA:243,1
DA:245,1
DA:246,1
DA:249,1
DA:250,1
DA:251,1
DA:252,1
DA:253,1
DA:254,1
DA:255,1
DA:257,1
DA:258,1
DA:261,1
DA:262,1
DA:263,1
DA:264,1
DA:265,1
DA:266,1
DA:269,1
DA:270,1
DA:271,1
DA:272,1
DA:273,1
DA:274,1
DA:277,1
DA:278,1
DA:279,1
DA:280,1
DA:281,1
DA:282,1
DA:285,1
DA:286,1
DA:287,1
DA:288,1
DA:289,1
DA:290,1
DA:293,1
DA:294,1
DA:295,1
DA:296,1
DA:297,1
DA:298,1
DA:299,1
DA:300,1
DA:301,1
DA:304,1
DA:305,1
DA:306,1
DA:307,1
DA:308,1
DA:309,1
DA:310,1
DA:311,1
DA:312,1
DA:313,1
DA:314,1
DA:315,1
DA:316,1
DA:317,1
DA:318,1
DA:319,1
DA:322,1
DA:323,1
DA:324,1
DA:325,1
DA:326,1
DA:327,1
DA:328,1
DA:329,1
DA:330,1
DA:333,1
DA:334,1
DA:335,1
DA:336,1
DA:337,1
DA:338,1
DA:339,1
DA:340,1
DA:343,1
DA:344,1
DA:345,1
DA:346,1
DA:347,1
DA:348,1
DA:351,1
DA:352,1
DA:353,1
DA:354,1
DA:355,1
DA:358,1
DA:359,1
DA:360,1
DA:361,1
DA:362,1
DA:363,1
DA:366,1
DA:367,1
DA:368,1
DA:369,1
DA:370,1
DA:373,1
DA:374,1
DA:375,1
DA:378,1
DA:379,1
DA:382,1
DA:383,1
DA:386,1
DA:389,1
DA:390,1
DA:391,1
DA:394,1
DA:395,1
DA:398,1
DA:399,1
DA:402,1
DA:403,1
DA:406,1
DA:407,1
DA:408,1
DA:409,1
DA:410,1
DA:411,1
DA:412,1
DA:413,1
DA:414,1
DA:415,1
BRF:0
BRH:0
LF:263
LH:235
end_of_record
SF:/Users/lsh/projects/crates/wami/src/provider/azure.rs
FN:101,_RNvXs_NtNtCs9VsQExrgwtF_4wami8provider5azureNtB4_13AzureProviderNtB6_13CloudProvider13validate_path
FN:93,_RNvXs_NtNtCs9VsQExrgwtF_4wami8provider5azureNtB4_13AzureProviderNtB6_13CloudProvider15resource_limits
FN:97,_RNvXs_NtNtCs9VsQExrgwtF_4wami8provider5azureNtB4_13AzureProviderNtB6_13CloudProvider21validate_service_name
FN:105,_RNvXs_NtNtCs9VsQExrgwtF_4wami8provider5azureNtB4_13AzureProviderNtB6_13CloudProvider33generate_service_linked_role_name
FN:117,_RNvXs_NtNtCs9VsQExrgwtF_4wami8provider5azureNtB4_13AzureProviderNtB6_13CloudProvider33generate_service_linked_role_path
FN:88,_RNvXs_NtNtCs9VsQExrgwtF_4wami8provider5azureNtB4_13AzureProviderNtB6_13CloudProvider20generate_resource_id
FN:55,_RNvXs_NtNtCs9VsQExrgwtF_4wami8provider5azureNtB4_13AzureProviderNtB6_13CloudProvider28generate_resource_identifier
FN:51,_RNvXs_NtNtCs9VsQExrgwtF_4wami8provider5azureNtB4_13AzureProviderNtB6_13CloudProvider4name
FN:143,_RNvNtNtNtCs9VsQExrgwtF_4wami8provider5azure5testss_18test_generate_guid
FN:127,_RNvNtNtNtCs9VsQExrgwtF_4wami8provider5azure5testss_24test_azure_provider_name
FN:133,_RNvNtNtNtCs9VsQExrgwtF_4wami8provider5azure5testss_38test_generate_azure_resource_id_format
FN:38,_RINvMNtNtCs9VsQExrgwtF_4wami8provider5azureNtB3_13AzureProvider3newReB13_EB7_
FNDA:0,_RNvXs_NtNtCs9VsQExrgwtF_4wami8provider5azureNtB4_13AzureProviderNtB6_13CloudProvider13validate_path
FNDA:0,_RNvXs_NtNtCs9VsQExrgwtF_4wami8provider5azureNtB4_13AzureProviderNtB6_13CloudProvider15resource_limits
FNDA:0,_RNvXs_NtNtCs9VsQExrgwtF_4wami8provider5azureNtB4_13AzureProviderNtB6_13CloudProvider21validate_service_name
FNDA:0,_RNvXs_NtNtCs9VsQExrgwtF_4wami8provider5azureNtB4_13AzureProviderNtB6_13CloudProvider33generate_service_linked_role_name
FNDA:0,_RNvXs_NtNtCs9VsQExrgwtF_4wami8provider5azureNtB4_13AzureProviderNtB6_13CloudProvider33generate_service_linked_role_path
FNDA:1,_RNvXs_NtNtCs9VsQExrgwtF_4wami8provider5azureNtB4_13AzureProviderNtB6_13CloudProvider20generate_resource_id
FNDA:1,_RNvXs_NtNtCs9VsQExrgwtF_4wami8provider5azureNtB4_13AzureProviderNtB6_13CloudProvider28generate_resource_identifier
FNDA:1,_RNvXs_NtNtCs9VsQExrgwtF_4wami8provider5azureNtB4_13AzureProviderNtB6_13CloudProvider4name
FNDA:1,_RNvNtNtNtCs9VsQExrgwtF_4wami8provider5azure5testss_18test_generate_guid
FNDA:1,_RNvNtNtNtCs9VsQExrgwtF_4wami8provider5azure5testss_24test_azure_provider_name
FNDA:1,_RNvNtNtNtCs9VsQExrgwtF_4wami8provider5azure5testss_38test_generate_azure_resource_id_format
FNDA:3,_RINvMNtNtCs9VsQExrgwtF_4wami8provider5azureNtB3_13AzureProvider3newReB13_EB7_
FNF:12
FNH:7
DA:38,3
DA:39,3
DA:40,3
DA:41,3
DA:42,3
DA:43,3
DA:44,3
DA:45,3
DA:46,3
DA:47,3
DA:51,1
DA:52,1
DA:53,1
DA:55,1
DA:56,1
DA:57,1
DA:58,1
DA:59,1
DA:60,1
DA:61,1
DA:62,1
DA:63,1
DA:64,0
DA:65,0
DA:66,0
DA:67,0
DA:68,0
DA:72,1
DA:73,1
DA:76,0
DA:77,0
DA:81,1
DA:82,1
DA:86,1
DA:88,1
DA:90,1
DA:91,1
DA:93,0
DA:94,0
DA:95,0
DA:97,0
DA:98,0
DA:99,0
DA:101,0
DA:102,0
DA:103,0
DA:105,0
DA:106,0
DA:107,0
DA:108,0
DA:109,0
DA:110,0
DA:111,0
DA:113,0
DA:115,0
DA:117,0
DA:118,0
DA:119,0
DA:127,1
DA:128,1
DA:129,1
DA:130,1
DA:133,1
DA:134,1
DA:135,1
DA:136,1
DA:137,1
DA:138,1
DA:139,1
DA:140,1
DA:143,1
DA:144,1
DA:145,1
DA:147,1
DA:148,1
BRF:0
BRH:0
LF:75
LH:47
end_of_record
SF:/Users/lsh/projects/crates/wami/src/provider/custom.rs
FN:87,_RNvXs_NtNtCs9VsQExrgwtF_4wami8provider6customNtB4_14CustomProviderNtB6_13CloudProvider13validate_path
FN:82,_RNvXs_NtNtCs9VsQExrgwtF_4wami8provider6customNtB4_14CustomProviderNtB6_13CloudProvider21validate_service_name
FN:92,_RNvXs_NtNtCs9VsQExrgwtF_4wami8provider6customNtB4_14CustomProviderNtB6_13CloudProvider33generate_service_linked_role_name
FN:104,_RNvXs_NtNtCs9VsQExrgwtF_4wami8provider6customNtB4_14CustomProviderNtB6_13CloudProvider33generate_service_linked_role_path
FN:199,_RNvNtNtNtCs9VsQExrgwtF_4wami8provider6custom5testss_18test_custom_limits
FN:213,_RNvNtNtNtCs9VsQExrgwtF_4wami8provider6custom5testss_19test_default_values
FN:190,_RNvNtNtNtCs9VsQExrgwtF_4wami8provider6custom5testss_25test_custom_id_generation
FN:179,_RNvNtNtNtCs9VsQExrgwtF_4wami8provider6custom5testss_26test_custom_arn_generation
FN:168,_RNvNtNtNtCs9VsQExrgwtF_4wami8provider6custom5testss_28test_custom_provider_builder
FN:133,_RINvMs0_NtNtCs9VsQExrgwtF_4wami8provider6customNtB6_21CustomProviderBuilder12arn_templateReEBa_
FN:120,_RINvMs0_NtNtCs9VsQExrgwtF_4wami8provider6customNtB6_21CustomProviderBuilder4nameReEBa_
FN:139,_RINvMs0_NtNtCs9VsQExrgwtF_4wami8provider6customNtB6_21CustomProviderBuilder9id_prefixReEBa_
FN:153,_RNCNvMs0_NtNtCs9VsQExrgwtF_4wami8provider6customNtB7_21CustomProviderBuilder5build0Bb_
FN:157,_RNCNvMs0_NtNtCs9VsQExrgwtF_4wami8provider6customNtB7_21CustomProviderBuilder5builds0_0Bb_
FN:156,_RNCNvMs0_NtNtCs9VsQExrgwtF_4wami8provider6customNtB7_21CustomProviderBuilder5builds_0Bb_
FN:37,_RNvMNtNtCs9VsQExrgwtF_4wami8provider6customNtB2_14CustomProvider7builder
FN:151,_RNvMs0_NtNtCs9VsQExrgwtF_4wami8provider6customNtB5_21CustomProviderBuilder5build
FN:145,_RNvMs0_NtNtCs9VsQExrgwtF_4wami8provider6customNtB5_21CustomProviderBuilder6limits
FN:78,_RNvXs_NtNtCs9VsQExrgwtF_4wami8provider6customNtB4_14CustomProviderNtB6_13CloudProvider15resource_limits
FN:65,_RNvXs_NtNtCs9VsQExrgwtF_4wami8provider6customNtB4_14CustomProviderNtB6_13CloudProvider20generate_resource_id
FN:47,_RNvXs_NtNtCs9VsQExrgwtF_4wami8provider6customNtB4_14CustomProviderNtB6_13CloudProvider28generate_resource_identifier
FN:43,_RNvXs_NtNtCs9VsQExrgwtF_4wami8provider6customNtB4_14CustomProviderNtB6_13CloudProvider4name
FNDA:0,_RNvXs_NtNtCs9VsQExrgwtF_4wami8provider6customNtB4_14CustomProviderNtB6_13CloudProvider13validate_path
FNDA:0,_RNvXs_NtNtCs9VsQExrgwtF_4wami8provider6customNtB4_14CustomProviderNtB6_13CloudProvider21validate_service_name
FNDA:0,_RNvXs_NtNtCs9VsQExrgwtF_4wami8provider6customNtB4_14CustomProviderNtB6_13CloudProvider33generate_service_linked_role_name
FNDA:0,_RNvXs_NtNtCs9VsQExrgwtF_4wami8provider6customNtB4_14CustomProviderNtB6_13CloudProvider33generate_service_linked_role_path
FNDA:1,_RNvNtNtNtCs9VsQExrgwtF_4wami8provider6custom5testss_18test_custom_limits
FNDA:1,_RNvNtNtNtCs9VsQExrgwtF_4wami8provider6custom5testss_19test_default_values
FNDA:1,_RNvNtNtNtCs9VsQExrgwtF_4wami8provider6custom5testss_25test_custom_id_generation
FNDA:1,_RNvNtNtNtCs9VsQExrgwtF_4wami8provider6custom5testss_26test_custom_arn_generation
FNDA:1,_RNvNtNtNtCs9VsQExrgwtF_4wami8provider6custom5testss_28test_custom_provider_builder
FNDA:2,_RINvMs0_NtNtCs9VsQExrgwtF_4wami8provider6customNtB6_21CustomProviderBuilder12arn_templateReEBa_
FNDA:1,_RINvMs0_NtNtCs9VsQExrgwtF_4wami8provider6customNtB6_21CustomProviderBuilder4nameReEBa_
FNDA:2,_RINvMs0_NtNtCs9VsQExrgwtF_4wami8provider6customNtB6_21CustomProviderBuilder9id_prefixReEBa_
FNDA:4,_RNCNvMs0_NtNtCs9VsQExrgwtF_4wami8provider6customNtB7_21CustomProviderBuilder5build0Bb_
FNDA:3,_RNCNvMs0_NtNtCs9VsQExrgwtF_4wami8provider6customNtB7_21CustomProviderBuilder5builds0_0Bb_
FNDA:3,_RNCNvMs0_NtNtCs9VsQExrgwtF_4wami8provider6customNtB7_21CustomProviderBuilder5builds_0Bb_
FNDA:5,_RNvMNtNtCs9VsQExrgwtF_4wami8provider6customNtB2_14CustomProvider7builder
FNDA:5,_RNvMs0_NtNtCs9VsQExrgwtF_4wami8provider6customNtB5_21CustomProviderBuilder5build
FNDA:1,_RNvMs0_NtNtCs9VsQExrgwtF_4wami8provider6customNtB5_21CustomProviderBuilder6limits
FNDA:2,_RNvXs_NtNtCs9VsQExrgwtF_4wami8provider6customNtB4_14CustomProviderNtB6_13CloudProvider15resource_limits
FNDA:2,_RNvXs_NtNtCs9VsQExrgwtF_4wami8provider6customNtB4_14CustomProviderNtB6_13CloudProvider20generate_resource_id
FNDA:2,_RNvXs_NtNtCs9VsQExrgwtF_4wami8provider6customNtB4_14CustomProviderNtB6_13CloudProvider28generate_resource_identifier
FNDA:2,_RNvXs_NtNtCs9VsQExrgwtF_4wami8provider6customNtB4_14CustomProviderNtB6_13CloudProvider4name
FNF:22
FNH:18
DA:37,5
DA:38,5
DA:39,5
DA:43,2
DA:44,2
DA:45,2
DA:47,2
DA:48,2
DA:49,2
DA:50,2
DA:51,2
DA:52,2
DA:53,2
DA:54,2
DA:57,2
DA:58,2
DA:59,2
DA:60,2
DA:61,2
DA:62,2
DA:63,2
DA:65,2
DA:66,2
DA:67,2
DA:69,2
DA:70,2
DA:71,2
DA:72,2
DA:73,2
DA:74,2
DA:76,2
DA:78,2
DA:79,2
DA:80,2
DA:82,0
DA:84,0
DA:85,0
DA:87,0
DA:89,0
DA:90,0
DA:92,0
DA:93,0
DA:94,0
DA:95,0
DA:96,0
DA:97,0
DA:98,0
DA:100,0
DA:102,0
DA:104,0
DA:105,0
DA:106,0
DA:120,1
DA:121,1
DA:122,1
DA:123,1
DA:133,2
DA:134,2
DA:135,2
DA:136,2
DA:139,2
DA:140,2
DA:141,2
DA:142,2
DA:145,1
DA:146,1
DA:147,1
DA:148,1
DA:151,5
DA:153,5
DA:154,5
DA:155,5
DA:156,5
DA:157,5
DA:158,5
DA:160,5
DA:168,1
DA:169,1
DA:170,1
DA:171,1
DA:172,1
DA:173,1
DA:175,1
DA:176,1
DA:179,1
DA:180,1
DA:181,1
DA:182,1
DA:184,1
DA:185,1
DA:186,1
DA:187,1
DA:190,1
DA:191,1
DA:193,1
DA:194,1
DA:195,1
DA:196,1
DA:199,1
DA:200,1
DA:201,1
DA:202,1
DA:203,1
DA:204,1
DA:206,1
DA:208,1
DA:209,1
DA:210,1
DA:213,1
DA:214,1
DA:216,1
DA:217,1
DA:218,1
DA:219,1
DA:220,1
DA:221,1
DA:222,1
DA:223,1
BRF:0
BRH:0
LF:121
LH:103
end_of_record
SF:/Users/lsh/projects/crates/wami/src/provider/gcp.rs
FN:114,_RNvXs_NtNtCs9VsQExrgwtF_4wami8provider3gcpNtB4_11GcpProviderNtB6_13CloudProvider13validate_path
FN:108,_RNvXs_NtNtCs9VsQExrgwtF_4wami8provider3gcpNtB4_11GcpProviderNtB6_13CloudProvider21validate_service_name
FN:119,_RNvXs_NtNtCs9VsQExrgwtF_4wami8provider3gcpNtB4_11GcpProviderNtB6_13CloudProvider33generate_service_linked_role_name
FN:132,_RNvXs_NtNtCs9VsQExrgwtF_4wami8provider3gcpNtB4_11GcpProviderNtB6_13CloudProvider33generate_service_linked_role_path
FN:38,_RINvMNtNtCs9VsQExrgwtF_4wami8provider3gcpNtB3_11GcpProvider3newReEB7_
FN:104,_RNvXs_NtNtCs9VsQExrgwtF_4wami8provider3gcpNtB4_11GcpProviderNtB6_13CloudProvider15resource_limits
FN:98,_RNvXs_NtNtCs9VsQExrgwtF_4wami8provider3gcpNtB4_11GcpProviderNtB6_13CloudProvider20generate_resource_id
FN:57,_RNvXs_NtNtCs9VsQExrgwtF_4wami8provider3gcpNtB4_11GcpProviderNtB6_13CloudProvider28generate_resource_identifier
FN:53,_RNvXs_NtNtCs9VsQExrgwtF_4wami8provider3gcpNtB4_11GcpProviderNtB6_13CloudProvider4name
FN:143,_RNvNtNtNtCs9VsQExrgwtF_4wami8provider3gcp5testss_22test_gcp_provider_name
FN:159,_RNvNtNtNtCs9VsQExrgwtF_4wami8provider3gcp5testss_22test_generate_role_urn
FN:174,_RNvNtNtNtCs9VsQExrgwtF_4wami8provider3gcp5testss_24test_gcp_resource_limits
FN:166,_RNvNtNtNtCs9VsQExrgwtF_4wami8provider3gcp5testss_24test_generate_numeric_id
FN:149,_RNvNtNtNtCs9VsQExrgwtF_4wami8provider3gcp5testss_33test_generate_service_account_urn
FNDA:0,_RNvXs_NtNtCs9VsQExrgwtF_4wami8provider3gcpNtB4_11GcpProviderNtB6_13CloudProvider13validate_path
FNDA:0,_RNvXs_NtNtCs9VsQExrgwtF_4wami8provider3gcpNtB4_11GcpProviderNtB6_13CloudProvider21validate_service_name
FNDA:0,_RNvXs_NtNtCs9VsQExrgwtF_4wami8provider3gcpNtB4_11GcpProviderNtB6_13CloudProvider33generate_service_linked_role_name
FNDA:0,_RNvXs_NtNtCs9VsQExrgwtF_4wami8provider3gcpNtB4_11GcpProviderNtB6_13CloudProvider33generate_service_linked_role_path
FNDA:5,_RINvMNtNtCs9VsQExrgwtF_4wami8provider3gcpNtB3_11GcpProvider3newReEB7_
FNDA:1,_RNvXs_NtNtCs9VsQExrgwtF_4wami8provider3gcpNtB4_11GcpProviderNtB6_13CloudProvider15resource_limits
FNDA:1,_RNvXs_NtNtCs9VsQExrgwtF_4wami8provider3gcpNtB4_11GcpProviderNtB6_13CloudProvider20generate_resource_id
FNDA:2,_RNvXs_NtNtCs9VsQExrgwtF_4wami8provider3gcpNtB4_11GcpProviderNtB6_13CloudProvider28generate_resource_identifier
FNDA:1,_RNvXs_NtNtCs9VsQExrgwtF_4wami8provider3gcpNtB4_11GcpProviderNtB6_13CloudProvider4name
FNDA:1,_RNvNtNtNtCs9VsQExrgwtF_4wami8provider3gcp5testss_22test_gcp_provider_name
FNDA:1,_RNvNtNtNtCs9VsQExrgwtF_4wami8provider3gcp5testss_22test_generate_role_urn
FNDA:1,_RNvNtNtNtCs9VsQExrgwtF_4wami8provider3gcp5testss_24test_gcp_resource_limits
FNDA:1,_RNvNtNtNtCs9VsQExrgwtF_4wami8provider3gcp5testss_24test_generate_numeric_id
FNDA:1,_RNvNtNtNtCs9VsQExrgwtF_4wami8provider3gcp5testss_33test_generate_service_account_urn
FNF:14
FNH:10
DA:38,5
DA:39,5
DA:40,5
DA:41,5
DA:42,5
DA:43,5
DA:44,5
DA:45,5
DA:46,5
DA:47,5
DA:48,5
DA:49,5
DA:53,1
DA:54,1
DA:55,1
DA:57,2
DA:58,2
DA:59,2
DA:60,2
DA:61,2
DA:62,2
DA:63,2
DA:65,2
DA:68,1
DA:69,1
DA:75,1
DA:79,0
DA:80,0
DA:86,0
DA:87,0
DA:93,0
DA:96,2
DA:98,1
DA:101,1
DA:102,1
DA:104,1
DA:105,1
DA:106,1
DA:108,0
DA:111,0
DA:112,0
DA:114,0
DA:116,0
DA:117,0
DA:119,0
DA:120,0
DA:121,0
DA:122,0
DA:123,0
DA:125,0
DA:126,0
DA:128,0
DA:130,0
DA:132,0
DA:134,0
DA:135,0
DA:143,1
DA:144,1
DA:145,1
DA:146,1
DA:149,1
DA:150,1
DA:151,1
DA:152,1
DA:156,1
DA:159,1
DA:160,1
DA:161,1
DA:162,1
DA:163,1
DA:166,1
DA:167,1
DA:168,1
DA:170,1
DA:171,1
DA:174,1
DA:175,1
DA:176,1
DA:177,1
DA:178,1
DA:179,1
BRF:0
BRH:0
LF:81
LH:58
end_of_record
SF:/Users/lsh/projects/crates/wami/src/provider/mod.rs
FN:143,_RNvXNtCs9VsQExrgwtF_4wami8providerNtB2_14ResourceLimitsNtNtCs2CqrNpCrSUr_4core7default7Default7default
FN:442,_RNvMs_NtCs9VsQExrgwtF_4wami8providerDNtB4_13CloudProviderEL_17tenant_aware_path
FN:472,_RNvMs_NtCs9VsQExrgwtF_4wami8providerDNtB4_13CloudProviderEL_24extract_tenant_from_path
FN:344,_RNvYNtNtNtCs9VsQExrgwtF_4wami8provider3aws11AwsProviderNtB6_13CloudProvider17generate_wami_arnB8_
FN:274,_RNvYNtNtNtCs9VsQExrgwtF_4wami8provider3aws11AwsProviderNtB6_13CloudProvider25validate_session_durationB8_
FNDA:63,_RNvXNtCs9VsQExrgwtF_4wami8providerNtB2_14ResourceLimitsNtNtCs2CqrNpCrSUr_4core7default7Default7default
FNDA:0,_RNvMs_NtCs9VsQExrgwtF_4wami8providerDNtB4_13CloudProviderEL_17tenant_aware_path
FNDA:0,_RNvMs_NtCs9VsQExrgwtF_4wami8providerDNtB4_13CloudProviderEL_24extract_tenant_from_path
FNDA:0,_RNvYNtNtNtCs9VsQExrgwtF_4wami8provider3aws11AwsProviderNtB6_13CloudProvider17generate_wami_arnB8_
FNDA:5,_RNvYNtNtNtCs9VsQExrgwtF_4wami8provider3aws11AwsProviderNtB6_13CloudProvider25validate_session_durationB8_
FNF:5
FNH:2
DA:143,63
DA:145,63
DA:146,63
DA:147,63
DA:148,63
DA:149,63
DA:150,63
DA:151,63
DA:152,63
DA:153,63
DA:154,63
DA:274,5
DA:275,5
DA:276,5
DA:277,2
DA:278,2
DA:279,2
DA:280,2
DA:281,2
DA:282,2
DA:283,3
DA:284,3
DA:285,5
DA:344,0
DA:345,0
DA:346,0
DA:347,0
DA:348,0
DA:349,0
DA:350,0
DA:352,0
DA:364,0
DA:367,0
DA:368,0
DA:371,0
DA:372,0
DA:373,0
DA:374,0
DA:375,0
DA:376,0
DA:377,0
DA:378,0
DA:379,0
DA:380,0
DA:381,0
DA:382,0
DA:383,0
DA:384,0
DA:385,0
DA:386,0
DA:387,0
DA:391,0
DA:392,0
DA:394,0
DA:395,0
DA:396,0
DA:397,0
DA:398,0
DA:399,0
DA:400,0
DA:402,0
DA:405,0
DA:406,0
DA:407,0
DA:411,0
DA:412,0
DA:416,0
DA:442,0
DA:443,0
DA:444,0
DA:445,0
DA:446,0
DA:448,0
DA:450,0
DA:472,0
DA:473,0
DA:474,0
DA:475,0
DA:476,0
DA:477,0
DA:478,0
DA:479,0
DA:480,0
DA:481,0
DA:482,0
DA:483,0
BRF:0
BRH:0
LF:86
LH:23
end_of_record
SF:/Users/lsh/projects/crates/wami/src/provider/provider_info.rs
FN:75,_RNvMNtNtCs9VsQExrgwtF_4wami8provider13provider_infoNtB2_12ProviderInfo6is_aws
FN:80,_RNvMNtNtCs9VsQExrgwtF_4wami8provider13provider_infoNtB2_12ProviderInfo6is_gcp
FN:85,_RNvMNtNtCs9VsQExrgwtF_4wami8provider13provider_infoNtB2_12ProviderInfo8is_azure
FN:90,_RNvMNtNtCs9VsQExrgwtF_4wami8provider13provider_infoNtB2_12ProviderInfo9is_custom
FN:59,_RINvMNtNtCs9VsQExrgwtF_4wami8provider13provider_infoNtB3_12ProviderInfo3newReB1b_B1b_EB7_
FN:114,_RNvNtNtNtCs9VsQExrgwtF_4wami8provider13provider_info5testss_25test_provider_type_checks
FN:100,_RNvNtNtNtCs9VsQExrgwtF_4wami8provider13provider_info5testss_27test_provider_info_creation
FNDA:3,_RNvMNtNtCs9VsQExrgwtF_4wami8provider13provider_infoNtB2_12ProviderInfo6is_aws
FNDA:3,_RNvMNtNtCs9VsQExrgwtF_4wami8provider13provider_infoNtB2_12ProviderInfo6is_gcp
FNDA:2,_RNvMNtNtCs9VsQExrgwtF_4wami8provider13provider_infoNtB2_12ProviderInfo8is_azure
FNDA:1,_RNvMNtNtCs9VsQExrgwtF_4wami8provider13provider_infoNtB2_12ProviderInfo9is_custom
FNDA:5,_RINvMNtNtCs9VsQExrgwtF_4wami8provider13provider_infoNtB3_12ProviderInfo3newReB1b_B1b_EB7_
FNDA:1,_RNvNtNtNtCs9VsQExrgwtF_4wami8provider13provider_info5testss_25test_provider_type_checks
FNDA:1,_RNvNtNtNtCs9VsQExrgwtF_4wami8provider13provider_info5testss_27test_provider_info_creation
FNF:7
FNH:7
DA:59,5
DA:60,5
DA:61,5
DA:62,5
DA:63,5
DA:64,5
DA:65,5
DA:66,5
DA:67,5
DA:68,5
DA:69,5
DA:70,5
DA:71,5
DA:72,5
DA:75,3
DA:76,3
DA:77,3
DA:80,3
DA:81,3
DA:82,3
DA:85,2
DA:86,2
DA:87,2
DA:90,1
DA:91,1
DA:92,1
DA:100,1
DA:101,1
DA:104,1
DA:108,1
DA:109,1
DA:110,1
DA:111,1
DA:114,1
DA:115,1
DA:116,1
DA:117,1
DA:118,1
DA:120,1
DA:121,1
DA:122,1
DA:123,1
DA:124,1
BRF:0
BRH:0
LF:43
LH:43
end_of_record
SF:/Users/lsh/projects/crates/wami/src/service/auth/authentication.rs
FN:193,_RNCNvMNtNtNtCs9VsQExrgwtF_4wami7service4auth14authenticationINtB4_21AuthenticationServicepE17authenticate_root0Ba_
FN:188,_RNvMNtNtNtCs9VsQExrgwtF_4wami7service4auth14authenticationINtB2_21AuthenticationServicepE17authenticate_rootB8_
FN:243,_RNvNtNtNtCs9VsQExrgwtF_4wami7service4auth14authentication11hash_secret
FN:249,_RNvNtNtNtCs9VsQExrgwtF_4wami7service4auth14authentication13verify_secret
FN:226,_RNvNtNtNtCs9VsQExrgwtF_4wami7service4auth14authentication21constant_time_compare
FN:116,_RNCNCNvMNtNtNtCs9VsQExrgwtF_4wami7service4auth14authenticationINtB6_21AuthenticationServiceNtNtNtNtBc_5store6memory4wami17InMemoryWamiStoreE19validate_access_key00Bc_
FN:156,_RNCNCNvMNtNtNtCs9VsQExrgwtF_4wami7service4auth14authenticationINtB6_21AuthenticationServiceNtNtNtNtBc_5store6memory4wami17InMemoryWamiStoreE19validate_access_key0s_0Bc_
FN:87,_RNCNvMNtNtNtCs9VsQExrgwtF_4wami7service4auth14authenticationINtB4_21AuthenticationServiceNtNtNtNtBa_5store6memory4wami17InMemoryWamiStoreE12authenticate0Ba_
FN:112,_RNCNvMNtNtNtCs9VsQExrgwtF_4wami7service4auth14authenticationINtB4_21AuthenticationServiceNtNtNtNtBa_5store6memory4wami17InMemoryWamiStoreE19validate_access_key0Ba_
FN:166,_RNCNvMNtNtNtCs9VsQExrgwtF_4wami7service4auth14authenticationINtB4_21AuthenticationServiceNtNtNtNtBa_5store6memory4wami17InMemoryWamiStoreE24create_context_from_user0Ba_
FN:245,_RNCNvNtNtNtCs9VsQExrgwtF_4wami7service4auth14authentication11hash_secret0B9_
FN:251,_RNCNvNtNtNtCs9VsQExrgwtF_4wami7service4auth14authentication13verify_secret0B9_
FN:83,_RNvMNtNtNtCs9VsQExrgwtF_4wami7service4auth14authenticationINtB2_21AuthenticationServiceNtNtNtNtB8_5store6memory4wami17InMemoryWamiStoreE12authenticateB8_
FN:108,_RNvMNtNtNtCs9VsQExrgwtF_4wami7service4auth14authenticationINtB2_21AuthenticationServiceNtNtNtNtB8_5store6memory4wami17InMemoryWamiStoreE19validate_access_keyB8_
FN:166,_RNvMNtNtNtCs9VsQExrgwtF_4wami7service4auth14authenticationINtB2_21AuthenticationServiceNtNtNtNtB8_5store6memory4wami17InMemoryWamiStoreE24create_context_from_userB8_
FN:58,_RNvMNtNtNtCs9VsQExrgwtF_4wami7service4auth14authenticationINtB2_21AuthenticationServiceNtNtNtNtB8_5store6memory4wami17InMemoryWamiStoreE3newB8_
FN:259,_RNvNtNtNtNtCs9VsQExrgwtF_4wami7service4auth14authentication5testss_26test_constant_time_compare
FN:266,_RNvNtNtNtNtCs9VsQExrgwtF_4wami7service4auth14authentication5testss_27test_hash_and_verify_secret
FNDA:0,_RNCNvMNtNtNtCs9VsQExrgwtF_4wami7service4auth14authenticationINtB4_21AuthenticationServicepE17authenticate_root0Ba_
FNDA:0,_RNvMNtNtNtCs9VsQExrgwtF_4wami7service4auth14authenticationINtB2_21AuthenticationServicepE17authenticate_rootB8_
FNDA:5,_RNvNtNtNtCs9VsQExrgwtF_4wami7service4auth14authentication11hash_secret
FNDA:2,_RNvNtNtNtCs9VsQExrgwtF_4wami7service4auth14authentication13verify_secret
FNDA:3,_RNvNtNtNtCs9VsQExrgwtF_4wami7service4auth14authentication21constant_time_compare
FNDA:0,_RNCNCNvMNtNtNtCs9VsQExrgwtF_4wami7service4auth14authenticationINtB6_21AuthenticationServiceNtNtNtNtBc_5store6memory4wami17InMemoryWamiStoreE19validate_access_key00Bc_
FNDA:0,_RNCNCNvMNtNtNtCs9VsQExrgwtF_4wami7service4auth14authenticationINtB6_21AuthenticationServiceNtNtNtNtBc_5store6memory4wami17InMemoryWamiStoreE19validate_access_key0s_0Bc_
FNDA:2,_RNCNvMNtNtNtCs9VsQExrgwtF_4wami7service4auth14authenticationINtB4_21AuthenticationServiceNtNtNtNtBa_5store6memory4wami17InMemoryWamiStoreE12authenticate0Ba_
FNDA:2,_RNCNvMNtNtNtCs9VsQExrgwtF_4wami7service4auth14authenticationINtB4_21AuthenticationServiceNtNtNtNtBa_5store6memory4wami17InMemoryWamiStoreE19validate_access_key0Ba_
FNDA:1,_RNCNvMNtNtNtCs9VsQExrgwtF_4wami7service4auth14authenticationINtB4_21AuthenticationServiceNtNtNtNtBa_5store6memory4wami17InMemoryWamiStoreE24create_context_from_user0Ba_
FNDA:0,_RNCNvNtNtNtCs9VsQExrgwtF_4wami7service4auth14authentication11hash_secret0B9_
FNDA:0,_RNCNvNtNtNtCs9VsQExrgwtF_4wami7service4auth14authentication13verify_secret0B9_
FNDA:2,_RNvMNtNtNtCs9VsQExrgwtF_4wami7service4auth14authenticationINtB2_21AuthenticationServiceNtNtNtNtB8_5store6memory4wami17InMemoryWamiStoreE12authenticateB8_
FNDA:2,_RNvMNtNtNtCs9VsQExrgwtF_4wami7service4auth14authenticationINtB2_21AuthenticationServiceNtNtNtNtB8_5store6memory4wami17InMemoryWamiStoreE19validate_access_keyB8_
FNDA:1,_RNvMNtNtNtCs9VsQExrgwtF_4wami7service4auth14authenticationINtB2_21AuthenticationServiceNtNtNtNtB8_5store6memory4wami17InMemoryWamiStoreE24create_context_from_userB8_
FNDA:2,_RNvMNtNtNtCs9VsQExrgwtF_4wami7service4auth14authenticationINtB2_21AuthenticationServiceNtNtNtNtB8_5store6memory4wami17InMemoryWamiStoreE3newB8_
FNDA:1,_RNvNtNtNtNtCs9VsQExrgwtF_4wami7service4auth14authentication5testss_26test_constant_time_compare
FNDA:1,_RNvNtNtNtNtCs9VsQExrgwtF_4wami7service4auth14authentication5testss_27test_hash_and_verify_secret
FNF:18
FNH:12
DA:58,2
DA:59,2
DA:60,2
DA:83,2
DA:84,2
DA:85,2
DA:86,2
DA:87,2
DA:89,2
DA:90,2
DA:91,2
DA:94,1
DA:95,2
DA:108,2
DA:109,2
DA:110,2
DA:111,2
DA:112,2
DA:113,2
DA:116,2
DA:117,0
DA:118,0
DA:119,0
DA:120,0
DA:123,2
DA:124,0
DA:125,0
DA:126,0
DA:127,2
DA:132,2
DA:134,2
DA:136,2
DA:139,0
DA:142,0
DA:145,2
DA:146,1
DA:147,1
DA:148,1
DA:149,1
DA:152,1
DA:153,1
DA:154,1
DA:155,1
DA:156,0
DA:157,0
DA:159,1
DA:160,2
DA:166,1
DA:167,1
DA:170,1
DA:173,1
DA:174,1
DA:177,1
DA:178,1
DA:179,1
DA:180,1
DA:181,1
DA:182,1
DA:183,1
DA:188,0
DA:189,0
DA:190,0
DA:191,0
DA:192,0
DA:193,0
DA:195,0
DA:196,0
DA:197,0
DA:200,0
DA:201,0
DA:202,0
DA:203,0
DA:204,0
DA:207,0
DA:208,0
DA:209,0
DA:210,0
DA:211,0
DA:214,0
DA:215,0
DA:216,0
DA:217,0
DA:218,0
DA:219,0
DA:220,0
DA:226,3
DA:227,3
DA:228,1
DA:229,2
DA:231,2
DA:232,10
DA:233,10
DA:234,10
DA:236,2
DA:237,3
DA:243,5
DA:244,5
DA:245,5
DA:246,5
DA:249,2
DA:250,2
DA:251,2
DA:252,2
DA:259,1
DA:260,1
DA:261,1
DA:262,1
DA:263,1
DA:266,1
DA:267,1
DA:268,1
DA:270,1
DA:271,1
DA:272,1
DA:273,1
BRF:0
BRH:0
LF:124
LH:81
end_of_record
SF:/Users/lsh/projects/crates/wami/src/service/auth/authorization.rs
FN:235,_RNvMNtNtNtCs9VsQExrgwtF_4wami7service4auth13authorizationINtB2_20AuthorizationServiceNtNtNtNtB8_5store6memory4wami17InMemoryWamiStoreE14matches_actionB8_
FN:280,_RNvMNtNtNtCs9VsQExrgwtF_4wami7service4auth13authorizationINtB2_20AuthorizationServiceNtNtNtNtB8_5store6memory4wami17InMemoryWamiStoreE14wildcard_matchB8_
FN:260,_RNvMNtNtNtCs9VsQExrgwtF_4wami7service4auth13authorizationINtB2_20AuthorizationServiceNtNtNtNtB8_5store6memory4wami17InMemoryWamiStoreE16matches_resourceB8_
FN:201,_RNvMNtNtNtCs9VsQExrgwtF_4wami7service4auth13authorizationINtB2_20AuthorizationServiceNtNtNtNtB8_5store6memory4wami17InMemoryWamiStoreE24evaluate_policy_documentB8_
FN:156,_RNCNCNvMNtNtNtCs9VsQExrgwtF_4wami7service4auth13authorizationINtB6_20AuthorizationServicepE22evaluate_user_policies00Bc_
FN:176,_RNCNCNvMNtNtNtCs9VsQExrgwtF_4wami7service4auth13authorizationINtB6_20AuthorizationServicepE22evaluate_user_policies0s_0Bc_
FN:115,_RNCNvMNtNtNtCs9VsQExrgwtF_4wami7service4auth13authorizationINtB4_20AuthorizationServicepE13check_or_deny0Ba_
FN:144,_RNCNvMNtNtNtCs9VsQExrgwtF_4wami7service4auth13authorizationINtB4_20AuthorizationServicepE22evaluate_user_policies0Ba_
FN:92,_RNCNvMNtNtNtCs9VsQExrgwtF_4wami7service4auth13authorizationINtB4_20AuthorizationServicepE9authorize0Ba_
FN:110,_RNvMNtNtNtCs9VsQExrgwtF_4wami7service4auth13authorizationINtB2_20AuthorizationServicepE13check_or_denyB8_
FN:139,_RNvMNtNtNtCs9VsQExrgwtF_4wami7service4auth13authorizationINtB2_20AuthorizationServicepE22evaluate_user_policiesB8_
FN:316,_RNvMNtNtNtCs9VsQExrgwtF_4wami7service4auth13authorizationINtB2_20AuthorizationServicepE26extract_user_name_from_arnB8_
FN:63,_RNvMNtNtNtCs9VsQExrgwtF_4wami7service4auth13authorizationINtB2_20AuthorizationServicepE3newB8_
FN:87,_RNvMNtNtNtCs9VsQExrgwtF_4wami7service4auth13authorizationINtB2_20AuthorizationServicepE9authorizeB8_
FN:349,_RNvNtNtNtNtCs9VsQExrgwtF_4wami7service4auth13authorization5testss_19test_matches_action
FN:399,_RNvNtNtNtNtCs9VsQExrgwtF_4wami7service4auth13authorization5testss_19test_wildcard_match
FN:370,_RNvNtNtNtNtCs9VsQExrgwtF_4wami7service4auth13authorization5testss_21test_matches_resource
FN:497,_RNvNtNtNtNtCs9VsQExrgwtF_4wami7service4auth13authorization5testss_29test_evaluate_policy_no_match
FN:413,_RNvNtNtNtNtCs9VsQExrgwtF_4wami7service4auth13authorization5testss_30test_matches_action_edge_cases
FN:439,_RNvNtNtNtNtCs9VsQExrgwtF_4wami7service4auth13authorization5testss_32test_matches_resource_edge_cases
FN:465,_RNvNtNtNtNtCs9VsQExrgwtF_4wami7service4auth13authorization5testss_41test_evaluate_policy_deny_overrides_allow
FN:520,_RNvNtNtNtNtCs9VsQExrgwtF_4wami7service4auth13authorization5testss_44test_evaluate_policy_case_insensitive_effect
FNDA:13,_RNvMNtNtNtCs9VsQExrgwtF_4wami7service4auth13authorizationINtB2_20AuthorizationServiceNtNtNtNtB8_5store6memory4wami17InMemoryWamiStoreE14matches_actionB8_
FNDA:9,_RNvMNtNtNtCs9VsQExrgwtF_4wami7service4auth13authorizationINtB2_20AuthorizationServiceNtNtNtNtB8_5store6memory4wami17InMemoryWamiStoreE14wildcard_matchB8_
FNDA:9,_RNvMNtNtNtCs9VsQExrgwtF_4wami7service4auth13authorizationINtB2_20AuthorizationServiceNtNtNtNtB8_5store6memory4wami17InMemoryWamiStoreE16matches_resourceB8_
FNDA:3,_RNvMNtNtNtCs9VsQExrgwtF_4wami7service4auth13authorizationINtB2_20AuthorizationServiceNtNtNtNtB8_5store6memory4wami17InMemoryWamiStoreE24evaluate_policy_documentB8_
FNDA:0,_RNCNCNvMNtNtNtCs9VsQExrgwtF_4wami7service4auth13authorizationINtB6_20AuthorizationServicepE22evaluate_user_policies00Bc_
FNDA:0,_RNCNCNvMNtNtNtCs9VsQExrgwtF_4wami7service4auth13authorizationINtB6_20AuthorizationServicepE22evaluate_user_policies0s_0Bc_
FNDA:0,_RNCNvMNtNtNtCs9VsQExrgwtF_4wami7service4auth13authorizationINtB4_20AuthorizationServicepE13check_or_deny0Ba_
FNDA:0,_RNCNvMNtNtNtCs9VsQExrgwtF_4wami7service4auth13authorizationINtB4_20AuthorizationServicepE22evaluate_user_policies0Ba_
FNDA:0,_RNCNvMNtNtNtCs9VsQExrgwtF_4wami7service4auth13authorizationINtB4_20AuthorizationServicepE9authorize0Ba_
FNDA:0,_RNvMNtNtNtCs9VsQExrgwtF_4wami7service4auth13authorizationINtB2_20AuthorizationServicepE13check_or_denyB8_
FNDA:0,_RNvMNtNtNtCs9VsQExrgwtF_4wami7service4auth13authorizationINtB2_20AuthorizationServicepE22evaluate_user_policiesB8_
FNDA:0,_RNvMNtNtNtCs9VsQExrgwtF_4wami7service4auth13authorizationINtB2_20AuthorizationServicepE26extract_user_name_from_arnB8_
FNDA:0,_RNvMNtNtNtCs9VsQExrgwtF_4wami7service4auth13authorizationINtB2_20AuthorizationServicepE3newB8_
FNDA:0,_RNvMNtNtNtCs9VsQExrgwtF_4wami7service4auth13authorizationINtB2_20AuthorizationServicepE9authorizeB8_
FNDA:1,_RNvNtNtNtNtCs9VsQExrgwtF_4wami7service4auth13authorization5testss_19test_matches_action
FNDA:1,_RNvNtNtNtNtCs9VsQExrgwtF_4wami7service4auth13authorization5testss_19test_wildcard_match
FNDA:1,_RNvNtNtNtNtCs9VsQExrgwtF_4wami7service4auth13authorization5testss_21test_matches_resource
FNDA:1,_RNvNtNtNtNtCs9VsQExrgwtF_4wami7service4auth13authorization5testss_29test_evaluate_policy_no_match
FNDA:1,_RNvNtNtNtNtCs9VsQExrgwtF_4wami7service4auth13authorization5testss_30test_matches_action_edge_cases
FNDA:1,_RNvNtNtNtNtCs9VsQExrgwtF_4wami7service4auth13authorization5testss_32test_matches_resource_edge_cases
FNDA:1,_RNvNtNtNtNtCs9VsQExrgwtF_4wami7service4auth13authorization5testss_41test_evaluate_policy_deny_overrides_allow
FNDA:1,_RNvNtNtNtNtCs9VsQExrgwtF_4wami7service4auth13authorization5testss_44test_evaluate_policy_case_insensitive_effect
FNF:22
FNH:12
DA:63,0
DA:64,0
DA:65,0
DA:87,0
DA:88,0
DA:89,0
DA:90,0
DA:91,0
DA:92,0
DA:94,0
DA:95,0
DA:96,0
DA:99,0
DA:102,0
DA:103,0
DA:104,0
DA:110,0
DA:111,0
DA:112,0
DA:113,0
DA:114,0
DA:115,0
DA:116,0
DA:118,0
DA:119,0
DA:120,0
DA:121,0
DA:122,0
DA:123,0
DA:124,0
DA:125,0
DA:126,0
DA:127,0
DA:129,0
DA:130,0
DA:139,0
DA:140,0
DA:141,0
DA:142,0
DA:143,0
DA:144,0
DA:145,0
DA:148,0
DA:151,0
DA:153,0
DA:154,0
DA:155,0
DA:156,0
DA:157,0
DA:158,0
DA:161,0
DA:162,0
DA:163,0
DA:164,0
DA:166,0
DA:170,0
DA:172,0
DA:173,0
DA:174,0
DA:175,0
DA:176,0
DA:177,0
DA:178,0
DA:180,0
DA:181,0
DA:182,0
DA:183,0
DA:185,0
DA:192,0
DA:193,0
DA:201,3
DA:202,3
DA:203,3
DA:204,3
DA:205,3
DA:206,3
DA:207,3
DA:210,5
DA:211,4
DA:212,2
DA:213,2
DA:215,2
DA:216,2
DA:220,2
DA:221,1
DA:222,1
DA:223,0
DA:225,0
DA:226,1
DA:229,1
DA:230,3
DA:235,13
DA:236,17
DA:237,13
DA:238,1
DA:239,12
DA:241,12
DA:242,4
DA:243,8
DA:246,8
DA:247,4
DA:248,4
DA:249,4
DA:250,0
DA:251,4
DA:254,4
DA:255,13
DA:260,9
DA:261,11
DA:262,9
DA:263,3
DA:264,6
DA:266,6
DA:267,1
DA:268,5
DA:271,5
DA:272,3
DA:273,2
DA:276,2
DA:277,9
DA:280,9
DA:281,9
DA:283,9
DA:284,0
DA:285,9
DA:287,9
DA:289,22
DA:290,22
DA:291,5
DA:292,17
DA:295,17
DA:296,1
DA:297,16
DA:300,16
DA:301,0
DA:302,16
DA:305,16
DA:306,14
DA:307,14
DA:308,2
DA:312,6
DA:313,9
DA:316,0
DA:318,0
DA:322,0
DA:324,0
DA:325,0
DA:326,0
DA:328,0
DA:349,1
DA:350,1
DA:351,1
DA:352,1
DA:353,1
DA:356,1
DA:359,1
DA:362,1
DA:363,1
DA:366,1
DA:367,1
DA:370,1
DA:371,1
DA:372,1
DA:373,1
DA:374,1
DA:377,1
DA:378,1
DA:379,1
DA:383,1
DA:386,1
DA:387,1
DA:388,1
DA:392,1
DA:393,1
DA:394,1
DA:395,1
DA:396,1
DA:399,1
DA:400,1
DA:401,1
DA:402,1
DA:403,1
DA:405,1
DA:406,1
DA:407,1
DA:409,1
DA:410,1
DA:413,1
DA:414,1
DA:415,1
DA:416,1
DA:417,1
DA:420,1
DA:423,1
DA:426,1
DA:427,1
DA:428,1
DA:432,1
DA:435,1
DA:436,1
DA:439,1
DA:440,1
DA:441,1
DA:442,1
DA:443,1
DA:446,1
DA:449,1
DA:450,1
DA:451,1
DA:452,1
DA:453,1
DA:454,1
DA:458,1
DA:459,1
DA:460,1
DA:462,1
DA:465,1
DA:466,1
DA:467,1
DA:468,1
DA:469,1
DA:471,1
DA:472,1
DA:473,1
DA:474,1
DA:475,1
DA:476,1
DA:477,1
DA:478,1
DA:479,1
DA:480,1
DA:481,1
DA:482,1
DA:483,1
DA:484,1
DA:485,1
DA:486,1
DA:487,1
DA:489,1
DA:490,1
DA:493,1
DA:494,1
DA:497,1
DA:498,1
DA:499,1
DA:500,1
DA:501,1
DA:503,1
DA:504,1
DA:505,1
DA:506,1
DA:507,1
DA:508,1
DA:509,1
DA:510,1
DA:511,1
DA:513,1
DA:514,1
DA:516,1
DA:517,1
DA:520,1
DA:521,1
DA:522,1
DA:523,1
DA:524,1
DA:526,1
DA:527,1
DA:528,1
DA:529,1
DA:530,1
DA:531,1
DA:532,1
DA:533,1
DA:534,1
DA:536,1
DA:537,1
DA:539,1
DA:540,1
BRF:0
BRH:0
LF:281
LH:196
end_of_record
SF:/Users/lsh/projects/crates/wami/src/service/credentials/access_key.rs
FN:152,_RNCNvNtNtNtNtCs9VsQExrgwtF_4wami7service11credentials10access_key5testss_21test_list_access_keys0Bb_
FN:130,_RNCNvNtNtNtNtCs9VsQExrgwtF_4wami7service11credentials10access_key5testss_22test_delete_access_key0Bb_
FN:108,_RNCNvNtNtNtNtCs9VsQExrgwtF_4wami7service11credentials10access_key5testss_30test_create_and_get_access_key0Bb_
FN:53,_RNCNvMNtNtNtCs9VsQExrgwtF_4wami7service11credentials10access_keyINtB4_16AccessKeyServicepE17update_access_key0Ba_
FN:53,_RNvMNtNtNtCs9VsQExrgwtF_4wami7service11credentials10access_keyINtB2_16AccessKeyServicepE17update_access_keyB8_
FN:94,_RNvNtNtNtNtCs9VsQExrgwtF_4wami7service11credentials10access_key5tests12test_context
FN:89,_RNvNtNtNtNtCs9VsQExrgwtF_4wami7service11credentials10access_key5tests13setup_service
FN:152,_RNvNtNtNtNtCs9VsQExrgwtF_4wami7service11credentials10access_key5testss_21test_list_access_keys
FN:130,_RNvNtNtNtNtCs9VsQExrgwtF_4wami7service11credentials10access_key5testss_22test_delete_access_key
FN:108,_RNvNtNtNtNtCs9VsQExrgwtF_4wami7service11credentials10access_key5testss_30test_create_and_get_access_key
FN:44,_RNCNvMNtNtNtCs9VsQExrgwtF_4wami7service11credentials10access_keyINtB4_16AccessKeyServiceNtNtNtNtBa_5store6memory4wami17InMemoryWamiStoreE14get_access_key0Ba_
FN:74,_RNCNvMNtNtNtCs9VsQExrgwtF_4wami7service11credentials10access_keyINtB4_16AccessKeyServiceNtNtNtNtBa_5store6memory4wami17InMemoryWamiStoreE16list_access_keys0Ba_
FN:31,_RNCNvMNtNtNtCs9VsQExrgwtF_4wami7service11credentials10access_keyINtB4_16AccessKeyServiceNtNtNtNtBa_5store6memory4wami17InMemoryWamiStoreE17create_access_key0Ba_
FN:62,_RNCNvMNtNtNtCs9VsQExrgwtF_4wami7service11credentials10access_keyINtB4_16AccessKeyServiceNtNtNtNtBa_5store6memory4wami17InMemoryWamiStoreE17delete_access_key0Ba_
FN:44,_RNvMNtNtNtCs9VsQExrgwtF_4wami7service11credentials10access_keyINtB2_16AccessKeyServiceNtNtNtNtB8_5store6memory4wami17InMemoryWamiStoreE14get_access_keyB8_
FN:71,_RNvMNtNtNtCs9VsQExrgwtF_4wami7service11credentials10access_keyINtB2_16AccessKeyServiceNtNtNtNtB8_5store6memory4wami17InMemoryWamiStoreE16list_access_keysB8_
FN:27,_RNvMNtNtNtCs9VsQExrgwtF_4wami7service11credentials10access_keyINtB2_16AccessKeyServiceNtNtNtNtB8_5store6memory4wami17InMemoryWamiStoreE17create_access_keyB8_
FN:62,_RNvMNtNtNtCs9VsQExrgwtF_4wami7service11credentials10access_keyINtB2_16AccessKeyServiceNtNtNtNtB8_5store6memory4wami17InMemoryWamiStoreE17delete_access_keyB8_
FN:22,_RNvMNtNtNtCs9VsQExrgwtF_4wami7service11credentials10access_keyINtB2_16AccessKeyServiceNtNtNtNtB8_5store6memory4wami17InMemoryWamiStoreE3newB8_
FNDA:1,_RNCNvNtNtNtNtCs9VsQExrgwtF_4wami7service11credentials10access_key5testss_21test_list_access_keys0Bb_
FNDA:1,_RNCNvNtNtNtNtCs9VsQExrgwtF_4wami7service11credentials10access_key5testss_22test_delete_access_key0Bb_
FNDA:1,_RNCNvNtNtNtNtCs9VsQExrgwtF_4wami7service11credentials10access_key5testss_30test_create_and_get_access_key0Bb_
FNDA:0,_RNCNvMNtNtNtCs9VsQExrgwtF_4wami7service11credentials10access_keyINtB4_16AccessKeyServicepE17update_access_key0Ba_
FNDA:0,_RNvMNtNtNtCs9VsQExrgwtF_4wami7service11credentials10access_keyINtB2_16AccessKeyServicepE17update_access_keyB8_
FNDA:5,_RNvNtNtNtNtCs9VsQExrgwtF_4wami7service11credentials10access_key5tests12test_context
FNDA:3,_RNvNtNtNtNtCs9VsQExrgwtF_4wami7service11credentials10access_key5tests13setup_service
FNDA:1,_RNvNtNtNtNtCs9VsQExrgwtF_4wami7service11credentials10access_key5testss_21test_list_access_keys
FNDA:1,_RNvNtNtNtNtCs9VsQExrgwtF_4wami7service11credentials10access_key5testss_22test_delete_access_key
FNDA:1,_RNvNtNtNtNtCs9VsQExrgwtF_4wami7service11credentials10access_key5testss_30test_create_and_get_access_key
FNDA:2,_RNCNvMNtNtNtCs9VsQExrgwtF_4wami7service11credentials10access_keyINtB4_16AccessKeyServiceNtNtNtNtBa_5store6memory4wami17InMemoryWamiStoreE14get_access_key0Ba_
FNDA:1,_RNCNvMNtNtNtCs9VsQExrgwtF_4wami7service11credentials10access_keyINtB4_16AccessKeyServiceNtNtNtNtBa_5store6memory4wami17InMemoryWamiStoreE16list_access_keys0Ba_
FNDA:5,_RNCNvMNtNtNtCs9VsQExrgwtF_4wami7service11credentials10access_keyINtB4_16AccessKeyServiceNtNtNtNtBa_5store6memory4wami17InMemoryWamiStoreE17create_access_key0Ba_
FNDA:1,_RNCNvMNtNtNtCs9VsQExrgwtF_4wami7service11credentials10access_keyINtB4_16AccessKeyServiceNtNtNtNtBa_5store6memory4wami17InMemoryWamiStoreE17delete_access_key0Ba_
FNDA:2,_RNvMNtNtNtCs9VsQExrgwtF_4wami7service11credentials10access_keyINtB2_16AccessKeyServiceNtNtNtNtB8_5store6memory4wami17InMemoryWamiStoreE14get_access_keyB8_
FNDA:1,_RNvMNtNtNtCs9VsQExrgwtF_4wami7service11credentials10access_keyINtB2_16AccessKeyServiceNtNtNtNtB8_5store6memory4wami17InMemoryWamiStoreE16list_access_keysB8_
FNDA:5,_RNvMNtNtNtCs9VsQExrgwtF_4wami7service11credentials10access_keyINtB2_16AccessKeyServiceNtNtNtNtB8_5store6memory4wami17InMemoryWamiStoreE17create_access_keyB8_
FNDA:1,_RNvMNtNtNtCs9VsQExrgwtF_4wami7service11credentials10access_keyINtB2_16AccessKeyServiceNtNtNtNtB8_5store6memory4wami17InMemoryWamiStoreE17delete_access_keyB8_
FNDA:3,_RNvMNtNtNtCs9VsQExrgwtF_4wami7service11credentials10access_keyINtB2_16AccessKeyServiceNtNtNtNtB8_5store6memory4wami17InMemoryWamiStoreE3newB8_
FNF:19
FNH:17
DA:22,3
DA:23,3
DA:24,3
DA:27,5
DA:28,5
DA:29,5
DA:30,5
DA:31,5
DA:33,5
DA:36,5
DA:37,5
DA:38,5
DA:39,5
DA:40,5
DA:41,5
DA:44,2
DA:45,2
DA:46,2
DA:47,2
DA:48,2
DA:49,2
DA:50,2
DA:53,0
DA:54,0
DA:55,0
DA:56,0
DA:57,0
DA:58,0
DA:59,0
DA:62,1
DA:63,1
DA:64,1
DA:65,1
DA:66,1
DA:67,1
DA:68,1
DA:71,1
DA:72,1
DA:73,1
DA:74,1
DA:75,1
DA:76,1
DA:77,1
DA:78,1
DA:79,1
DA:80,1
DA:89,3
DA:90,3
DA:91,3
DA:92,3
DA:94,5
DA:95,5
DA:96,5
DA:97,5
DA:98,5
DA:99,5
DA:100,5
DA:101,5
DA:102,5
DA:103,5
DA:104,5
DA:105,5
DA:108,1
DA:109,1
DA:111,1
DA:112,1
DA:113,1
DA:115,1
DA:116,1
DA:117,1
DA:118,1
DA:119,1
DA:121,1
DA:122,1
DA:123,1
DA:124,1
DA:125,1
DA:126,1
DA:127,1
DA:130,1
DA:131,1
DA:133,1
DA:134,1
DA:135,1
DA:136,1
DA:137,1
DA:139,1
DA:140,1
DA:141,1
DA:142,1
DA:144,1
DA:145,1
DA:146,1
DA:147,1
DA:148,1
DA:149,1
DA:152,1
DA:153,1
DA:156,4
DA:157,3
DA:158,3
DA:159,3
DA:160,3
DA:161,3
DA:164,1
DA:165,1
DA:166,1
DA:167,1
DA:168,1
DA:169,1
DA:170,1
BRF:0
BRH:0
LF:122
LH:114
end_of_record
SF:/Users/lsh/projects/crates/wami/src/service/credentials/login_profile.rs
FN:173,_RNCNvNtNtNtNtCs9VsQExrgwtF_4wami7service11credentials13login_profile5testss_25test_delete_login_profile0Bb_
FN:146,_RNCNvNtNtNtNtCs9VsQExrgwtF_4wami7service11credentials13login_profile5testss_25test_update_login_profile0Bb_
FN:121,_RNCNvNtNtNtNtCs9VsQExrgwtF_4wami7service11credentials13login_profile5testss_33test_create_and_get_login_profile0Bb_
FN:107,_RNvNtNtNtNtCs9VsQExrgwtF_4wami7service11credentials13login_profile5tests12test_context
FN:102,_RNvNtNtNtNtCs9VsQExrgwtF_4wami7service11credentials13login_profile5tests13setup_service
FN:173,_RNvNtNtNtNtCs9VsQExrgwtF_4wami7service11credentials13login_profile5testss_25test_delete_login_profile
FN:146,_RNvNtNtNtNtCs9VsQExrgwtF_4wami7service11credentials13login_profile5testss_25test_update_login_profile
FN:121,_RNvNtNtNtNtCs9VsQExrgwtF_4wami7service11credentials13login_profile5testss_33test_create_and_get_login_profile
FN:70,_RNCNCNvMNtNtNtCs9VsQExrgwtF_4wami7service11credentials13login_profileINtB6_19LoginProfileServiceNtNtNtNtBc_5store6memory4wami17InMemoryWamiStoreE20update_login_profile00Bc_
FN:49,_RNCNvMNtNtNtCs9VsQExrgwtF_4wami7service11credentials13login_profileINtB4_19LoginProfileServiceNtNtNtNtBa_5store6memory4wami17InMemoryWamiStoreE17get_login_profile0Ba_
FN:31,_RNCNvMNtNtNtCs9VsQExrgwtF_4wami7service11credentials13login_profileINtB4_19LoginProfileServiceNtNtNtNtBa_5store6memory4wami17InMemoryWamiStoreE20create_login_profile0Ba_
FN:87,_RNCNvMNtNtNtCs9VsQExrgwtF_4wami7service11credentials13login_profileINtB4_19LoginProfileServiceNtNtNtNtBa_5store6memory4wami17InMemoryWamiStoreE20delete_login_profile0Ba_
FN:61,_RNCNvMNtNtNtCs9VsQExrgwtF_4wami7service11credentials13login_profileINtB4_19LoginProfileServiceNtNtNtNtBa_5store6memory4wami17InMemoryWamiStoreE20update_login_profile0Ba_
FN:49,_RNvMNtNtNtCs9VsQExrgwtF_4wami7service11credentials13login_profileINtB2_19LoginProfileServiceNtNtNtNtB8_5store6memory4wami17InMemoryWamiStoreE17get_login_profileB8_
FN:27,_RNvMNtNtNtCs9VsQExrgwtF_4wami7service11credentials13login_profileINtB2_19LoginProfileServiceNtNtNtNtB8_5store6memory4wami17InMemoryWamiStoreE20create_login_profileB8_
FN:87,_RNvMNtNtNtCs9VsQExrgwtF_4wami7service11credentials13login_profileINtB2_19LoginProfileServiceNtNtNtNtB8_5store6memory4wami17InMemoryWamiStoreE20delete_login_profileB8_
FN:58,_RNvMNtNtNtCs9VsQExrgwtF_4wami7service11credentials13login_profileINtB2_19LoginProfileServiceNtNtNtNtB8_5store6memory4wami17InMemoryWamiStoreE20update_login_profileB8_
FN:22,_RNvMNtNtNtCs9VsQExrgwtF_4wami7service11credentials13login_profileINtB2_19LoginProfileServiceNtNtNtNtB8_5store6memory4wami17InMemoryWamiStoreE3newB8_
FNDA:1,_RNCNvNtNtNtNtCs9VsQExrgwtF_4wami7service11credentials13login_profile5testss_25test_delete_login_profile0Bb_
FNDA:1,_RNCNvNtNtNtNtCs9VsQExrgwtF_4wami7service11credentials13login_profile5testss_25test_update_login_profile0Bb_
FNDA:1,_RNCNvNtNtNtNtCs9VsQExrgwtF_4wami7service11credentials13login_profile5testss_33test_create_and_get_login_profile0Bb_
FNDA:3,_RNvNtNtNtNtCs9VsQExrgwtF_4wami7service11credentials13login_profile5tests12test_context
FNDA:3,_RNvNtNtNtNtCs9VsQExrgwtF_4wami7service11credentials13login_profile5tests13setup_service
FNDA:1,_RNvNtNtNtNtCs9VsQExrgwtF_4wami7service11credentials13login_profile5testss_25test_delete_login_profile
FNDA:1,_RNvNtNtNtNtCs9VsQExrgwtF_4wami7service11credentials13login_profile5testss_25test_update_login_profile
FNDA:1,_RNvNtNtNtNtCs9VsQExrgwtF_4wami7service11credentials13login_profile5testss_33test_create_and_get_login_profile
FNDA:0,_RNCNCNvMNtNtNtCs9VsQExrgwtF_4wami7service11credentials13login_profileINtB6_19LoginProfileServiceNtNtNtNtBc_5store6memory4wami17InMemoryWamiStoreE20update_login_profile00Bc_
FNDA:2,_RNCNvMNtNtNtCs9VsQExrgwtF_4wami7service11credentials13login_profileINtB4_19LoginProfileServiceNtNtNtNtBa_5store6memory4wami17InMemoryWamiStoreE17get_login_profile0Ba_
FNDA:3,_RNCNvMNtNtNtCs9VsQExrgwtF_4wami7service11credentials13login_profileINtB4_19LoginProfileServiceNtNtNtNtBa_5store6memory4wami17InMemoryWamiStoreE20create_login_profile0Ba_
FNDA:1,_RNCNvMNtNtNtCs9VsQExrgwtF_4wami7service11credentials13login_profileINtB4_19LoginProfileServiceNtNtNtNtBa_5store6memory4wami17InMemoryWamiStoreE20delete_login_profile0Ba_
FNDA:1,_RNCNvMNtNtNtCs9VsQExrgwtF_4wami7service11credentials13login_profileINtB4_19LoginProfileServiceNtNtNtNtBa_5store6memory4wami17InMemoryWamiStoreE20update_login_profile0Ba_
FNDA:2,_RNvMNtNtNtCs9VsQExrgwtF_4wami7service11credentials13login_profileINtB2_19LoginProfileServiceNtNtNtNtB8_5store6memory4wami17InMemoryWamiStoreE17get_login_profileB8_
FNDA:3,_RNvMNtNtNtCs9VsQExrgwtF_4wami7service11credentials13login_profileINtB2_19LoginProfileServiceNtNtNtNtB8_5store6memory4wami17InMemoryWamiStoreE20create_login_profileB8_
FNDA:1,_RNvMNtNtNtCs9VsQExrgwtF_4wami7service11credentials13login_profileINtB2_19LoginProfileServiceNtNtNtNtB8_5store6memory4wami17InMemoryWamiStoreE20delete_login_profileB8_
FNDA:1,_RNvMNtNtNtCs9VsQExrgwtF_4wami7service11credentials13login_profileINtB2_19LoginProfileServiceNtNtNtNtB8_5store6memory4wami17InMemoryWamiStoreE20update_login_profileB8_
FNDA:3,_RNvMNtNtNtCs9VsQExrgwtF_4wami7service11credentials13login_profileINtB2_19LoginProfileServiceNtNtNtNtB8_5store6memory4wami17InMemoryWamiStoreE3newB8_
FNF:18
FNH:17
DA:22,3
DA:23,3
DA:24,3
DA:27,3
DA:28,3
DA:29,3
DA:30,3
DA:31,3
DA:34,3
DA:35,3
DA:36,3
DA:37,3
DA:38,0
DA:41,3
DA:42,3
DA:43,3
DA:44,3
DA:45,3
DA:46,3
DA:49,2
DA:50,2
DA:51,2
DA:52,2
DA:53,2
DA:54,2
DA:55,2
DA:58,1
DA:59,1
DA:60,1
DA:61,1
DA:63,1
DA:64,1
DA:65,1
DA:66,1
DA:67,1
DA:68,1
DA:69,1
DA:70,0
DA:71,0
DA:75,1
DA:76,1
DA:79,1
DA:80,1
DA:81,1
DA:82,1
DA:83,1
DA:84,1
DA:87,1
DA:88,1
DA:89,1
DA:90,1
DA:91,1
DA:92,1
DA:93,1
DA:102,3
DA:103,3
DA:104,3
DA:105,3
DA:107,3
DA:108,3
DA:109,3
DA:110,3
DA:111,3
DA:112,3
DA:113,3
DA:114,3
DA:115,3
DA:116,3
DA:117,3
DA:118,3
DA:121,1
DA:122,1
DA:124,1
DA:125,1
DA:126,1
DA:127,1
DA:128,1
DA:130,1
DA:131,1
DA:132,1
DA:133,1
DA:134,1
DA:135,1
DA:136,1
DA:138,1
DA:139,1
DA:140,1
DA:141,1
DA:142,1
DA:143,1
DA:146,1
DA:147,1
DA:150,1
DA:151,1
DA:152,1
DA:153,1
DA:154,1
DA:155,1
DA:156,1
DA:157,1
DA:158,1
DA:159,1
DA:162,1
DA:163,1
DA:164,1
DA:165,1
DA:166,1
DA:167,1
DA:168,1
DA:169,1
DA:170,1
DA:173,1
DA:174,1
DA:176,1
DA:177,1
DA:178,1
DA:179,1
DA:180,1
DA:181,1
DA:182,1
DA:183,1
DA:184,1
DA:185,1
DA:187,1
DA:189,1
DA:190,1
DA:191,1
BRF:0
BRH:0
LF:138
LH:134
end_of_record
SF:/Users/lsh/projects/crates/wami/src/service/credentials/mfa_device.rs
FN:145,_RNCNvNtNtNtNtCs9VsQExrgwtF_4wami7service11credentials10mfa_device5testss_21test_list_mfa_devices0Bb_
FN:120,_RNCNvNtNtNtNtCs9VsQExrgwtF_4wami7service11credentials10mfa_device5testss_22test_delete_mfa_device0Bb_
FN:97,_RNCNvNtNtNtNtCs9VsQExrgwtF_4wami7service11credentials10mfa_device5testss_30test_create_and_get_mfa_device0Bb_
FN:45,_RNCNvMNtNtNtCs9VsQExrgwtF_4wami7service11credentials10mfa_deviceINtB4_16MfaDeviceServiceNtNtNtNtBa_5store6memory4wami17InMemoryWamiStoreE14get_mfa_device0Ba_
FN:63,_RNCNvMNtNtNtCs9VsQExrgwtF_4wami7service11credentials10mfa_deviceINtB4_16MfaDeviceServiceNtNtNtNtBa_5store6memory4wami17InMemoryWamiStoreE16list_mfa_devices0Ba_
FN:31,_RNCNvMNtNtNtCs9VsQExrgwtF_4wami7service11credentials10mfa_deviceINtB4_16MfaDeviceServiceNtNtNtNtBa_5store6memory4wami17InMemoryWamiStoreE17create_mfa_device0Ba_
FN:54,_RNCNvMNtNtNtCs9VsQExrgwtF_4wami7service11credentials10mfa_deviceINtB4_16MfaDeviceServiceNtNtNtNtBa_5store6memory4wami17InMemoryWamiStoreE17delete_mfa_device0Ba_
FN:45,_RNvMNtNtNtCs9VsQExrgwtF_4wami7service11credentials10mfa_deviceINtB2_16MfaDeviceServiceNtNtNtNtB8_5store6memory4wami17InMemoryWamiStoreE14get_mfa_deviceB8_
FN:63,_RNvMNtNtNtCs9VsQExrgwtF_4wami7service11credentials10mfa_deviceINtB2_16MfaDeviceServiceNtNtNtNtB8_5store6memory4wami17InMemoryWamiStoreE16list_mfa_devicesB8_
FN:27,_RNvMNtNtNtCs9VsQExrgwtF_4wami7service11credentials10mfa_deviceINtB2_16MfaDeviceServiceNtNtNtNtB8_5store6memory4wami17InMemoryWamiStoreE17create_mfa_deviceB8_
FN:54,_RNvMNtNtNtCs9VsQExrgwtF_4wami7service11credentials10mfa_deviceINtB2_16MfaDeviceServiceNtNtNtNtB8_5store6memory4wami17InMemoryWamiStoreE17delete_mfa_deviceB8_
FN:22,_RNvMNtNtNtCs9VsQExrgwtF_4wami7service11credentials10mfa_deviceINtB2_16MfaDeviceServiceNtNtNtNtB8_5store6memory4wami17InMemoryWamiStoreE3newB8_
FN:83,_RNvNtNtNtNtCs9VsQExrgwtF_4wami7service11credentials10mfa_device5tests12test_context
FN:78,_RNvNtNtNtNtCs9VsQExrgwtF_4wami7service11credentials10mfa_device5tests13setup_service
FN:145,_RNvNtNtNtNtCs9VsQExrgwtF_4wami7service11credentials10mfa_device5testss_21test_list_mfa_devices
FN:120,_RNvNtNtNtNtCs9VsQExrgwtF_4wami7service11credentials10mfa_device5testss_22test_delete_mfa_device
FN:97,_RNvNtNtNtNtCs9VsQExrgwtF_4wami7service11credentials10mfa_device5testss_30test_create_and_get_mfa_device
FNDA:1,_RNCNvNtNtNtNtCs9VsQExrgwtF_4wami7service11credentials10mfa_device5testss_21test_list_mfa_devices0Bb_
FNDA:1,_RNCNvNtNtNtNtCs9VsQExrgwtF_4wami7service11credentials10mfa_device5testss_22test_delete_mfa_device0Bb_
FNDA:1,_RNCNvNtNtNtNtCs9VsQExrgwtF_4wami7service11credentials10mfa_device5testss_30test_create_and_get_mfa_device0Bb_
FNDA:2,_RNCNvMNtNtNtCs9VsQExrgwtF_4wami7service11credentials10mfa_deviceINtB4_16MfaDeviceServiceNtNtNtNtBa_5store6memory4wami17InMemoryWamiStoreE14get_mfa_device0Ba_
FNDA:1,_RNCNvMNtNtNtCs9VsQExrgwtF_4wami7service11credentials10mfa_deviceINtB4_16MfaDeviceServiceNtNtNtNtBa_5store6memory4wami17InMemoryWamiStoreE16list_mfa_devices0Ba_
FNDA:5,_RNCNvMNtNtNtCs9VsQExrgwtF_4wami7service11credentials10mfa_deviceINtB4_16MfaDeviceServiceNtNtNtNtBa_5store6memory4wami17InMemoryWamiStoreE17create_mfa_device0Ba_
FNDA:1,_RNCNvMNtNtNtCs9VsQExrgwtF_4wami7service11credentials10mfa_deviceINtB4_16MfaDeviceServiceNtNtNtNtBa_5store6memory4wami17InMemoryWamiStoreE17delete_mfa_device0Ba_
FNDA:2,_RNvMNtNtNtCs9VsQExrgwtF_4wami7service11credentials10mfa_deviceINtB2_16MfaDeviceServiceNtNtNtNtB8_5store6memory4wami17InMemoryWamiStoreE14get_mfa_deviceB8_
FNDA:1,_RNvMNtNtNtCs9VsQExrgwtF_4wami7service11credentials10mfa_deviceINtB2_16MfaDeviceServiceNtNtNtNtB8_5store6memory4wami17InMemoryWamiStoreE16list_mfa_devicesB8_
FNDA:5,_RNvMNtNtNtCs9VsQExrgwtF_4wami7service11credentials10mfa_deviceINtB2_16MfaDeviceServiceNtNtNtNtB8_5store6memory4wami17InMemoryWamiStoreE17create_mfa_deviceB8_
FNDA:1,_RNvMNtNtNtCs9VsQExrgwtF_4wami7service11credentials10mfa_deviceINtB2_16MfaDeviceServiceNtNtNtNtB8_5store6memory4wami17InMemoryWamiStoreE17delete_mfa_deviceB8_
FNDA:3,_RNvMNtNtNtCs9VsQExrgwtF_4wami7service11credentials10mfa_deviceINtB2_16MfaDeviceServiceNtNtNtNtB8_5store6memory4wami17InMemoryWamiStoreE3newB8_
FNDA:5,_RNvNtNtNtNtCs9VsQExrgwtF_4wami7service11credentials10mfa_device5tests12test_context
FNDA:3,_RNvNtNtNtNtCs9VsQExrgwtF_4wami7service11credentials10mfa_device5tests13setup_service
FNDA:1,_RNvNtNtNtNtCs9VsQExrgwtF_4wami7service11credentials10mfa_device5testss_21test_list_mfa_devices
FNDA:1,_RNvNtNtNtNtCs9VsQExrgwtF_4wami7service11credentials10mfa_device5testss_22test_delete_mfa_device
FNDA:1,_RNvNtNtNtNtCs9VsQExrgwtF_4wami7service11credentials10mfa_device5testss_30test_create_and_get_mfa_device
FNF:17
FNH:17
DA:22,3
DA:23,3
DA:24,3
DA:27,5
DA:28,5
DA:29,5
DA:30,5
DA:31,5
DA:33,5
DA:34,5
DA:37,5
DA:38,5
DA:39,5
DA:40,5
DA:41,5
DA:42,5
DA:45,2
DA:46,2
DA:47,2
DA:48,2
DA:49,2
DA:50,2
DA:51,2
DA:54,1
DA:55,1
DA:56,1
DA:57,1
DA:58,1
DA:59,1
DA:60,1
DA:63,1
DA:64,1
DA:65,1
DA:66,1
DA:67,1
DA:68,1
DA:69,1
DA:78,3
DA:79,3
DA:80,3
DA:81,3
DA:83,5
DA:84,5
DA:85,5
DA:86,5
DA:87,5
DA:88,5
DA:89,5
DA:90,5
DA:91,5
DA:92,5
DA:93,5
DA:94,5
DA:97,1
DA:98,1
DA:100,1
DA:101,1
DA:102,1
DA:103,1
DA:104,1
DA:105,1
DA:107,1
DA:108,1
DA:109,1
DA:111,1
DA:112,1
DA:113,1
DA:114,1
DA:115,1
DA:116,1
DA:117,1
DA:120,1
DA:121,1
DA:123,1
DA:124,1
DA:125,1
DA:126,1
DA:127,1
DA:128,1
DA:129,1
DA:130,1
DA:132,1
DA:133,1
DA:134,1
DA:135,1
DA:137,1
DA:138,1
DA:139,1
DA:140,1
DA:141,1
DA:142,1
DA:145,1
DA:146,1
DA:149,4
DA:150,3
DA:151,3
DA:152,3
DA:153,3
DA:154,3
DA:155,3
DA:156,3
DA:157,3
DA:160,1
DA:161,1
DA:162,1
DA:163,1
DA:164,1
DA:165,1
BRF:0
BRH:0
LF:118
LH:118
end_of_record
SF:/Users/lsh/projects/crates/wami/src/service/credentials/server_certificate.rs
FN:77,_RNCNCNvMNtNtNtCs9VsQExrgwtF_4wami7service11credentials18server_certificateINtB6_24ServerCertificateServicepE25update_server_certificate00Bc_
FN:68,_RNCNvMNtNtNtCs9VsQExrgwtF_4wami7service11credentials18server_certificateINtB4_24ServerCertificateServicepE25update_server_certificate0Ba_
FN:65,_RNvMNtNtNtCs9VsQExrgwtF_4wami7service11credentials18server_certificateINtB2_24ServerCertificateServicepE25update_server_certificateB8_
FN:138,_RNvNtNtNtNtCs9VsQExrgwtF_4wami7service11credentials18server_certificate5tests12test_context
FN:133,_RNvNtNtNtNtCs9VsQExrgwtF_4wami7service11credentials18server_certificate5tests13setup_service
FN:215,_RNvNtNtNtNtCs9VsQExrgwtF_4wami7service11credentials18server_certificate5testss_29test_list_server_certificates
FN:186,_RNvNtNtNtNtCs9VsQExrgwtF_4wami7service11credentials18server_certificate5testss_30test_delete_server_certificate
FN:158,_RNvNtNtNtNtCs9VsQExrgwtF_4wami7service11credentials18server_certificate5testss_38test_upload_and_get_server_certificate
FN:39,_RNCNCNvMNtNtNtCs9VsQExrgwtF_4wami7service11credentials18server_certificateINtB6_24ServerCertificateServiceNtNtNtNtBc_5store6memory4wami17InMemoryWamiStoreE25upload_server_certificate00Bc_
FN:56,_RNCNvMNtNtNtCs9VsQExrgwtF_4wami7service11credentials18server_certificateINtB4_24ServerCertificateServiceNtNtNtNtBa_5store6memory4wami17InMemoryWamiStoreE22get_server_certificate0Ba_
FN:110,_RNCNvMNtNtNtCs9VsQExrgwtF_4wami7service11credentials18server_certificateINtB4_24ServerCertificateServiceNtNtNtNtBa_5store6memory4wami17InMemoryWamiStoreE24list_server_certificates0Ba_
FN:98,_RNCNvMNtNtNtCs9VsQExrgwtF_4wami7service11credentials18server_certificateINtB4_24ServerCertificateServiceNtNtNtNtBa_5store6memory4wami17InMemoryWamiStoreE25delete_server_certificate0Ba_
FN:33,_RNCNvMNtNtNtCs9VsQExrgwtF_4wami7service11credentials18server_certificateINtB4_24ServerCertificateServiceNtNtNtNtBa_5store6memory4wami17InMemoryWamiStoreE25upload_server_certificate0Ba_
FN:53,_RNvMNtNtNtCs9VsQExrgwtF_4wami7service11credentials18server_certificateINtB2_24ServerCertificateServiceNtNtNtNtB8_5store6memory4wami17InMemoryWamiStoreE22get_server_certificateB8_
FN:107,_RNvMNtNtNtCs9VsQExrgwtF_4wami7service11credentials18server_certificateINtB2_24ServerCertificateServiceNtNtNtNtB8_5store6memory4wami17InMemoryWamiStoreE24list_server_certificatesB8_
FN:98,_RNvMNtNtNtCs9VsQExrgwtF_4wami7service11credentials18server_certificateINtB2_24ServerCertificateServiceNtNtNtNtB8_5store6memory4wami17InMemoryWamiStoreE25delete_server_certificateB8_
FN:29,_RNvMNtNtNtCs9VsQExrgwtF_4wami7service11credentials18server_certificateINtB2_24ServerCertificateServiceNtNtNtNtB8_5store6memory4wami17InMemoryWamiStoreE25upload_server_certificateB8_
FN:24,_RNvMNtNtNtCs9VsQExrgwtF_4wami7service11credentials18server_certificateINtB2_24ServerCertificateServiceNtNtNtNtB8_5store6memory4wami17InMemoryWamiStoreE3newB8_
FN:215,_RNCNvNtNtNtNtCs9VsQExrgwtF_4wami7service11credentials18server_certificate5testss_29test_list_server_certificates0Bb_
FN:186,_RNCNvNtNtNtNtCs9VsQExrgwtF_4wami7service11credentials18server_certificate5testss_30test_delete_server_certificate0Bb_
FN:158,_RNCNvNtNtNtNtCs9VsQExrgwtF_4wami7service11credentials18server_certificate5testss_38test_upload_and_get_server_certificate0Bb_
FNDA:0,_RNCNCNvMNtNtNtCs9VsQExrgwtF_4wami7service11credentials18server_certificateINtB6_24ServerCertificateServicepE25update_server_certificate00Bc_
FNDA:0,_RNCNvMNtNtNtCs9VsQExrgwtF_4wami7service11credentials18server_certificateINtB4_24ServerCertificateServicepE25update_server_certificate0Ba_
FNDA:0,_RNvMNtNtNtCs9VsQExrgwtF_4wami7service11credentials18server_certificateINtB2_24ServerCertificateServicepE25update_server_certificateB8_
FNDA:3,_RNvNtNtNtNtCs9VsQExrgwtF_4wami7service11credentials18server_certificate5tests12test_context
FNDA:3,_RNvNtNtNtNtCs9VsQExrgwtF_4wami7service11credentials18server_certificate5tests13setup_service
FNDA:1,_RNvNtNtNtNtCs9VsQExrgwtF_4wami7service11credentials18server_certificate5testss_29test_list_server_certificates
FNDA:1,_RNvNtNtNtNtCs9VsQExrgwtF_4wami7service11credentials18server_certificate5testss_30test_delete_server_certificate
FNDA:1,_RNvNtNtNtNtCs9VsQExrgwtF_4wami7service11credentials18server_certificate5testss_38test_upload_and_get_server_certificate
FNDA:1,_RNCNCNvMNtNtNtCs9VsQExrgwtF_4wami7service11credentials18server_certificateINtB6_24ServerCertificateServiceNtNtNtNtBc_5store6memory4wami17InMemoryWamiStoreE25upload_server_certificate00Bc_
FNDA:2,_RNCNvMNtNtNtCs9VsQExrgwtF_4wami7service11credentials18server_certificateINtB4_24ServerCertificateServiceNtNtNtNtBa_5store6memory4wami17InMemoryWamiStoreE22get_server_certificate0Ba_
FNDA:1,_RNCNvMNtNtNtCs9VsQExrgwtF_4wami7service11credentials18server_certificateINtB4_24ServerCertificateServiceNtNtNtNtBa_5store6memory4wami17InMemoryWamiStoreE24list_server_certificates0Ba_
FNDA:1,_RNCNvMNtNtNtCs9VsQExrgwtF_4wami7service11credentials18server_certificateINtB4_24ServerCertificateServiceNtNtNtNtBa_5store6memory4wami17InMemoryWamiStoreE25delete_server_certificate0Ba_
FNDA:5,_RNCNvMNtNtNtCs9VsQExrgwtF_4wami7service11credentials18server_certificateINtB4_24ServerCertificateServiceNtNtNtNtBa_5store6memory4wami17InMemoryWamiStoreE25upload_server_certificate0Ba_
FNDA:2,_RNvMNtNtNtCs9VsQExrgwtF_4wami7service11credentials18server_certificateINtB2_24ServerCertificateServiceNtNtNtNtB8_5store6memory4wami17InMemoryWamiStoreE22get_server_certificateB8_
FNDA:1,_RNvMNtNtNtCs9VsQExrgwtF_4wami7service11credentials18server_certificateINtB2_24ServerCertificateServiceNtNtNtNtB8_5store6memory4wami17InMemoryWamiStoreE24list_server_certificatesB8_
FNDA:1,_RNvMNtNtNtCs9VsQExrgwtF_4wami7service11credentials18server_certificateINtB2_24ServerCertificateServiceNtNtNtNtB8_5store6memory4wami17InMemoryWamiStoreE25delete_server_certificateB8_
FNDA:5,_RNvMNtNtNtCs9VsQExrgwtF_4wami7service11credentials18server_certificateINtB2_24ServerCertificateServiceNtNtNtNtB8_5store6memory4wami17InMemoryWamiStoreE25upload_server_certificateB8_
FNDA:3,_RNvMNtNtNtCs9VsQExrgwtF_4wami7service11credentials18server_certificateINtB2_24ServerCertificateServiceNtNtNtNtB8_5store6memory4wami17InMemoryWamiStoreE3newB8_
FNDA:1,_RNCNvNtNtNtNtCs9VsQExrgwtF_4wami7service11credentials18server_certificate5testss_29test_list_server_certificates0Bb_
FNDA:1,_RNCNvNtNtNtNtCs9VsQExrgwtF_4wami7service11credentials18server_certificate5testss_30test_delete_server_certificate0Bb_
FNDA:1,_RNCNvNtNtNtNtCs9VsQExrgwtF_4wami7service11credentials18server_certificate5testss_38test_upload_and_get_server_certificate0Bb_
FNF:21
FNH:18
DA:24,3
DA:25,3
DA:26,3
DA:29,5
DA:30,5
DA:31,5
DA:32,5
DA:33,5
DA:35,5
DA:36,5
DA:37,5
DA:38,5
DA:39,5
DA:40,5
DA:41,5
DA:42,0
DA:45,5
DA:46,5
DA:47,5
DA:48,5
DA:49,5
DA:50,5
DA:53,2
DA:54,2
DA:55,2
DA:56,2
DA:57,2
DA:58,2
DA:59,2
DA:60,2
DA:61,2
DA:62,2
DA:65,0
DA:66,0
DA:67,0
DA:68,0
DA:70,0
DA:71,0
DA:72,0
DA:73,0
DA:74,0
DA:75,0
DA:76,0
DA:77,0
DA:78,0
DA:81,0
DA:82,0
DA:83,0
DA:85,0
DA:86,0
DA:87,0
DA:90,0
DA:91,0
DA:92,0
DA:93,0
DA:94,0
DA:95,0
DA:98,1
DA:99,1
DA:100,1
DA:101,1
DA:102,1
DA:103,1
DA:104,1
DA:107,1
DA:108,1
DA:109,1
DA:110,1
DA:111,1
DA:112,0
DA:113,0
DA:114,0
DA:115,0
DA:117,1
DA:120,1
DA:121,1
DA:122,1
DA:123,1
DA:124,1
DA:125,1
DA:133,3
DA:134,3
DA:135,3
DA:136,3
DA:138,3
DA:140,3
DA:141,3
DA:142,3
DA:143,3
DA:144,3
DA:145,3
DA:146,3
DA:147,3
DA:148,3
DA:149,3
DA:150,3
DA:152,3
DA:153,3
DA:154,3
DA:155,3
DA:158,1
DA:159,1
DA:160,1
DA:162,1
DA:163,1
DA:164,1
DA:165,1
DA:166,1
DA:167,1
DA:168,1
DA:169,1
DA:170,1
DA:171,1
DA:173,1
DA:174,1
DA:175,1
DA:176,1
DA:177,1
DA:178,1
DA:180,1
DA:181,1
DA:182,1
DA:183,1
DA:186,1
DA:187,1
DA:188,1
DA:190,1
DA:191,1
DA:192,1
DA:193,1
DA:194,1
DA:195,1
DA:196,1
DA:197,1
DA:198,1
DA:199,1
DA:200,1
DA:201,1
DA:202,1
DA:203,1
DA:205,1
DA:206,1
DA:207,1
DA:208,1
DA:210,1
DA:211,1
DA:212,1
DA:215,1
DA:216,1
DA:217,1
DA:220,4
DA:221,3
DA:222,3
DA:223,3
DA:224,3
DA:225,3
DA:226,3
DA:227,3
DA:228,3
DA:229,3
DA:230,3
DA:231,3
DA:232,3
DA:233,3
DA:234,3
DA:237,1
DA:238,1
DA:239,1
DA:240,1
DA:241,1
DA:242,1
DA:243,1
DA:244,1
DA:245,1
DA:246,1
DA:247,1
BRF:0
BRH:0
LF:189
LH:157
end_of_record
SF:/Users/lsh/projects/crates/wami/src/service/credentials/service_credential.rs
FN:223,_RNCNvNtNtNtNtCs9VsQExrgwtF_4wami7service11credentials18service_credential5testss_29test_list_service_credentials0Bb_
FN:193,_RNCNvNtNtNtNtCs9VsQExrgwtF_4wami7service11credentials18service_credential5testss_30test_delete_service_credential0Bb_
FN:167,_RNCNvNtNtNtNtCs9VsQExrgwtF_4wami7service11credentials18service_credential5testss_37test_update_service_credential_status0Bb_
FN:142,_RNCNvNtNtNtNtCs9VsQExrgwtF_4wami7service11credentials18service_credential5testss_38test_create_and_get_service_credential0Bb_
FN:74,_RNCNCNvMNtNtNtCs9VsQExrgwtF_4wami7service11credentials18service_credentialINtB6_24ServiceCredentialServiceNtNtNtNtBc_5store6memory4wami17InMemoryWamiStoreE34update_service_specific_credential00Bc_
FN:53,_RNCNvMNtNtNtCs9VsQExrgwtF_4wami7service11credentials18service_credentialINtB4_24ServiceCredentialServiceNtNtNtNtBa_5store6memory4wami17InMemoryWamiStoreE31get_service_specific_credential0Ba_
FN:107,_RNCNvMNtNtNtCs9VsQExrgwtF_4wami7service11credentials18service_credentialINtB4_24ServiceCredentialServiceNtNtNtNtBa_5store6memory4wami17InMemoryWamiStoreE33list_service_specific_credentials0Ba_
FN:33,_RNCNvMNtNtNtCs9VsQExrgwtF_4wami7service11credentials18service_credentialINtB4_24ServiceCredentialServiceNtNtNtNtBa_5store6memory4wami17InMemoryWamiStoreE34create_service_specific_credential0Ba_
FN:95,_RNCNvMNtNtNtCs9VsQExrgwtF_4wami7service11credentials18service_credentialINtB4_24ServiceCredentialServiceNtNtNtNtBa_5store6memory4wami17InMemoryWamiStoreE34delete_service_specific_credential0Ba_
FN:65,_RNCNvMNtNtNtCs9VsQExrgwtF_4wami7service11credentials18service_credentialINtB4_24ServiceCredentialServiceNtNtNtNtBa_5store6memory4wami17InMemoryWamiStoreE34update_service_specific_credential0Ba_
FN:50,_RNvMNtNtNtCs9VsQExrgwtF_4wami7service11credentials18service_credentialINtB2_24ServiceCredentialServiceNtNtNtNtB8_5store6memory4wami17InMemoryWamiStoreE31get_service_specific_credentialB8_
FN:104,_RNvMNtNtNtCs9VsQExrgwtF_4wami7service11credentials18service_credentialINtB2_24ServiceCredentialServiceNtNtNtNtB8_5store6memory4wami17InMemoryWamiStoreE33list_service_specific_credentialsB8_
FN:29,_RNvMNtNtNtCs9VsQExrgwtF_4wami7service11credentials18service_credentialINtB2_24ServiceCredentialServiceNtNtNtNtB8_5store6memory4wami17InMemoryWamiStoreE34create_service_specific_credentialB8_
FN:92,_RNvMNtNtNtCs9VsQExrgwtF_4wami7service11credentials18service_credentialINtB2_24ServiceCredentialServiceNtNtNtNtB8_5store6memory4wami17InMemoryWamiStoreE34delete_service_specific_credentialB8_
FN:62,_RNvMNtNtNtCs9VsQExrgwtF_4wami7service11credentials18service_credentialINtB2_24ServiceCredentialServiceNtNtNtNtB8_5store6memory4wami17InMemoryWamiStoreE34update_service_specific_credentialB8_
FN:24,_RNvMNtNtNtCs9VsQExrgwtF_4wami7service11credentials18service_credentialINtB2_24ServiceCredentialServiceNtNtNtNtB8_5store6memory4wami17InMemoryWamiStoreE3newB8_
FN:128,_RNvNtNtNtNtCs9VsQExrgwtF_4wami7service11credentials18service_credential5tests12test_context
FN:123,_RNvNtNtNtNtCs9VsQExrgwtF_4wami7service11credentials18service_credential5tests13setup_service
FN:223,_RNvNtNtNtNtCs9VsQExrgwtF_4wami7service11credentials18service_credential5testss_29test_list_service_credentials
FN:193,_RNvNtNtNtNtCs9VsQExrgwtF_4wami7service11credentials18service_credential5testss_30test_delete_service_credential
FN:167,_RNvNtNtNtNtCs9VsQExrgwtF_4wami7service11credentials18service_credential5testss_37test_update_service_credential_status
FN:142,_RNvNtNtNtNtCs9VsQExrgwtF_4wami7service11credentials18service_credential5testss_38test_create_and_get_service_credential
FNDA:1,_RNCNvNtNtNtNtCs9VsQExrgwtF_4wami7service11credentials18service_credential5testss_29test_list_service_credentials0Bb_
FNDA:1,_RNCNvNtNtNtNtCs9VsQExrgwtF_4wami7service11credentials18service_credential5testss_30test_delete_service_credential0Bb_
FNDA:1,_RNCNvNtNtNtNtCs9VsQExrgwtF_4wami7service11credentials18service_credential5testss_37test_update_service_credential_status0Bb_
FNDA:1,_RNCNvNtNtNtNtCs9VsQExrgwtF_4wami7service11credentials18service_credential5testss_38test_create_and_get_service_credential0Bb_
FNDA:0,_RNCNCNvMNtNtNtCs9VsQExrgwtF_4wami7service11credentials18service_credentialINtB6_24ServiceCredentialServiceNtNtNtNtBc_5store6memory4wami17InMemoryWamiStoreE34update_service_specific_credential00Bc_
FNDA:2,_RNCNvMNtNtNtCs9VsQExrgwtF_4wami7service11credentials18service_credentialINtB4_24ServiceCredentialServiceNtNtNtNtBa_5store6memory4wami17InMemoryWamiStoreE31get_service_specific_credential0Ba_
FNDA:1,_RNCNvMNtNtNtCs9VsQExrgwtF_4wami7service11credentials18service_credentialINtB4_24ServiceCredentialServiceNtNtNtNtBa_5store6memory4wami17InMemoryWamiStoreE33list_service_specific_credentials0Ba_
FNDA:6,_RNCNvMNtNtNtCs9VsQExrgwtF_4wami7service11credentials18service_credentialINtB4_24ServiceCredentialServiceNtNtNtNtBa_5store6memory4wami17InMemoryWamiStoreE34create_service_specific_credential0Ba_
FNDA:1,_RNCNvMNtNtNtCs9VsQExrgwtF_4wami7service11credentials18service_credentialINtB4_24ServiceCredentialServiceNtNtNtNtBa_5store6memory4wami17InMemoryWamiStoreE34delete_service_specific_credential0Ba_
FNDA:1,_RNCNvMNtNtNtCs9VsQExrgwtF_4wami7service11credentials18service_credentialINtB4_24ServiceCredentialServiceNtNtNtNtBa_5store6memory4wami17InMemoryWamiStoreE34update_service_specific_credential0Ba_
FNDA:2,_RNvMNtNtNtCs9VsQExrgwtF_4wami7service11credentials18service_credentialINtB2_24ServiceCredentialServiceNtNtNtNtB8_5store6memory4wami17InMemoryWamiStoreE31get_service_specific_credentialB8_
FNDA:1,_RNvMNtNtNtCs9VsQExrgwtF_4wami7service11credentials18service_credentialINtB2_24ServiceCredentialServiceNtNtNtNtB8_5store6memory4wami17InMemoryWamiStoreE33list_service_specific_credentialsB8_
FNDA:6,_RNvMNtNtNtCs9VsQExrgwtF_4wami7service11credentials18service_credentialINtB2_24ServiceCredentialServiceNtNtNtNtB8_5store6memory4wami17InMemoryWamiStoreE34create_service_specific_credentialB8_
FNDA:1,_RNvMNtNtNtCs9VsQExrgwtF_4wami7service11credentials18service_credentialINtB2_24ServiceCredentialServiceNtNtNtNtB8_5store6memory4wami17InMemoryWamiStoreE34delete_service_specific_credentialB8_
FNDA:1,_RNvMNtNtNtCs9VsQExrgwtF_4wami7service11credentials18service_credentialINtB2_24ServiceCredentialServiceNtNtNtNtB8_5store6memory4wami17InMemoryWamiStoreE34update_service_specific_credentialB8_
FNDA:4,_RNvMNtNtNtCs9VsQExrgwtF_4wami7service11credentials18service_credentialINtB2_24ServiceCredentialServiceNtNtNtNtB8_5store6memory4wami17InMemoryWamiStoreE3newB8_
FNDA:4,_RNvNtNtNtNtCs9VsQExrgwtF_4wami7service11credentials18service_credential5tests12test_context
FNDA:4,_RNvNtNtNtNtCs9VsQExrgwtF_4wami7service11credentials18service_credential5tests13setup_service
FNDA:1,_RNvNtNtNtNtCs9VsQExrgwtF_4wami7service11credentials18service_credential5testss_29test_list_service_credentials
FNDA:1,_RNvNtNtNtNtCs9VsQExrgwtF_4wami7service11credentials18service_credential5testss_30test_delete_service_credential
FNDA:1,_RNvNtNtNtNtCs9VsQExrgwtF_4wami7service11credentials18service_credential5testss_37test_update_service_credential_status
FNDA:1,_RNvNtNtNtNtCs9VsQExrgwtF_4wami7service11credentials18service_credential5testss_38test_create_and_get_service_credential
FNF:22
FNH:21
DA:24,4
DA:25,4
DA:26,4
DA:29,6
DA:30,6
DA:31,6
DA:32,6
DA:33,6
DA:35,6
DA:36,6
DA:37,6
DA:38,6
DA:39,0
DA:42,6
DA:43,6
DA:44,6
DA:45,6
DA:46,6
DA:47,6
DA:50,2
DA:51,2
DA:52,2
DA:53,2
DA:54,2
DA:55,2
DA:56,2
DA:57,2
DA:58,2
DA:59,2
DA:62,1
DA:63,1
DA:64,1
DA:65,1
DA:67,1
DA:68,1
DA:69,1
DA:70,1
DA:71,1
DA:72,1
DA:73,1
DA:74,0
DA:75,0
DA:78,0
DA:81,1
DA:84,1
DA:85,1
DA:86,1
DA:87,1
DA:88,1
DA:89,1
DA:92,1
DA:93,1
DA:94,1
DA:95,1
DA:96,1
DA:97,1
DA:98,1
DA:99,1
DA:100,1
DA:101,1
DA:104,1
DA:105,1
DA:106,1
DA:107,1
DA:108,1
DA:109,1
DA:110,1
DA:111,1
DA:112,1
DA:113,1
DA:114,1
DA:123,4
DA:124,4
DA:125,4
DA:126,4
DA:128,4
DA:129,4
DA:130,4
DA:131,4
DA:132,4
DA:133,4
DA:134,4
DA:135,4
DA:136,4
DA:137,4
DA:138,4
DA:139,4
DA:142,1
DA:143,1
DA:145,1
DA:146,1
DA:147,1
DA:148,1
DA:150,1
DA:151,1
DA:152,1
DA:153,1
DA:154,1
DA:155,1
DA:156,1
DA:158,1
DA:159,1
DA:160,1
DA:161,1
DA:162,1
DA:163,1
DA:164,1
DA:167,1
DA:168,1
DA:170,1
DA:171,1
DA:172,1
DA:173,1
DA:174,1
DA:175,1
DA:176,1
DA:177,1
DA:178,1
DA:180,1
DA:181,1
DA:182,1
DA:183,1
DA:184,1
DA:185,1
DA:186,1
DA:187,1
DA:188,1
DA:189,1
DA:190,1
DA:193,1
DA:194,1
DA:196,1
DA:197,1
DA:198,1
DA:199,1
DA:200,1
DA:201,1
DA:202,1
DA:203,1
DA:204,1
DA:206,1
DA:207,1
DA:208,1
DA:209,1
DA:210,1
DA:211,1
DA:212,1
DA:213,1
DA:215,1
DA:216,1
DA:217,1
DA:218,1
DA:219,1
DA:220,1
DA:223,1
DA:224,1
DA:227,1
DA:228,4
DA:229,3
DA:230,3
DA:231,3
DA:232,3
DA:233,3
DA:234,3
DA:235,3
DA:236,3
DA:239,1
DA:240,1
DA:241,1
DA:242,1
DA:243,1
DA:244,1
DA:245,1
DA:246,1
DA:247,1
DA:248,1
BRF:0
BRH:0
LF:190
LH:185
end_of_record
SF:/Users/lsh/projects/crates/wami/src/service/credentials/signing_certificate.rs
FN:227,_RNCNvNtNtNtNtCs9VsQExrgwtF_4wami7service11credentials19signing_certificate5testss_30test_list_signing_certificates0Bb_
FN:196,_RNCNvNtNtNtNtCs9VsQExrgwtF_4wami7service11credentials19signing_certificate5testss_31test_delete_signing_certificate0Bb_
FN:169,_RNCNvNtNtNtNtCs9VsQExrgwtF_4wami7service11credentials19signing_certificate5testss_38test_update_signing_certificate_status0Bb_
FN:143,_RNCNvNtNtNtNtCs9VsQExrgwtF_4wami7service11credentials19signing_certificate5testss_39test_upload_and_get_signing_certificate0Bb_
FN:73,_RNCNCNvMNtNtNtCs9VsQExrgwtF_4wami7service11credentials19signing_certificateINtB6_25SigningCertificateServiceNtNtNtNtBc_5store6memory4wami17InMemoryWamiStoreE26update_signing_certificate00Bc_
FN:52,_RNCNvMNtNtNtCs9VsQExrgwtF_4wami7service11credentials19signing_certificateINtB4_25SigningCertificateServiceNtNtNtNtBa_5store6memory4wami17InMemoryWamiStoreE23get_signing_certificate0Ba_
FN:103,_RNCNvMNtNtNtCs9VsQExrgwtF_4wami7service11credentials19signing_certificateINtB4_25SigningCertificateServiceNtNtNtNtBa_5store6memory4wami17InMemoryWamiStoreE25list_signing_certificates0Ba_
FN:91,_RNCNvMNtNtNtCs9VsQExrgwtF_4wami7service11credentials19signing_certificateINtB4_25SigningCertificateServiceNtNtNtNtBa_5store6memory4wami17InMemoryWamiStoreE26delete_signing_certificate0Ba_
FN:64,_RNCNvMNtNtNtCs9VsQExrgwtF_4wami7service11credentials19signing_certificateINtB4_25SigningCertificateServiceNtNtNtNtBa_5store6memory4wami17InMemoryWamiStoreE26update_signing_certificate0Ba_
FN:32,_RNCNvMNtNtNtCs9VsQExrgwtF_4wami7service11credentials19signing_certificateINtB4_25SigningCertificateServiceNtNtNtNtBa_5store6memory4wami17InMemoryWamiStoreE26upload_signing_certificate0Ba_
FN:49,_RNvMNtNtNtCs9VsQExrgwtF_4wami7service11credentials19signing_certificateINtB2_25SigningCertificateServiceNtNtNtNtB8_5store6memory4wami17InMemoryWamiStoreE23get_signing_certificateB8_
FN:100,_RNvMNtNtNtCs9VsQExrgwtF_4wami7service11credentials19signing_certificateINtB2_25SigningCertificateServiceNtNtNtNtB8_5store6memory4wami17InMemoryWamiStoreE25list_signing_certificatesB8_
FN:88,_RNvMNtNtNtCs9VsQExrgwtF_4wami7service11credentials19signing_certificateINtB2_25SigningCertificateServiceNtNtNtNtB8_5store6memory4wami17InMemoryWamiStoreE26delete_signing_certificateB8_
FN:61,_RNvMNtNtNtCs9VsQExrgwtF_4wami7service11credentials19signing_certificateINtB2_25SigningCertificateServiceNtNtNtNtB8_5store6memory4wami17InMemoryWamiStoreE26update_signing_certificateB8_
FN:28,_RNvMNtNtNtCs9VsQExrgwtF_4wami7service11credentials19signing_certificateINtB2_25SigningCertificateServiceNtNtNtNtB8_5store6memory4wami17InMemoryWamiStoreE26upload_signing_certificateB8_
FN:23,_RNvMNtNtNtCs9VsQExrgwtF_4wami7service11credentials19signing_certificateINtB2_25SigningCertificateServiceNtNtNtNtB8_5store6memory4wami17InMemoryWamiStoreE3newB8_
FN:123,_RNvNtNtNtNtCs9VsQExrgwtF_4wami7service11credentials19signing_certificate5tests12test_context
FN:118,_RNvNtNtNtNtCs9VsQExrgwtF_4wami7service11credentials19signing_certificate5tests13setup_service
FN:227,_RNvNtNtNtNtCs9VsQExrgwtF_4wami7service11credentials19signing_certificate5testss_30test_list_signing_certificates
FN:196,_RNvNtNtNtNtCs9VsQExrgwtF_4wami7service11credentials19signing_certificate5testss_31test_delete_signing_certificate
FN:169,_RNvNtNtNtNtCs9VsQExrgwtF_4wami7service11credentials19signing_certificate5testss_38test_update_signing_certificate_status
FN:143,_RNvNtNtNtNtCs9VsQExrgwtF_4wami7service11credentials19signing_certificate5testss_39test_upload_and_get_signing_certificate
FNDA:1,_RNCNvNtNtNtNtCs9VsQExrgwtF_4wami7service11credentials19signing_certificate5testss_30test_list_signing_certificates0Bb_
FNDA:1,_RNCNvNtNtNtNtCs9VsQExrgwtF_4wami7service11credentials19signing_certificate5testss_31test_delete_signing_certificate0Bb_
FNDA:1,_RNCNvNtNtNtNtCs9VsQExrgwtF_4wami7service11credentials19signing_certificate5testss_38test_update_signing_certificate_status0Bb_
FNDA:1,_RNCNvNtNtNtNtCs9VsQExrgwtF_4wami7service11credentials19signing_certificate5testss_39test_upload_and_get_signing_certificate0Bb_
FNDA:0,_RNCNCNvMNtNtNtCs9VsQExrgwtF_4wami7service11credentials19signing_certificateINtB6_25SigningCertificateServiceNtNtNtNtBc_5store6memory4wami17InMemoryWamiStoreE26update_signing_certificate00Bc_
FNDA:2,_RNCNvMNtNtNtCs9VsQExrgwtF_4wami7service11credentials19signing_certificateINtB4_25SigningCertificateServiceNtNtNtNtBa_5store6memory4wami17InMemoryWamiStoreE23get_signing_certificate0Ba_
FNDA:1,_RNCNvMNtNtNtCs9VsQExrgwtF_4wami7service11credentials19signing_certificateINtB4_25SigningCertificateServiceNtNtNtNtBa_5store6memory4wami17InMemoryWamiStoreE25list_signing_certificates0Ba_
FNDA:1,_RNCNvMNtNtNtCs9VsQExrgwtF_4wami7service11credentials19signing_certificateINtB4_25SigningCertificateServiceNtNtNtNtBa_5store6memory4wami17InMemoryWamiStoreE26delete_signing_certificate0Ba_
FNDA:1,_RNCNvMNtNtNtCs9VsQExrgwtF_4wami7service11credentials19signing_certificateINtB4_25SigningCertificateServiceNtNtNtNtBa_5store6memory4wami17InMemoryWamiStoreE26update_signing_certificate0Ba_
FNDA:6,_RNCNvMNtNtNtCs9VsQExrgwtF_4wami7service11credentials19signing_certificateINtB4_25SigningCertificateServiceNtNtNtNtBa_5store6memory4wami17InMemoryWamiStoreE26upload_signing_certificate0Ba_
FNDA:2,_RNvMNtNtNtCs9VsQExrgwtF_4wami7service11credentials19signing_certificateINtB2_25SigningCertificateServiceNtNtNtNtB8_5store6memory4wami17InMemoryWamiStoreE23get_signing_certificateB8_
FNDA:1,_RNvMNtNtNtCs9VsQExrgwtF_4wami7service11credentials19signing_certificateINtB2_25SigningCertificateServiceNtNtNtNtB8_5store6memory4wami17InMemoryWamiStoreE25list_signing_certificatesB8_
FNDA:1,_RNvMNtNtNtCs9VsQExrgwtF_4wami7service11credentials19signing_certificateINtB2_25SigningCertificateServiceNtNtNtNtB8_5store6memory4wami17InMemoryWamiStoreE26delete_signing_certificateB8_
FNDA:1,_RNvMNtNtNtCs9VsQExrgwtF_4wami7service11credentials19signing_certificateINtB2_25SigningCertificateServiceNtNtNtNtB8_5store6memory4wami17InMemoryWamiStoreE26update_signing_certificateB8_
FNDA:6,_RNvMNtNtNtCs9VsQExrgwtF_4wami7service11credentials19signing_certificateINtB2_25SigningCertificateServiceNtNtNtNtB8_5store6memory4wami17InMemoryWamiStoreE26upload_signing_certificateB8_
FNDA:4,_RNvMNtNtNtCs9VsQExrgwtF_4wami7service11credentials19signing_certificateINtB2_25SigningCertificateServiceNtNtNtNtB8_5store6memory4wami17InMemoryWamiStoreE3newB8_
FNDA:4,_RNvNtNtNtNtCs9VsQExrgwtF_4wami7service11credentials19signing_certificate5tests12test_context
FNDA:4,_RNvNtNtNtNtCs9VsQExrgwtF_4wami7service11credentials19signing_certificate5tests13setup_service
FNDA:1,_RNvNtNtNtNtCs9VsQExrgwtF_4wami7service11credentials19signing_certificate5testss_30test_list_signing_certificates
FNDA:1,_RNvNtNtNtNtCs9VsQExrgwtF_4wami7service11credentials19signing_certificate5testss_31test_delete_signing_certificate
FNDA:1,_RNvNtNtNtNtCs9VsQExrgwtF_4wami7service11credentials19signing_certificate5testss_38test_update_signing_certificate_status
FNDA:1,_RNvNtNtNtNtCs9VsQExrgwtF_4wami7service11credentials19signing_certificate5testss_39test_upload_and_get_signing_certificate
FNF:22
FNH:21
DA:23,4
DA:24,4
DA:25,4
DA:28,6
DA:29,6
DA:30,6
DA:31,6
DA:32,6
DA:34,6
DA:35,6
DA:36,6
DA:37,6
DA:38,0
DA:41,6
DA:42,6
DA:43,6
DA:44,6
DA:45,6
DA:46,6
DA:49,2
DA:50,2
DA:51,2
DA:52,2
DA:53,2
DA:54,2
DA:55,2
DA:56,2
DA:57,2
DA:58,2
DA:61,1
DA:62,1
DA:63,1
DA:64,1
DA:66,1
DA:67,1
DA:68,1
DA:69,1
DA:70,1
DA:71,1
DA:72,1
DA:73,0
DA:74,0
DA:77,1
DA:80,1
DA:81,1
DA:82,1
DA:83,1
DA:84,1
DA:85,1
DA:88,1
DA:89,1
DA:90,1
DA:91,1
DA:92,1
DA:93,1
DA:94,1
DA:95,1
DA:96,1
DA:97,1
DA:100,1
DA:101,1
DA:102,1
DA:103,1
DA:104,1
DA:105,1
DA:106,1
DA:107,1
DA:108,1
DA:109,1
DA:118,4
DA:119,4
DA:120,4
DA:121,4
DA:123,4
DA:125,4
DA:126,4
DA:127,4
DA:128,4
DA:129,4
DA:130,4
DA:131,4
DA:132,4
DA:133,4
DA:134,4
DA:135,4
DA:137,4
DA:138,4
DA:139,4
DA:140,4
DA:143,1
DA:144,1
DA:145,1
DA:147,1
DA:148,1
DA:149,1
DA:150,1
DA:151,1
DA:153,1
DA:154,1
DA:155,1
DA:156,1
DA:157,1
DA:158,1
DA:160,1
DA:161,1
DA:162,1
DA:163,1
DA:164,1
DA:165,1
DA:166,1
DA:169,1
DA:170,1
DA:171,1
DA:173,1
DA:174,1
DA:175,1
DA:176,1
DA:177,1
DA:178,1
DA:179,1
DA:180,1
DA:181,1
DA:183,1
DA:184,1
DA:185,1
DA:186,1
DA:187,1
DA:188,1
DA:189,1
DA:190,1
DA:191,1
DA:192,1
DA:193,1
DA:196,1
DA:197,1
DA:198,1
DA:200,1
DA:201,1
DA:202,1
DA:203,1
DA:204,1
DA:205,1
DA:206,1
DA:207,1
DA:208,1
DA:210,1
DA:211,1
DA:212,1
DA:213,1
DA:214,1
DA:215,1
DA:216,1
DA:217,1
DA:219,1
DA:220,1
DA:221,1
DA:222,1
DA:223,1
DA:224,1
DA:227,1
DA:228,1
DA:229,1
DA:232,4
DA:233,3
DA:234,3
DA:235,3
DA:236,3
DA:237,3
DA:238,3
DA:239,3
DA:240,3
DA:241,3
DA:244,1
DA:245,1
DA:246,1
DA:247,1
DA:248,1
DA:249,1
DA:250,1
DA:251,1
DA:252,1
BRF:0
BRH:0
LF:195
LH:191
end_of_record
SF:/Users/lsh/projects/crates/wami/src/service/identity/group.rs
FN:54,_RNCNCNvMNtNtNtCs9VsQExrgwtF_4wami7service8identity5groupINtB6_12GroupServiceNtNtNtNtBc_5store6memory4wami17InMemoryWamiStoreE12update_group00Bc_
FN:79,_RNCNvMNtNtNtCs9VsQExrgwtF_4wami7service8identity5groupINtB4_12GroupServiceNtNtNtNtBa_5store6memory4wami17InMemoryWamiStoreE11list_groups0Ba_
FN:31,_RNCNvMNtNtNtCs9VsQExrgwtF_4wami7service8identity5groupINtB4_12GroupServiceNtNtNtNtBa_5store6memory4wami17InMemoryWamiStoreE12create_group0Ba_
FN:71,_RNCNvMNtNtNtCs9VsQExrgwtF_4wami7service8identity5groupINtB4_12GroupServiceNtNtNtNtBa_5store6memory4wami17InMemoryWamiStoreE12delete_group0Ba_
FN:45,_RNCNvMNtNtNtCs9VsQExrgwtF_4wami7service8identity5groupINtB4_12GroupServiceNtNtNtNtBa_5store6memory4wami17InMemoryWamiStoreE12update_group0Ba_
FN:88,_RNCNvMNtNtNtCs9VsQExrgwtF_4wami7service8identity5groupINtB4_12GroupServiceNtNtNtNtBa_5store6memory4wami17InMemoryWamiStoreE17add_user_to_group0Ba_
FN:106,_RNCNvMNtNtNtCs9VsQExrgwtF_4wami7service8identity5groupINtB4_12GroupServiceNtNtNtNtBa_5store6memory4wami17InMemoryWamiStoreE20list_groups_for_user0Ba_
FN:97,_RNCNvMNtNtNtCs9VsQExrgwtF_4wami7service8identity5groupINtB4_12GroupServiceNtNtNtNtBa_5store6memory4wami17InMemoryWamiStoreE22remove_user_from_group0Ba_
FN:40,_RNCNvMNtNtNtCs9VsQExrgwtF_4wami7service8identity5groupINtB4_12GroupServiceNtNtNtNtBa_5store6memory4wami17InMemoryWamiStoreE9get_group0Ba_
FN:76,_RNvMNtNtNtCs9VsQExrgwtF_4wami7service8identity5groupINtB2_12GroupServiceNtNtNtNtB8_5store6memory4wami17InMemoryWamiStoreE11list_groupsB8_
FN:27,_RNvMNtNtNtCs9VsQExrgwtF_4wami7service8identity5groupINtB2_12GroupServiceNtNtNtNtB8_5store6memory4wami17InMemoryWamiStoreE12create_groupB8_
FN:71,_RNvMNtNtNtCs9VsQExrgwtF_4wami7service8identity5groupINtB2_12GroupServiceNtNtNtNtB8_5store6memory4wami17InMemoryWamiStoreE12delete_groupB8_
FN:45,_RNvMNtNtNtCs9VsQExrgwtF_4wami7service8identity5groupINtB2_12GroupServiceNtNtNtNtB8_5store6memory4wami17InMemoryWamiStoreE12update_groupB8_
FN:88,_RNvMNtNtNtCs9VsQExrgwtF_4wami7service8identity5groupINtB2_12GroupServiceNtNtNtNtB8_5store6memory4wami17InMemoryWamiStoreE17add_user_to_groupB8_
FN:106,_RNvMNtNtNtCs9VsQExrgwtF_4wami7service8identity5groupINtB2_12GroupServiceNtNtNtNtB8_5store6memory4wami17InMemoryWamiStoreE20list_groups_for_userB8_
FN:97,_RNvMNtNtNtCs9VsQExrgwtF_4wami7service8identity5groupINtB2_12GroupServiceNtNtNtNtB8_5store6memory4wami17InMemoryWamiStoreE22remove_user_from_groupB8_
FN:22,_RNvMNtNtNtCs9VsQExrgwtF_4wami7service8identity5groupINtB2_12GroupServiceNtNtNtNtB8_5store6memory4wami17InMemoryWamiStoreE3newB8_
FN:40,_RNvMNtNtNtCs9VsQExrgwtF_4wami7service8identity5groupINtB2_12GroupServiceNtNtNtNtB8_5store6memory4wami17InMemoryWamiStoreE9get_groupB8_
FN:129,_RNvNtNtNtNtCs9VsQExrgwtF_4wami7service8identity5group5tests12test_context
FN:124,_RNvNtNtNtNtCs9VsQExrgwtF_4wami7service8identity5group5tests13setup_service
FN:208,_RNvNtNtNtNtCs9VsQExrgwtF_4wami7service8identity5group5testss_16test_list_groups
FN:190,_RNvNtNtNtNtCs9VsQExrgwtF_4wami7service8identity5group5testss_17test_delete_group
FN:163,_RNvNtNtNtNtCs9VsQExrgwtF_4wami7service8identity5group5testss_17test_update_group
FN:231,_RNvNtNtNtNtCs9VsQExrgwtF_4wami7service8identity5group5testss_21test_group_membership
FN:143,_RNvNtNtNtNtCs9VsQExrgwtF_4wami7service8identity5group5testss_25test_create_and_get_group
FN:208,_RNCNvNtNtNtNtCs9VsQExrgwtF_4wami7service8identity5group5testss_16test_list_groups0Bb_
FN:190,_RNCNvNtNtNtNtCs9VsQExrgwtF_4wami7service8identity5group5testss_17test_delete_group0Bb_
FN:163,_RNCNvNtNtNtNtCs9VsQExrgwtF_4wami7service8identity5group5testss_17test_update_group0Bb_
FN:231,_RNCNvNtNtNtNtCs9VsQExrgwtF_4wami7service8identity5group5testss_21test_group_membership0Bb_
FN:143,_RNCNvNtNtNtNtCs9VsQExrgwtF_4wami7service8identity5group5testss_25test_create_and_get_group0Bb_
FNDA:0,_RNCNCNvMNtNtNtCs9VsQExrgwtF_4wami7service8identity5groupINtB6_12GroupServiceNtNtNtNtBc_5store6memory4wami17InMemoryWamiStoreE12update_group00Bc_
FNDA:1,_RNCNvMNtNtNtCs9VsQExrgwtF_4wami7service8identity5groupINtB4_12GroupServiceNtNtNtNtBa_5store6memory4wami17InMemoryWamiStoreE11list_groups0Ba_
FNDA:7,_RNCNvMNtNtNtCs9VsQExrgwtF_4wami7service8identity5groupINtB4_12GroupServiceNtNtNtNtBa_5store6memory4wami17InMemoryWamiStoreE12create_group0Ba_
FNDA:1,_RNCNvMNtNtNtCs9VsQExrgwtF_4wami7service8identity5groupINtB4_12GroupServiceNtNtNtNtBa_5store6memory4wami17InMemoryWamiStoreE12delete_group0Ba_
FNDA:1,_RNCNvMNtNtNtCs9VsQExrgwtF_4wami7service8identity5groupINtB4_12GroupServiceNtNtNtNtBa_5store6memory4wami17InMemoryWamiStoreE12update_group0Ba_
FNDA:1,_RNCNvMNtNtNtCs9VsQExrgwtF_4wami7service8identity5groupINtB4_12GroupServiceNtNtNtNtBa_5store6memory4wami17InMemoryWamiStoreE17add_user_to_group0Ba_
FNDA:2,_RNCNvMNtNtNtCs9VsQExrgwtF_4wami7service8identity5groupINtB4_12GroupServiceNtNtNtNtBa_5store6memory4wami17InMemoryWamiStoreE20list_groups_for_user0Ba_
FNDA:1,_RNCNvMNtNtNtCs9VsQExrgwtF_4wami7service8identity5groupINtB4_12GroupServiceNtNtNtNtBa_5store6memory4wami17InMemoryWamiStoreE22remove_user_from_group0Ba_
FNDA:2,_RNCNvMNtNtNtCs9VsQExrgwtF_4wami7service8identity5groupINtB4_12GroupServiceNtNtNtNtBa_5store6memory4wami17InMemoryWamiStoreE9get_group0Ba_
FNDA:1,_RNvMNtNtNtCs9VsQExrgwtF_4wami7service8identity5groupINtB2_12GroupServiceNtNtNtNtB8_5store6memory4wami17InMemoryWamiStoreE11list_groupsB8_
FNDA:7,_RNvMNtNtNtCs9VsQExrgwtF_4wami7service8identity5groupINtB2_12GroupServiceNtNtNtNtB8_5store6memory4wami17InMemoryWamiStoreE12create_groupB8_
FNDA:1,_RNvMNtNtNtCs9VsQExrgwtF_4wami7service8identity5groupINtB2_12GroupServiceNtNtNtNtB8_5store6memory4wami17InMemoryWamiStoreE12delete_groupB8_
FNDA:1,_RNvMNtNtNtCs9VsQExrgwtF_4wami7service8identity5groupINtB2_12GroupServiceNtNtNtNtB8_5store6memory4wami17InMemoryWamiStoreE12update_groupB8_
FNDA:1,_RNvMNtNtNtCs9VsQExrgwtF_4wami7service8identity5groupINtB2_12GroupServiceNtNtNtNtB8_5store6memory4wami17InMemoryWamiStoreE17add_user_to_groupB8_
FNDA:2,_RNvMNtNtNtCs9VsQExrgwtF_4wami7service8identity5groupINtB2_12GroupServiceNtNtNtNtB8_5store6memory4wami17InMemoryWamiStoreE20list_groups_for_userB8_
FNDA:1,_RNvMNtNtNtCs9VsQExrgwtF_4wami7service8identity5groupINtB2_12GroupServiceNtNtNtNtB8_5store6memory4wami17InMemoryWamiStoreE22remove_user_from_groupB8_
FNDA:5,_RNvMNtNtNtCs9VsQExrgwtF_4wami7service8identity5groupINtB2_12GroupServiceNtNtNtNtB8_5store6memory4wami17InMemoryWamiStoreE3newB8_
FNDA:2,_RNvMNtNtNtCs9VsQExrgwtF_4wami7service8identity5groupINtB2_12GroupServiceNtNtNtNtB8_5store6memory4wami17InMemoryWamiStoreE9get_groupB8_
FNDA:7,_RNvNtNtNtNtCs9VsQExrgwtF_4wami7service8identity5group5tests12test_context
FNDA:4,_RNvNtNtNtNtCs9VsQExrgwtF_4wami7service8identity5group5tests13setup_service
FNDA:1,_RNvNtNtNtNtCs9VsQExrgwtF_4wami7service8identity5group5testss_16test_list_groups
FNDA:1,_RNvNtNtNtNtCs9VsQExrgwtF_4wami7service8identity5group5testss_17test_delete_group
FNDA:1,_RNvNtNtNtNtCs9VsQExrgwtF_4wami7service8identity5group5testss_17test_update_group
FNDA:1,_RNvNtNtNtNtCs9VsQExrgwtF_4wami7service8identity5group5testss_21test_group_membership
FNDA:1,_RNvNtNtNtNtCs9VsQExrgwtF_4wami7service8identity5group5testss_25test_create_and_get_group
FNDA:1,_RNCNvNtNtNtNtCs9VsQExrgwtF_4wami7service8identity5group5testss_16test_list_groups0Bb_
FNDA:1,_RNCNvNtNtNtNtCs9VsQExrgwtF_4wami7service8identity5group5testss_17test_delete_group0Bb_
FNDA:1,_RNCNvNtNtNtNtCs9VsQExrgwtF_4wami7service8identity5group5testss_17test_update_group0Bb_
FNDA:1,_RNCNvNtNtNtNtCs9VsQExrgwtF_4wami7service8identity5group5testss_21test_group_membership0Bb_
FNDA:1,_RNCNvNtNtNtNtCs9VsQExrgwtF_4wami7service8identity5group5testss_25test_create_and_get_group0Bb_
FNF:30
FNH:29
DA:22,5
DA:23,5
DA:24,5
DA:27,7
DA:28,7
DA:29,7
DA:30,7
DA:31,7
DA:33,7
DA:36,7
DA:37,7
DA:40,2
DA:41,2
DA:42,2
DA:45,1
DA:47,1
DA:48,1
DA:49,1
DA:50,1
DA:51,1
DA:52,1
DA:53,1
DA:54,0
DA:55,0
DA:58,1
DA:59,1
DA:60,1
DA:62,1
DA:63,1
DA:64,1
DA:67,1
DA:68,1
DA:71,1
DA:72,1
DA:73,1
DA:76,1
DA:77,1
DA:78,1
DA:79,1
DA:80,1
DA:81,1
DA:82,1
DA:83,1
DA:84,1
DA:85,1
DA:88,1
DA:89,1
DA:90,1
DA:91,1
DA:92,1
DA:93,1
DA:94,1
DA:97,1
DA:98,1
DA:99,1
DA:100,1
DA:101,1
DA:102,1
DA:103,1
DA:106,2
DA:107,2
DA:108,2
DA:109,2
DA:110,2
DA:111,2
DA:112,2
DA:124,4
DA:125,4
DA:126,4
DA:127,4
DA:129,7
DA:130,7
DA:131,7
DA:132,7
DA:133,7
DA:134,7
DA:135,7
DA:136,7
DA:137,7
DA:138,7
DA:139,7
DA:140,7
DA:143,1
DA:144,1
DA:145,1
DA:147,1
DA:148,1
DA:149,1
DA:150,1
DA:151,1
DA:153,1
DA:154,1
DA:155,1
DA:157,1
DA:158,1
DA:159,1
DA:160,1
DA:163,1
DA:164,1
DA:165,1
DA:168,1
DA:169,1
DA:170,1
DA:171,1
DA:172,1
DA:173,1
DA:174,1
DA:175,1
DA:176,1
DA:179,1
DA:180,1
DA:181,1
DA:182,1
DA:183,1
DA:184,1
DA:185,1
DA:186,1
DA:187,1
DA:190,1
DA:191,1
DA:193,1
DA:194,1
DA:195,1
DA:196,1
DA:197,1
DA:198,1
DA:199,1
DA:201,1
DA:203,1
DA:204,1
DA:205,1
DA:208,1
DA:209,1
DA:212,3
DA:213,3
DA:214,3
DA:215,3
DA:216,3
DA:217,3
DA:218,3
DA:219,3
DA:222,1
DA:223,1
DA:224,1
DA:225,1
DA:226,1
DA:227,1
DA:228,1
DA:231,1
DA:232,1
DA:233,1
DA:234,1
DA:237,1
DA:238,1
DA:239,1
DA:242,1
DA:243,1
DA:244,1
DA:245,1
DA:246,1
DA:247,1
DA:250,1
DA:253,1
DA:254,1
DA:255,1
DA:258,1
DA:259,1
DA:260,1
DA:261,1
DA:263,1
DA:264,1
DA:265,1
BRF:0
BRH:0
LF:191
LH:188
end_of_record
SF:/Users/lsh/projects/crates/wami/src/service/identity/identity_provider.rs
FN:207,_RNCNCNvMNtNtNtCs9VsQExrgwtF_4wami7service8identity17identity_providerINtB6_23IdentityProviderServiceNtNtNtNtBc_5store6memory4wami17InMemoryWamiStoreE13add_client_id00Bc_
FN:230,_RNCNCNvMNtNtNtCs9VsQExrgwtF_4wami7service8identity17identity_providerINtB6_23IdentityProviderServiceNtNtNtNtBc_5store6memory4wami17InMemoryWamiStoreE16remove_client_id00Bc_
FN:92,_RNCNCNvMNtNtNtCs9VsQExrgwtF_4wami7service8identity17identity_providerINtB6_23IdentityProviderServiceNtNtNtNtBc_5store6memory4wami17InMemoryWamiStoreE20update_saml_provider00Bc_
FN:184,_RNCNCNvMNtNtNtCs9VsQExrgwtF_4wami7service8identity17identity_providerINtB6_23IdentityProviderServiceNtNtNtNtBc_5store6memory4wami17InMemoryWamiStoreE23update_oidc_thumbprints00Bc_
FN:199,_RNCNvMNtNtNtCs9VsQExrgwtF_4wami7service8identity17identity_providerINtB4_23IdentityProviderServiceNtNtNtNtBa_5store6memory4wami17InMemoryWamiStoreE13add_client_id0Ba_
FN:222,_RNCNvMNtNtNtCs9VsQExrgwtF_4wami7service8identity17identity_providerINtB4_23IdentityProviderServiceNtNtNtNtBa_5store6memory4wami17InMemoryWamiStoreE16remove_client_id0Ba_
FN:164,_RNCNvMNtNtNtCs9VsQExrgwtF_4wami7service8identity17identity_providerINtB4_23IdentityProviderServiceNtNtNtNtBa_5store6memory4wami17InMemoryWamiStoreE17get_oidc_provider0Ba_
FN:72,_RNCNvMNtNtNtCs9VsQExrgwtF_4wami7service8identity17identity_providerINtB4_23IdentityProviderServiceNtNtNtNtBa_5store6memory4wami17InMemoryWamiStoreE17get_saml_provider0Ba_
FN:251,_RNCNvMNtNtNtCs9VsQExrgwtF_4wami7service8identity17identity_providerINtB4_23IdentityProviderServiceNtNtNtNtBa_5store6memory4wami17InMemoryWamiStoreE19list_oidc_providers0Ba_
FN:121,_RNCNvMNtNtNtCs9VsQExrgwtF_4wami7service8identity17identity_providerINtB4_23IdentityProviderServiceNtNtNtNtBa_5store6memory4wami17InMemoryWamiStoreE19list_saml_providers0Ba_
FN:135,_RNCNvMNtNtNtCs9VsQExrgwtF_4wami7service8identity17identity_providerINtB4_23IdentityProviderServiceNtNtNtNtBa_5store6memory4wami17InMemoryWamiStoreE20create_oidc_provider0Ba_
FN:40,_RNCNvMNtNtNtCs9VsQExrgwtF_4wami7service8identity17identity_providerINtB4_23IdentityProviderServiceNtNtNtNtBa_5store6memory4wami17InMemoryWamiStoreE20create_saml_provider0Ba_
FN:242,_RNCNvMNtNtNtCs9VsQExrgwtF_4wami7service8identity17identity_providerINtB4_23IdentityProviderServiceNtNtNtNtBa_5store6memory4wami17InMemoryWamiStoreE20delete_oidc_provider0Ba_
FN:112,_RNCNvMNtNtNtCs9VsQExrgwtF_4wami7service8identity17identity_providerINtB4_23IdentityProviderServiceNtNtNtNtBa_5store6memory4wami17InMemoryWamiStoreE20delete_saml_provider0Ba_
FN:81,_RNCNvMNtNtNtCs9VsQExrgwtF_4wami7service8identity17identity_providerINtB4_23IdentityProviderServiceNtNtNtNtBa_5store6memory4wami17InMemoryWamiStoreE20update_saml_provider0Ba_
FN:173,_RNCNvMNtNtNtCs9VsQExrgwtF_4wami7service8identity17identity_providerINtB4_23IdentityProviderServiceNtNtNtNtBa_5store6memory4wami17InMemoryWamiStoreE23update_oidc_thumbprints0Ba_
FN:196,_RNvMNtNtNtCs9VsQExrgwtF_4wami7service8identity17identity_providerINtB2_23IdentityProviderServiceNtNtNtNtB8_5store6memory4wami17InMemoryWamiStoreE13add_client_idB8_
FN:219,_RNvMNtNtNtCs9VsQExrgwtF_4wami7service8identity17identity_providerINtB2_23IdentityProviderServiceNtNtNtNtB8_5store6memory4wami17InMemoryWamiStoreE16remove_client_idB8_
FN:164,_RNvMNtNtNtCs9VsQExrgwtF_4wami7service8identity17identity_providerINtB2_23IdentityProviderServiceNtNtNtNtB8_5store6memory4wami17InMemoryWamiStoreE17get_oidc_providerB8_
FN:72,_RNvMNtNtNtCs9VsQExrgwtF_4wami7service8identity17identity_providerINtB2_23IdentityProviderServiceNtNtNtNtB8_5store6memory4wami17InMemoryWamiStoreE17get_saml_providerB8_
FN:248,_RNvMNtNtNtCs9VsQExrgwtF_4wami7service8identity17identity_providerINtB2_23IdentityProviderServiceNtNtNtNtB8_5store6memory4wami17InMemoryWamiStoreE19list_oidc_providersB8_
FN:118,_RNvMNtNtNtCs9VsQExrgwtF_4wami7service8identity17identity_providerINtB2_23IdentityProviderServiceNtNtNtNtB8_5store6memory4wami17InMemoryWamiStoreE19list_saml_providersB8_
FN:131,_RNvMNtNtNtCs9VsQExrgwtF_4wami7service8identity17identity_providerINtB2_23IdentityProviderServiceNtNtNtNtB8_5store6memory4wami17InMemoryWamiStoreE20create_oidc_providerB8_
FN:36,_RNvMNtNtNtCs9VsQExrgwtF_4wami7service8identity17identity_providerINtB2_23IdentityProviderServiceNtNtNtNtB8_5store6memory4wami17InMemoryWamiStoreE20create_saml_providerB8_
FN:242,_RNvMNtNtNtCs9VsQExrgwtF_4wami7service8identity17identity_providerINtB2_23IdentityProviderServiceNtNtNtNtB8_5store6memory4wami17InMemoryWamiStoreE20delete_oidc_providerB8_
FN:112,_RNvMNtNtNtCs9VsQExrgwtF_4wami7service8identity17identity_providerINtB2_23IdentityProviderServiceNtNtNtNtB8_5store6memory4wami17InMemoryWamiStoreE20delete_saml_providerB8_
FN:78,_RNvMNtNtNtCs9VsQExrgwtF_4wami7service8identity17identity_providerINtB2_23IdentityProviderServiceNtNtNtNtB8_5store6memory4wami17InMemoryWamiStoreE20update_saml_providerB8_
FN:170,_RNvMNtNtNtCs9VsQExrgwtF_4wami7service8identity17identity_providerINtB2_23IdentityProviderServiceNtNtNtNtB8_5store6memory4wami17InMemoryWamiStoreE23update_oidc_thumbprintsB8_
FN:27,_RNvMNtNtNtCs9VsQExrgwtF_4wami7service8identity17identity_providerINtB2_23IdentityProviderServiceNtNtNtNtB8_5store6memory4wami17InMemoryWamiStoreE3newB8_
FN:261,_RNCNvMNtNtNtCs9VsQExrgwtF_4wami7service8identity17identity_providerINtB4_23IdentityProviderServicepE21tag_identity_provider0Ba_
FN:273,_RNCNvMNtNtNtCs9VsQExrgwtF_4wami7service8identity17identity_providerINtB4_23IdentityProviderServicepE23untag_identity_provider0Ba_
FN:267,_RNCNvMNtNtNtCs9VsQExrgwtF_4wami7service8identity17identity_providerINtB4_23IdentityProviderServicepE27list_identity_provider_tags0Ba_
FN:261,_RNvMNtNtNtCs9VsQExrgwtF_4wami7service8identity17identity_providerINtB2_23IdentityProviderServicepE21tag_identity_providerB8_
FN:273,_RNvMNtNtNtCs9VsQExrgwtF_4wami7service8identity17identity_providerINtB2_23IdentityProviderServicepE23untag_identity_providerB8_
FN:267,_RNvMNtNtNtCs9VsQExrgwtF_4wami7service8identity17identity_providerINtB2_23IdentityProviderServicepE27list_identity_provider_tagsB8_
FN:286,_RNvNtNtNtNtCs9VsQExrgwtF_4wami7service8identity17identity_provider5tests12test_context
FN:353,_RNvNtNtNtNtCs9VsQExrgwtF_4wami7service8identity17identity_provider5testss_26test_oidc_provider_service
FN:305,_RNvNtNtNtNtCs9VsQExrgwtF_4wami7service8identity17identity_provider5testss_26test_saml_provider_service
FN:353,_RNCNvNtNtNtNtCs9VsQExrgwtF_4wami7service8identity17identity_provider5testss_26test_oidc_provider_service0Bb_
FN:305,_RNCNvNtNtNtNtCs9VsQExrgwtF_4wami7service8identity17identity_provider5testss_26test_saml_provider_service0Bb_
FNDA:0,_RNCNCNvMNtNtNtCs9VsQExrgwtF_4wami7service8identity17identity_providerINtB6_23IdentityProviderServiceNtNtNtNtBc_5store6memory4wami17InMemoryWamiStoreE13add_client_id00Bc_
FNDA:0,_RNCNCNvMNtNtNtCs9VsQExrgwtF_4wami7service8identity17identity_providerINtB6_23IdentityProviderServiceNtNtNtNtBc_5store6memory4wami17InMemoryWamiStoreE16remove_client_id00Bc_
FNDA:0,_RNCNCNvMNtNtNtCs9VsQExrgwtF_4wami7service8identity17identity_providerINtB6_23IdentityProviderServiceNtNtNtNtBc_5store6memory4wami17InMemoryWamiStoreE20update_saml_provider00Bc_
FNDA:0,_RNCNCNvMNtNtNtCs9VsQExrgwtF_4wami7service8identity17identity_providerINtB6_23IdentityProviderServiceNtNtNtNtBc_5store6memory4wami17InMemoryWamiStoreE23update_oidc_thumbprints00Bc_
FNDA:1,_RNCNvMNtNtNtCs9VsQExrgwtF_4wami7service8identity17identity_providerINtB4_23IdentityProviderServiceNtNtNtNtBa_5store6memory4wami17InMemoryWamiStoreE13add_client_id0Ba_
FNDA:1,_RNCNvMNtNtNtCs9VsQExrgwtF_4wami7service8identity17identity_providerINtB4_23IdentityProviderServiceNtNtNtNtBa_5store6memory4wami17InMemoryWamiStoreE16remove_client_id0Ba_
FNDA:2,_RNCNvMNtNtNtCs9VsQExrgwtF_4wami7service8identity17identity_providerINtB4_23IdentityProviderServiceNtNtNtNtBa_5store6memory4wami17InMemoryWamiStoreE17get_oidc_provider0Ba_
FNDA:2,_RNCNvMNtNtNtCs9VsQExrgwtF_4wami7service8identity17identity_providerINtB4_23IdentityProviderServiceNtNtNtNtBa_5store6memory4wami17InMemoryWamiStoreE17get_saml_provider0Ba_
FNDA:1,_RNCNvMNtNtNtCs9VsQExrgwtF_4wami7service8identity17identity_providerINtB4_23IdentityProviderServiceNtNtNtNtBa_5store6memory4wami17InMemoryWamiStoreE19list_oidc_providers0Ba_
FNDA:1,_RNCNvMNtNtNtCs9VsQExrgwtF_4wami7service8identity17identity_providerINtB4_23IdentityProviderServiceNtNtNtNtBa_5store6memory4wami17InMemoryWamiStoreE19list_saml_providers0Ba_
FNDA:1,_RNCNvMNtNtNtCs9VsQExrgwtF_4wami7service8identity17identity_providerINtB4_23IdentityProviderServiceNtNtNtNtBa_5store6memory4wami17InMemoryWamiStoreE20create_oidc_provider0Ba_
FNDA:1,_RNCNvMNtNtNtCs9VsQExrgwtF_4wami7service8identity17identity_providerINtB4_23IdentityProviderServiceNtNtNtNtBa_5store6memory4wami17InMemoryWamiStoreE20create_saml_provider0Ba_
FNDA:1,_RNCNvMNtNtNtCs9VsQExrgwtF_4wami7service8identity17identity_providerINtB4_23IdentityProviderServiceNtNtNtNtBa_5store6memory4wami17InMemoryWamiStoreE20delete_oidc_provider0Ba_
FNDA:1,_RNCNvMNtNtNtCs9VsQExrgwtF_4wami7service8identity17identity_providerINtB4_23IdentityProviderServiceNtNtNtNtBa_5store6memory4wami17InMemoryWamiStoreE20delete_saml_provider0Ba_
FNDA:1,_RNCNvMNtNtNtCs9VsQExrgwtF_4wami7service8identity17identity_providerINtB4_23IdentityProviderServiceNtNtNtNtBa_5store6memory4wami17InMemoryWamiStoreE20update_saml_provider0Ba_
FNDA:1,_RNCNvMNtNtNtCs9VsQExrgwtF_4wami7service8identity17identity_providerINtB4_23IdentityProviderServiceNtNtNtNtBa_5store6memory4wami17InMemoryWamiStoreE23update_oidc_thumbprints0Ba_
FNDA:1,_RNvMNtNtNtCs9VsQExrgwtF_4wami7service8identity17identity_providerINtB2_23IdentityProviderServiceNtNtNtNtB8_5store6memory4wami17InMemoryWamiStoreE13add_client_idB8_
FNDA:1,_RNvMNtNtNtCs9VsQExrgwtF_4wami7service8identity17identity_providerINtB2_23IdentityProviderServiceNtNtNtNtB8_5store6memory4wami17InMemoryWamiStoreE16remove_client_idB8_
FNDA:2,_RNvMNtNtNtCs9VsQExrgwtF_4wami7service8identity17identity_providerINtB2_23IdentityProviderServiceNtNtNtNtB8_5store6memory4wami17InMemoryWamiStoreE17get_oidc_providerB8_
FNDA:2,_RNvMNtNtNtCs9VsQExrgwtF_4wami7service8identity17identity_providerINtB2_23IdentityProviderServiceNtNtNtNtB8_5store6memory4wami17InMemoryWamiStoreE17get_saml_providerB8_
FNDA:1,_RNvMNtNtNtCs9VsQExrgwtF_4wami7service8identity17identity_providerINtB2_23IdentityProviderServiceNtNtNtNtB8_5store6memory4wami17InMemoryWamiStoreE19list_oidc_providersB8_
FNDA:1,_RNvMNtNtNtCs9VsQExrgwtF_4wami7service8identity17identity_providerINtB2_23IdentityProviderServiceNtNtNtNtB8_5store6memory4wami17InMemoryWamiStoreE19list_saml_providersB8_
FNDA:1,_RNvMNtNtNtCs9VsQExrgwtF_4wami7service8identity17identity_providerINtB2_23IdentityProviderServiceNtNtNtNtB8_5store6memory4wami17InMemoryWamiStoreE20create_oidc_providerB8_
FNDA:1,_RNvMNtNtNtCs9VsQExrgwtF_4wami7service8identity17identity_providerINtB2_23IdentityProviderServiceNtNtNtNtB8_5store6memory4wami17InMemoryWamiStoreE20create_saml_providerB8_
FNDA:1,_RNvMNtNtNtCs9VsQExrgwtF_4wami7service8identity17identity_providerINtB2_23IdentityProviderServiceNtNtNtNtB8_5store6memory4wami17InMemoryWamiStoreE20delete_oidc_providerB8_
FNDA:1,_RNvMNtNtNtCs9VsQExrgwtF_4wami7service8identity17identity_providerINtB2_23IdentityProviderServiceNtNtNtNtB8_5store6memory4wami17InMemoryWamiStoreE20delete_saml_providerB8_
FNDA:1,_RNvMNtNtNtCs9VsQExrgwtF_4wami7service8identity17identity_providerINtB2_23IdentityProviderServiceNtNtNtNtB8_5store6memory4wami17InMemoryWamiStoreE20update_saml_providerB8_
FNDA:1,_RNvMNtNtNtCs9VsQExrgwtF_4wami7service8identity17identity_providerINtB2_23IdentityProviderServiceNtNtNtNtB8_5store6memory4wami17InMemoryWamiStoreE23update_oidc_thumbprintsB8_
FNDA:2,_RNvMNtNtNtCs9VsQExrgwtF_4wami7service8identity17identity_providerINtB2_23IdentityProviderServiceNtNtNtNtB8_5store6memory4wami17InMemoryWamiStoreE3newB8_
FNDA:0,_RNCNvMNtNtNtCs9VsQExrgwtF_4wami7service8identity17identity_providerINtB4_23IdentityProviderServicepE21tag_identity_provider0Ba_
FNDA:0,_RNCNvMNtNtNtCs9VsQExrgwtF_4wami7service8identity17identity_providerINtB4_23IdentityProviderServicepE23untag_identity_provider0Ba_
FNDA:0,_RNCNvMNtNtNtCs9VsQExrgwtF_4wami7service8identity17identity_providerINtB4_23IdentityProviderServicepE27list_identity_provider_tags0Ba_
FNDA:0,_RNvMNtNtNtCs9VsQExrgwtF_4wami7service8identity17identity_providerINtB2_23IdentityProviderServicepE21tag_identity_providerB8_
FNDA:0,_RNvMNtNtNtCs9VsQExrgwtF_4wami7service8identity17identity_providerINtB2_23IdentityProviderServicepE23untag_identity_providerB8_
FNDA:0,_RNvMNtNtNtCs9VsQExrgwtF_4wami7service8identity17identity_providerINtB2_23IdentityProviderServicepE27list_identity_provider_tagsB8_
FNDA:2,_RNvNtNtNtNtCs9VsQExrgwtF_4wami7service8identity17identity_provider5tests12test_context
FNDA:1,_RNvNtNtNtNtCs9VsQExrgwtF_4wami7service8identity17identity_provider5testss_26test_oidc_provider_service
FNDA:1,_RNvNtNtNtNtCs9VsQExrgwtF_4wami7service8identity17identity_provider5testss_26test_saml_provider_service
FNDA:1,_RNCNvNtNtNtNtCs9VsQExrgwtF_4wami7service8identity17identity_provider5testss_26test_oidc_provider_service0Bb_
FNDA:1,_RNCNvNtNtNtNtCs9VsQExrgwtF_4wami7service8identity17identity_provider5testss_26test_saml_provider_service0Bb_
FNF:40
FNH:30
DA:27,2
DA:28,2
DA:29,2
DA:36,1
DA:37,1
DA:38,1
DA:39,1
DA:40,1
DA:42,1
DA:45,1
DA:48,1
DA:49,1
DA:50,1
DA:51,1
DA:52,0
DA:55,0
DA:56,1
DA:57,0
DA:58,0
DA:59,1
DA:62,1
DA:63,0
DA:64,1
DA:67,1
DA:68,1
DA:69,1
DA:72,2
DA:73,2
DA:74,2
DA:75,2
DA:78,1
DA:79,1
DA:80,1
DA:81,1
DA:83,1
DA:86,1
DA:87,1
DA:88,1
DA:91,1
DA:92,0
DA:93,0
DA:96,1
DA:97,1
DA:100,0
DA:101,1
DA:102,0
DA:103,0
DA:104,1
DA:107,1
DA:108,1
DA:109,1
DA:112,1
DA:113,1
DA:114,1
DA:115,1
DA:118,1
DA:119,1
DA:120,1
DA:121,1
DA:122,1
DA:123,1
DA:124,1
DA:131,1
DA:132,1
DA:133,1
DA:134,1
DA:135,1
DA:137,1
DA:140,1
DA:143,1
DA:146,1
DA:147,1
DA:148,1
DA:149,1
DA:150,1
DA:151,0
DA:154,1
DA:155,0
DA:156,1
DA:159,1
DA:160,1
DA:161,1
DA:164,2
DA:165,2
DA:166,2
DA:167,2
DA:170,1
DA:171,1
DA:172,1
DA:173,1
DA:175,1
DA:178,1
DA:179,1
DA:180,1
DA:183,1
DA:184,0
DA:185,0
DA:188,1
DA:191,1
DA:192,1
DA:193,1
DA:196,1
DA:197,1
DA:198,1
DA:199,1
DA:201,1
DA:202,1
DA:203,1
DA:206,1
DA:207,0
DA:208,0
DA:211,1
DA:214,1
DA:215,1
DA:216,1
DA:219,1
DA:220,1
DA:221,1
DA:222,1
DA:224,1
DA:225,1
DA:226,1
DA:229,1
DA:230,0
DA:231,0
DA:234,1
DA:237,1
DA:238,1
DA:239,1
DA:242,1
DA:243,1
DA:244,1
DA:245,1
DA:248,1
DA:249,1
DA:250,1
DA:251,1
DA:252,1
DA:253,1
DA:254,1
DA:261,0
DA:262,0
DA:263,0
DA:264,0
DA:267,0
DA:268,0
DA:269,0
DA:270,0
DA:273,0
DA:274,0
DA:275,0
DA:276,0
DA:286,2
DA:287,2
DA:288,2
DA:289,2
DA:290,2
DA:291,2
DA:292,2
DA:293,2
DA:294,2
DA:295,2
DA:296,2
DA:297,2
DA:299,2
DA:300,2
DA:301,2
DA:302,2
DA:305,1
DA:306,1
DA:307,1
DA:308,1
DA:310,1
DA:311,1
DA:312,1
DA:313,1
DA:316,1
DA:317,1
DA:318,1
DA:319,1
DA:320,1
DA:321,1
DA:322,1
DA:323,1
DA:324,1
DA:325,1
DA:328,1
DA:329,1
DA:332,1
DA:333,1
DA:334,1
DA:335,1
DA:336,1
DA:337,1
DA:340,1
DA:341,1
DA:342,1
DA:343,1
DA:344,1
DA:347,1
DA:348,1
DA:349,1
DA:350,1
DA:353,1
DA:354,1
DA:355,1
DA:356,1
DA:359,1
DA:360,1
DA:361,1
DA:362,1
DA:363,1
DA:364,1
DA:365,1
DA:366,1
DA:367,1
DA:368,1
DA:369,1
DA:372,1
DA:373,1
DA:376,1
DA:377,1
DA:378,1
DA:379,1
DA:380,1
DA:381,1
DA:384,1
DA:385,1
DA:386,1
DA:387,1
DA:388,1
DA:389,1
DA:392,1
DA:393,1
DA:394,1
DA:395,1
DA:396,1
DA:397,1
DA:400,1
DA:401,1
DA:402,1
DA:403,1
DA:404,1
DA:407,1
DA:408,1
DA:409,1
DA:410,1
BRF:0
BRH:0
LF:270
LH:233
end_of_record
SF:/Users/lsh/projects/crates/wami/src/service/identity/role.rs
FN:73,_RNCNCNvMNtNtNtCs9VsQExrgwtF_4wami7service8identity4roleINtB6_11RoleServiceNtNtNtNtBc_5store6memory4wami17InMemoryWamiStoreE11update_role00Bc_
FN:98,_RNCNvMNtNtNtCs9VsQExrgwtF_4wami7service8identity4roleINtB4_11RoleServiceNtNtNtNtBa_5store6memory4wami17InMemoryWamiStoreE10list_roles0Ba_
FN:31,_RNCNvMNtNtNtCs9VsQExrgwtF_4wami7service8identity4roleINtB4_11RoleServiceNtNtNtNtBa_5store6memory4wami17InMemoryWamiStoreE11create_role0Ba_
FN:90,_RNCNvMNtNtNtCs9VsQExrgwtF_4wami7service8identity4roleINtB4_11RoleServiceNtNtNtNtBa_5store6memory4wami17InMemoryWamiStoreE11delete_role0Ba_
FN:64,_RNCNvMNtNtNtCs9VsQExrgwtF_4wami7service8identity4roleINtB4_11RoleServiceNtNtNtNtBa_5store6memory4wami17InMemoryWamiStoreE11update_role0Ba_
FN:59,_RNCNvMNtNtNtCs9VsQExrgwtF_4wami7service8identity4roleINtB4_11RoleServiceNtNtNtNtBa_5store6memory4wami17InMemoryWamiStoreE8get_role0Ba_
FN:95,_RNvMNtNtNtCs9VsQExrgwtF_4wami7service8identity4roleINtB2_11RoleServiceNtNtNtNtB8_5store6memory4wami17InMemoryWamiStoreE10list_rolesB8_
FN:27,_RNvMNtNtNtCs9VsQExrgwtF_4wami7service8identity4roleINtB2_11RoleServiceNtNtNtNtB8_5store6memory4wami17InMemoryWamiStoreE11create_roleB8_
FN:90,_RNvMNtNtNtCs9VsQExrgwtF_4wami7service8identity4roleINtB2_11RoleServiceNtNtNtNtB8_5store6memory4wami17InMemoryWamiStoreE11delete_roleB8_
FN:64,_RNvMNtNtNtCs9VsQExrgwtF_4wami7service8identity4roleINtB2_11RoleServiceNtNtNtNtB8_5store6memory4wami17InMemoryWamiStoreE11update_roleB8_
FN:22,_RNvMNtNtNtCs9VsQExrgwtF_4wami7service8identity4roleINtB2_11RoleServiceNtNtNtNtB8_5store6memory4wami17InMemoryWamiStoreE3newB8_
FN:59,_RNvMNtNtNtCs9VsQExrgwtF_4wami7service8identity4roleINtB2_11RoleServiceNtNtNtNtB8_5store6memory4wami17InMemoryWamiStoreE8get_roleB8_
FN:209,_RNCNvNtNtNtNtCs9VsQExrgwtF_4wami7service8identity4role5testss_15test_list_roles0Bb_
FN:187,_RNCNvNtNtNtNtCs9VsQExrgwtF_4wami7service8identity4role5testss_16test_delete_role0Bb_
FN:159,_RNCNvNtNtNtNtCs9VsQExrgwtF_4wami7service8identity4role5testss_16test_update_role0Bb_
FN:134,_RNCNvNtNtNtNtCs9VsQExrgwtF_4wami7service8identity4role5testss_24test_create_and_get_role0Bb_
FN:237,_RNCNvNtNtNtNtCs9VsQExrgwtF_4wami7service8identity4role5testss_26test_create_role_with_tags0Bb_
FN:120,_RNvNtNtNtNtCs9VsQExrgwtF_4wami7service8identity4role5tests12test_context
FN:115,_RNvNtNtNtNtCs9VsQExrgwtF_4wami7service8identity4role5tests13setup_service
FN:209,_RNvNtNtNtNtCs9VsQExrgwtF_4wami7service8identity4role5testss_15test_list_roles
FN:187,_RNvNtNtNtNtCs9VsQExrgwtF_4wami7service8identity4role5testss_16test_delete_role
FN:159,_RNvNtNtNtNtCs9VsQExrgwtF_4wami7service8identity4role5testss_16test_update_role
FN:134,_RNvNtNtNtNtCs9VsQExrgwtF_4wami7service8identity4role5testss_24test_create_and_get_role
FN:237,_RNvNtNtNtNtCs9VsQExrgwtF_4wami7service8identity4role5testss_26test_create_role_with_tags
FNDA:0,_RNCNCNvMNtNtNtCs9VsQExrgwtF_4wami7service8identity4roleINtB6_11RoleServiceNtNtNtNtBc_5store6memory4wami17InMemoryWamiStoreE11update_role00Bc_
FNDA:1,_RNCNvMNtNtNtCs9VsQExrgwtF_4wami7service8identity4roleINtB4_11RoleServiceNtNtNtNtBa_5store6memory4wami17InMemoryWamiStoreE10list_roles0Ba_
FNDA:7,_RNCNvMNtNtNtCs9VsQExrgwtF_4wami7service8identity4roleINtB4_11RoleServiceNtNtNtNtBa_5store6memory4wami17InMemoryWamiStoreE11create_role0Ba_
FNDA:1,_RNCNvMNtNtNtCs9VsQExrgwtF_4wami7service8identity4roleINtB4_11RoleServiceNtNtNtNtBa_5store6memory4wami17InMemoryWamiStoreE11delete_role0Ba_
FNDA:1,_RNCNvMNtNtNtCs9VsQExrgwtF_4wami7service8identity4roleINtB4_11RoleServiceNtNtNtNtBa_5store6memory4wami17InMemoryWamiStoreE11update_role0Ba_
FNDA:2,_RNCNvMNtNtNtCs9VsQExrgwtF_4wami7service8identity4roleINtB4_11RoleServiceNtNtNtNtBa_5store6memory4wami17InMemoryWamiStoreE8get_role0Ba_
FNDA:1,_RNvMNtNtNtCs9VsQExrgwtF_4wami7service8identity4roleINtB2_11RoleServiceNtNtNtNtB8_5store6memory4wami17InMemoryWamiStoreE10list_rolesB8_
FNDA:7,_RNvMNtNtNtCs9VsQExrgwtF_4wami7service8identity4roleINtB2_11RoleServiceNtNtNtNtB8_5store6memory4wami17InMemoryWamiStoreE11create_roleB8_
FNDA:1,_RNvMNtNtNtCs9VsQExrgwtF_4wami7service8identity4roleINtB2_11RoleServiceNtNtNtNtB8_5store6memory4wami17InMemoryWamiStoreE11delete_roleB8_
FNDA:1,_RNvMNtNtNtCs9VsQExrgwtF_4wami7service8identity4roleINtB2_11RoleServiceNtNtNtNtB8_5store6memory4wami17InMemoryWamiStoreE11update_roleB8_
FNDA:5,_RNvMNtNtNtCs9VsQExrgwtF_4wami7service8identity4roleINtB2_11RoleServiceNtNtNtNtB8_5store6memory4wami17InMemoryWamiStoreE3newB8_
FNDA:2,_RNvMNtNtNtCs9VsQExrgwtF_4wami7service8identity4roleINtB2_11RoleServiceNtNtNtNtB8_5store6memory4wami17InMemoryWamiStoreE8get_roleB8_
FNDA:1,_RNCNvNtNtNtNtCs9VsQExrgwtF_4wami7service8identity4role5testss_15test_list_roles0Bb_
FNDA:1,_RNCNvNtNtNtNtCs9VsQExrgwtF_4wami7service8identity4role5testss_16test_delete_role0Bb_
FNDA:1,_RNCNvNtNtNtNtCs9VsQExrgwtF_4wami7service8identity4role5testss_16test_update_role0Bb_
FNDA:1,_RNCNvNtNtNtNtCs9VsQExrgwtF_4wami7service8identity4role5testss_24test_create_and_get_role0Bb_
FNDA:1,_RNCNvNtNtNtNtCs9VsQExrgwtF_4wami7service8identity4role5testss_26test_create_role_with_tags0Bb_
FNDA:7,_RNvNtNtNtNtCs9VsQExrgwtF_4wami7service8identity4role5tests12test_context
FNDA:5,_RNvNtNtNtNtCs9VsQExrgwtF_4wami7service8identity4role5tests13setup_service
FNDA:1,_RNvNtNtNtNtCs9VsQExrgwtF_4wami7service8identity4role5testss_15test_list_roles
FNDA:1,_RNvNtNtNtNtCs9VsQExrgwtF_4wami7service8identity4role5testss_16test_delete_role
FNDA:1,_RNvNtNtNtNtCs9VsQExrgwtF_4wami7service8identity4role5testss_16test_update_role
FNDA:1,_RNvNtNtNtNtCs9VsQExrgwtF_4wami7service8identity4role5testss_24test_create_and_get_role
FNDA:1,_RNvNtNtNtNtCs9VsQExrgwtF_4wami7service8identity4role5testss_26test_create_role_with_tags
FNF:24
FNH:23
DA:22,5
DA:23,5
DA:24,5
DA:27,7
DA:28,7
DA:29,7
DA:30,7
DA:31,7
DA:33,7
DA:34,7
DA:35,7
DA:36,7
DA:37,7
DA:38,7
DA:39,7
DA:40,0
DA:43,7
DA:44,0
DA:45,7
DA:48,7
DA:49,1
DA:51,6
DA:55,7
DA:56,7
DA:59,2
DA:60,2
DA:61,2
DA:64,1
DA:66,1
DA:67,1
DA:68,1
DA:69,1
DA:70,1
DA:71,1
DA:72,1
DA:73,0
DA:74,0
DA:77,1
DA:78,1
DA:79,1
DA:81,1
DA:82,1
DA:83,1
DA:86,1
DA:87,1
DA:90,1
DA:91,1
DA:92,1
DA:95,1
DA:96,1
DA:97,1
DA:98,1
DA:99,1
DA:100,1
DA:101,1
DA:102,1
DA:103,1
DA:104,1
DA:115,5
DA:116,5
DA:117,5
DA:118,5
DA:120,7
DA:121,7
DA:122,7
DA:123,7
DA:124,7
DA:125,7
DA:126,7
DA:127,7
DA:128,7
DA:129,7
DA:130,7
DA:131,7
DA:134,1
DA:135,1
DA:136,1
DA:138,1
DA:139,1
DA:140,1
DA:141,1
DA:142,1
DA:143,1
DA:144,1
DA:145,1
DA:146,1
DA:148,1
DA:149,1
DA:150,1
DA:151,1
DA:153,1
DA:154,1
DA:155,1
DA:156,1
DA:159,1
DA:160,1
DA:163,1
DA:164,1
DA:165,1
DA:166,1
DA:167,1
DA:168,1
DA:169,1
DA:170,1
DA:171,1
DA:172,1
DA:173,1
DA:176,1
DA:177,1
DA:178,1
DA:179,1
DA:180,1
DA:181,1
DA:182,1
DA:183,1
DA:184,1
DA:187,1
DA:188,1
DA:190,1
DA:191,1
DA:192,1
DA:193,1
DA:194,1
DA:195,1
DA:196,1
DA:197,1
DA:198,1
DA:199,1
DA:200,1
DA:202,1
DA:204,1
DA:205,1
DA:206,1
DA:209,1
DA:210,1
DA:213,3
DA:214,3
DA:215,3
DA:216,3
DA:217,3
DA:218,3
DA:219,3
DA:220,3
DA:221,3
DA:222,3
DA:223,3
DA:224,3
DA:225,3
DA:228,1
DA:229,1
DA:230,1
DA:231,1
DA:232,1
DA:233,1
DA:234,1
DA:237,1
DA:238,1
DA:240,1
DA:241,1
DA:242,1
DA:243,1
DA:245,1
DA:246,1
DA:247,1
DA:248,1
DA:249,1
DA:250,1
DA:251,1
DA:252,1
DA:253,1
DA:255,1
DA:256,1
DA:257,1
DA:258,1
DA:259,1
BRF:0
BRH:0
LF:191
LH:186
end_of_record
SF:/Users/lsh/projects/crates/wami/src/service/identity/service_linked_role.rs
FN:96,_RNvNtNtNtNtCs9VsQExrgwtF_4wami7service8identity19service_linked_role5tests12test_context
FN:91,_RNvNtNtNtNtCs9VsQExrgwtF_4wami7service8identity19service_linked_role5tests13setup_service
FN:165,_RNvNtNtNtNtCs9VsQExrgwtF_4wami7service8identity19service_linked_role5testss_22test_get_deletion_task
FN:110,_RNvNtNtNtNtCs9VsQExrgwtF_4wami7service8identity19service_linked_role5testss_31test_create_service_linked_role
FN:150,_RNvNtNtNtNtCs9VsQExrgwtF_4wami7service8identity19service_linked_role5testss_47test_create_service_linked_role_invalid_service
FN:132,_RNvNtNtNtNtCs9VsQExrgwtF_4wami7service8identity19service_linked_role5testss_50test_create_service_linked_role_with_custom_suffix
FN:33,_RNCNvMNtNtNtCs9VsQExrgwtF_4wami7service8identity19service_linked_roleINtB4_24ServiceLinkedRoleServiceNtNtNtNtBa_5store6memory4wami17InMemoryWamiStoreE26create_service_linked_role0Ba_
FN:75,_RNCNvMNtNtNtCs9VsQExrgwtF_4wami7service8identity19service_linked_roleINtB4_24ServiceLinkedRoleServiceNtNtNtNtBa_5store6memory4wami17InMemoryWamiStoreE37get_service_linked_role_deletion_task0Ba_
FN:29,_RNvMNtNtNtCs9VsQExrgwtF_4wami7service8identity19service_linked_roleINtB2_24ServiceLinkedRoleServiceNtNtNtNtB8_5store6memory4wami17InMemoryWamiStoreE26create_service_linked_roleB8_
FN:72,_RNvMNtNtNtCs9VsQExrgwtF_4wami7service8identity19service_linked_roleINtB2_24ServiceLinkedRoleServiceNtNtNtNtB8_5store6memory4wami17InMemoryWamiStoreE37get_service_linked_role_deletion_taskB8_
FN:24,_RNvMNtNtNtCs9VsQExrgwtF_4wami7service8identity19service_linked_roleINtB2_24ServiceLinkedRoleServiceNtNtNtNtB8_5store6memory4wami17InMemoryWamiStoreE3newB8_
FN:165,_RNCNvNtNtNtNtCs9VsQExrgwtF_4wami7service8identity19service_linked_role5testss_22test_get_deletion_task0Bb_
FN:110,_RNCNvNtNtNtNtCs9VsQExrgwtF_4wami7service8identity19service_linked_role5testss_31test_create_service_linked_role0Bb_
FN:150,_RNCNvNtNtNtNtCs9VsQExrgwtF_4wami7service8identity19service_linked_role5testss_47test_create_service_linked_role_invalid_service0Bb_
FN:132,_RNCNvNtNtNtNtCs9VsQExrgwtF_4wami7service8identity19service_linked_role5testss_50test_create_service_linked_role_with_custom_suffix0Bb_
FNDA:4,_RNvNtNtNtNtCs9VsQExrgwtF_4wami7service8identity19service_linked_role5tests12test_context
FNDA:4,_RNvNtNtNtNtCs9VsQExrgwtF_4wami7service8identity19service_linked_role5tests13setup_service
FNDA:1,_RNvNtNtNtNtCs9VsQExrgwtF_4wami7service8identity19service_linked_role5testss_22test_get_deletion_task
FNDA:1,_RNvNtNtNtNtCs9VsQExrgwtF_4wami7service8identity19service_linked_role5testss_31test_create_service_linked_role
FNDA:1,_RNvNtNtNtNtCs9VsQExrgwtF_4wami7service8identity19service_linked_role5testss_47test_create_service_linked_role_invalid_service
FNDA:1,_RNvNtNtNtNtCs9VsQExrgwtF_4wami7service8identity19service_linked_role5testss_50test_create_service_linked_role_with_custom_suffix
FNDA:4,_RNCNvMNtNtNtCs9VsQExrgwtF_4wami7service8identity19service_linked_roleINtB4_24ServiceLinkedRoleServiceNtNtNtNtBa_5store6memory4wami17InMemoryWamiStoreE26create_service_linked_role0Ba_
FNDA:1,_RNCNvMNtNtNtCs9VsQExrgwtF_4wami7service8identity19service_linked_roleINtB4_24ServiceLinkedRoleServiceNtNtNtNtBa_5store6memory4wami17InMemoryWamiStoreE37get_service_linked_role_deletion_task0Ba_
FNDA:4,_RNvMNtNtNtCs9VsQExrgwtF_4wami7service8identity19service_linked_roleINtB2_24ServiceLinkedRoleServiceNtNtNtNtB8_5store6memory4wami17InMemoryWamiStoreE26create_service_linked_roleB8_
FNDA:1,_RNvMNtNtNtCs9VsQExrgwtF_4wami7service8identity19service_linked_roleINtB2_24ServiceLinkedRoleServiceNtNtNtNtB8_5store6memory4wami17InMemoryWamiStoreE37get_service_linked_role_deletion_taskB8_
FNDA:4,_RNvMNtNtNtCs9VsQExrgwtF_4wami7service8identity19service_linked_roleINtB2_24ServiceLinkedRoleServiceNtNtNtNtB8_5store6memory4wami17InMemoryWamiStoreE3newB8_
FNDA:1,_RNCNvNtNtNtNtCs9VsQExrgwtF_4wami7service8identity19service_linked_role5testss_22test_get_deletion_task0Bb_
FNDA:1,_RNCNvNtNtNtNtCs9VsQExrgwtF_4wami7service8identity19service_linked_role5testss_31test_create_service_linked_role0Bb_
FNDA:1,_RNCNvNtNtNtNtCs9VsQExrgwtF_4wami7service8identity19service_linked_role5testss_47test_create_service_linked_role_invalid_service0Bb_
FNDA:1,_RNCNvNtNtNtNtCs9VsQExrgwtF_4wami7service8identity19service_linked_role5testss_50test_create_service_linked_role_with_custom_suffix0Bb_
FNF:15
FNH:15
DA:24,4
DA:25,4
DA:26,4
DA:29,4
DA:30,4
DA:31,4
DA:32,4
DA:33,4
DA:35,4
DA:38,3
DA:39,1
DA:40,2
DA:43,3
DA:44,3
DA:45,3
DA:49,3
DA:52,3
DA:53,3
DA:58,3
DA:59,3
DA:60,3
DA:61,3
DA:62,3
DA:63,3
DA:64,3
DA:65,0
DA:68,3
DA:69,4
DA:72,1
DA:73,1
DA:74,1
DA:75,1
DA:76,1
DA:77,1
DA:78,1
DA:79,1
DA:80,1
DA:81,1
DA:91,4
DA:92,4
DA:93,4
DA:94,4
DA:96,4
DA:97,4
DA:98,4
DA:99,4
DA:100,4
DA:101,4
DA:102,4
DA:103,4
DA:104,4
DA:105,4
DA:106,4
DA:107,4
DA:110,1
DA:111,1
DA:113,1
DA:114,1
DA:115,1
DA:116,1
DA:117,1
DA:119,1
DA:120,1
DA:121,1
DA:122,1
DA:123,1
DA:124,1
DA:125,1
DA:126,1
DA:127,1
DA:128,1
DA:129,1
DA:132,1
DA:133,1
DA:135,1
DA:136,1
DA:137,1
DA:138,1
DA:139,1
DA:141,1
DA:142,1
DA:143,1
DA:144,1
DA:145,1
DA:146,1
DA:147,1
DA:150,1
DA:151,1
DA:153,1
DA:154,1
DA:155,1
DA:156,1
DA:157,1
DA:159,1
DA:160,1
DA:161,1
DA:162,1
DA:165,1
DA:166,1
DA:169,1
DA:170,1
DA:171,1
DA:172,1
DA:173,1
DA:174,1
DA:175,1
DA:176,1
DA:177,1
DA:178,1
DA:181,1
DA:182,1
DA:183,1
DA:184,1
DA:185,1
DA:186,1
BRF:0
BRH:0
LF:125
LH:124
end_of_record
SF:/Users/lsh/projects/crates/wami/src/service/identity/user.rs
FN:67,_RNCNCNvMNtNtNtCs9VsQExrgwtF_4wami7service8identity4userINtB6_11UserServiceNtNtNtNtBc_5store6memory4wami17InMemoryWamiStoreE11update_user00Bc_
FN:92,_RNCNvMNtNtNtCs9VsQExrgwtF_4wami7service8identity4userINtB4_11UserServiceNtNtNtNtBa_5store6memory4wami17InMemoryWamiStoreE10list_users0Ba_
FN:111,_RNCNvMNtNtNtCs9VsQExrgwtF_4wami7service8identity4userINtB4_11UserServiceNtNtNtNtBa_5store6memory4wami17InMemoryWamiStoreE10untag_user0Ba_
FN:32,_RNCNvMNtNtNtCs9VsQExrgwtF_4wami7service8identity4userINtB4_11UserServiceNtNtNtNtBa_5store6memory4wami17InMemoryWamiStoreE11create_user0Ba_
FN:84,_RNCNvMNtNtNtCs9VsQExrgwtF_4wami7service8identity4userINtB4_11UserServiceNtNtNtNtBa_5store6memory4wami17InMemoryWamiStoreE11delete_user0Ba_
FN:58,_RNCNvMNtNtNtCs9VsQExrgwtF_4wami7service8identity4userINtB4_11UserServiceNtNtNtNtBa_5store6memory4wami17InMemoryWamiStoreE11update_user0Ba_
FN:106,_RNCNvMNtNtNtCs9VsQExrgwtF_4wami7service8identity4userINtB4_11UserServiceNtNtNtNtBa_5store6memory4wami17InMemoryWamiStoreE14list_user_tags0Ba_
FN:53,_RNCNvMNtNtNtCs9VsQExrgwtF_4wami7service8identity4userINtB4_11UserServiceNtNtNtNtBa_5store6memory4wami17InMemoryWamiStoreE8get_user0Ba_
FN:101,_RNCNvMNtNtNtCs9VsQExrgwtF_4wami7service8identity4userINtB4_11UserServiceNtNtNtNtBa_5store6memory4wami17InMemoryWamiStoreE8tag_user0Ba_
FN:89,_RNvMNtNtNtCs9VsQExrgwtF_4wami7service8identity4userINtB2_11UserServiceNtNtNtNtB8_5store6memory4wami17InMemoryWamiStoreE10list_usersB8_
FN:111,_RNvMNtNtNtCs9VsQExrgwtF_4wami7service8identity4userINtB2_11UserServiceNtNtNtNtB8_5store6memory4wami17InMemoryWamiStoreE10untag_userB8_
FN:28,_RNvMNtNtNtCs9VsQExrgwtF_4wami7service8identity4userINtB2_11UserServiceNtNtNtNtB8_5store6memory4wami17InMemoryWamiStoreE11create_userB8_
FN:84,_RNvMNtNtNtCs9VsQExrgwtF_4wami7service8identity4userINtB2_11UserServiceNtNtNtNtB8_5store6memory4wami17InMemoryWamiStoreE11delete_userB8_
FN:58,_RNvMNtNtNtCs9VsQExrgwtF_4wami7service8identity4userINtB2_11UserServiceNtNtNtNtB8_5store6memory4wami17InMemoryWamiStoreE11update_userB8_
FN:106,_RNvMNtNtNtCs9VsQExrgwtF_4wami7service8identity4userINtB2_11UserServiceNtNtNtNtB8_5store6memory4wami17InMemoryWamiStoreE14list_user_tagsB8_
FN:23,_RNvMNtNtNtCs9VsQExrgwtF_4wami7service8identity4userINtB2_11UserServiceNtNtNtNtB8_5store6memory4wami17InMemoryWamiStoreE3newB8_
FN:53,_RNvMNtNtNtCs9VsQExrgwtF_4wami7service8identity4userINtB2_11UserServiceNtNtNtNtB8_5store6memory4wami17InMemoryWamiStoreE8get_userB8_
FN:101,_RNvMNtNtNtCs9VsQExrgwtF_4wami7service8identity4userINtB2_11UserServiceNtNtNtNtB8_5store6memory4wami17InMemoryWamiStoreE8tag_userB8_
FN:211,_RNCNvNtNtNtNtCs9VsQExrgwtF_4wami7service8identity4user5testss_15test_list_users0Bb_
FN:192,_RNCNvNtNtNtNtCs9VsQExrgwtF_4wami7service8identity4user5testss_16test_delete_user0Bb_
FN:167,_RNCNvNtNtNtNtCs9VsQExrgwtF_4wami7service8identity4user5testss_16test_update_user0Bb_
FN:235,_RNCNvNtNtNtNtCs9VsQExrgwtF_4wami7service8identity4user5testss_19test_tag_operations0Bb_
FN:146,_RNCNvNtNtNtNtCs9VsQExrgwtF_4wami7service8identity4user5testss_24test_create_and_get_user0Bb_
FN:132,_RNvNtNtNtNtCs9VsQExrgwtF_4wami7service8identity4user5tests12test_context
FN:127,_RNvNtNtNtNtCs9VsQExrgwtF_4wami7service8identity4user5tests13setup_service
FN:211,_RNvNtNtNtNtCs9VsQExrgwtF_4wami7service8identity4user5testss_15test_list_users
FN:192,_RNvNtNtNtNtCs9VsQExrgwtF_4wami7service8identity4user5testss_16test_delete_user
FN:167,_RNvNtNtNtNtCs9VsQExrgwtF_4wami7service8identity4user5testss_16test_update_user
FN:235,_RNvNtNtNtNtCs9VsQExrgwtF_4wami7service8identity4user5testss_19test_tag_operations
FN:146,_RNvNtNtNtNtCs9VsQExrgwtF_4wami7service8identity4user5testss_24test_create_and_get_user
FNDA:0,_RNCNCNvMNtNtNtCs9VsQExrgwtF_4wami7service8identity4userINtB6_11UserServiceNtNtNtNtBc_5store6memory4wami17InMemoryWamiStoreE11update_user00Bc_
FNDA:1,_RNCNvMNtNtNtCs9VsQExrgwtF_4wami7service8identity4userINtB4_11UserServiceNtNtNtNtBa_5store6memory4wami17InMemoryWamiStoreE10list_users0Ba_
FNDA:1,_RNCNvMNtNtNtCs9VsQExrgwtF_4wami7service8identity4userINtB4_11UserServiceNtNtNtNtBa_5store6memory4wami17InMemoryWamiStoreE10untag_user0Ba_
FNDA:7,_RNCNvMNtNtNtCs9VsQExrgwtF_4wami7service8identity4userINtB4_11UserServiceNtNtNtNtBa_5store6memory4wami17InMemoryWamiStoreE11create_user0Ba_
FNDA:1,_RNCNvMNtNtNtCs9VsQExrgwtF_4wami7service8identity4userINtB4_11UserServiceNtNtNtNtBa_5store6memory4wami17InMemoryWamiStoreE11delete_user0Ba_
FNDA:1,_RNCNvMNtNtNtCs9VsQExrgwtF_4wami7service8identity4userINtB4_11UserServiceNtNtNtNtBa_5store6memory4wami17InMemoryWamiStoreE11update_user0Ba_
FNDA:2,_RNCNvMNtNtNtCs9VsQExrgwtF_4wami7service8identity4userINtB4_11UserServiceNtNtNtNtBa_5store6memory4wami17InMemoryWamiStoreE14list_user_tags0Ba_
FNDA:2,_RNCNvMNtNtNtCs9VsQExrgwtF_4wami7service8identity4userINtB4_11UserServiceNtNtNtNtBa_5store6memory4wami17InMemoryWamiStoreE8get_user0Ba_
FNDA:1,_RNCNvMNtNtNtCs9VsQExrgwtF_4wami7service8identity4userINtB4_11UserServiceNtNtNtNtBa_5store6memory4wami17InMemoryWamiStoreE8tag_user0Ba_
FNDA:1,_RNvMNtNtNtCs9VsQExrgwtF_4wami7service8identity4userINtB2_11UserServiceNtNtNtNtB8_5store6memory4wami17InMemoryWamiStoreE10list_usersB8_
FNDA:1,_RNvMNtNtNtCs9VsQExrgwtF_4wami7service8identity4userINtB2_11UserServiceNtNtNtNtB8_5store6memory4wami17InMemoryWamiStoreE10untag_userB8_
FNDA:7,_RNvMNtNtNtCs9VsQExrgwtF_4wami7service8identity4userINtB2_11UserServiceNtNtNtNtB8_5store6memory4wami17InMemoryWamiStoreE11create_userB8_
FNDA:1,_RNvMNtNtNtCs9VsQExrgwtF_4wami7service8identity4userINtB2_11UserServiceNtNtNtNtB8_5store6memory4wami17InMemoryWamiStoreE11delete_userB8_
FNDA:1,_RNvMNtNtNtCs9VsQExrgwtF_4wami7service8identity4userINtB2_11UserServiceNtNtNtNtB8_5store6memory4wami17InMemoryWamiStoreE11update_userB8_
FNDA:2,_RNvMNtNtNtCs9VsQExrgwtF_4wami7service8identity4userINtB2_11UserServiceNtNtNtNtB8_5store6memory4wami17InMemoryWamiStoreE14list_user_tagsB8_
FNDA:5,_RNvMNtNtNtCs9VsQExrgwtF_4wami7service8identity4userINtB2_11UserServiceNtNtNtNtB8_5store6memory4wami17InMemoryWamiStoreE3newB8_
FNDA:2,_RNvMNtNtNtCs9VsQExrgwtF_4wami7service8identity4userINtB2_11UserServiceNtNtNtNtB8_5store6memory4wami17InMemoryWamiStoreE8get_userB8_
FNDA:1,_RNvMNtNtNtCs9VsQExrgwtF_4wami7service8identity4userINtB2_11UserServiceNtNtNtNtB8_5store6memory4wami17InMemoryWamiStoreE8tag_userB8_
FNDA:1,_RNCNvNtNtNtNtCs9VsQExrgwtF_4wami7service8identity4user5testss_15test_list_users0Bb_
FNDA:1,_RNCNvNtNtNtNtCs9VsQExrgwtF_4wami7service8identity4user5testss_16test_delete_user0Bb_
FNDA:1,_RNCNvNtNtNtNtCs9VsQExrgwtF_4wami7service8identity4user5testss_16test_update_user0Bb_
FNDA:1,_RNCNvNtNtNtNtCs9VsQExrgwtF_4wami7service8identity4user5testss_19test_tag_operations0Bb_
FNDA:1,_RNCNvNtNtNtNtCs9VsQExrgwtF_4wami7service8identity4user5testss_24test_create_and_get_user0Bb_
FNDA:7,_RNvNtNtNtNtCs9VsQExrgwtF_4wami7service8identity4user5tests12test_context
FNDA:5,_RNvNtNtNtNtCs9VsQExrgwtF_4wami7service8identity4user5tests13setup_service
FNDA:1,_RNvNtNtNtNtCs9VsQExrgwtF_4wami7service8identity4user5testss_15test_list_users
FNDA:1,_RNvNtNtNtNtCs9VsQExrgwtF_4wami7service8identity4user5testss_16test_delete_user
FNDA:1,_RNvNtNtNtNtCs9VsQExrgwtF_4wami7service8identity4user5testss_16test_update_user
FNDA:1,_RNvNtNtNtNtCs9VsQExrgwtF_4wami7service8identity4user5testss_19test_tag_operations
FNDA:1,_RNvNtNtNtNtCs9VsQExrgwtF_4wami7service8identity4user5testss_24test_create_and_get_user
FNF:30
FNH:29
DA:23,5
DA:24,5
DA:25,5
DA:28,7
DA:29,7
DA:30,7
DA:31,7
DA:32,7
DA:34,7
DA:37,7
DA:38,0
DA:39,7
DA:42,7
DA:43,0
DA:45,7
DA:49,7
DA:50,7
DA:53,2
DA:54,2
DA:55,2
DA:58,1
DA:60,1
DA:61,1
DA:62,1
DA:63,1
DA:64,1
DA:65,1
DA:66,1
DA:67,0
DA:68,0
DA:71,1
DA:72,1
DA:73,1
DA:75,1
DA:76,1
DA:77,1
DA:80,1
DA:81,1
DA:84,1
DA:85,1
DA:86,1
DA:89,1
DA:90,1
DA:91,1
DA:92,1
DA:93,1
DA:94,1
DA:95,1
DA:96,1
DA:97,1
DA:98,1
DA:101,1
DA:102,1
DA:103,1
DA:106,2
DA:107,2
DA:108,2
DA:111,1
DA:112,1
DA:113,1
DA:114,1
DA:115,1
DA:116,1
DA:117,1
DA:127,5
DA:128,5
DA:129,5
DA:130,5
DA:132,7
DA:133,7
DA:134,7
DA:135,7
DA:136,7
DA:137,7
DA:138,7
DA:139,7
DA:140,7
DA:141,7
DA:142,7
DA:143,7
DA:146,1
DA:147,1
DA:148,1
DA:150,1
DA:151,1
DA:152,1
DA:153,1
DA:154,1
DA:155,1
DA:157,1
DA:158,1
DA:159,1
DA:161,1
DA:162,1
DA:163,1
DA:164,1
DA:167,1
DA:168,1
DA:169,1
DA:172,1
DA:173,1
DA:174,1
DA:175,1
DA:176,1
DA:177,1
DA:178,1
DA:181,1
DA:182,1
DA:183,1
DA:184,1
DA:185,1
DA:186,1
DA:187,1
DA:188,1
DA:189,1
DA:192,1
DA:193,1
DA:195,1
DA:196,1
DA:197,1
DA:198,1
DA:199,1
DA:200,1
DA:201,1
DA:202,1
DA:204,1
DA:206,1
DA:207,1
DA:208,1
DA:211,1
DA:212,1
DA:215,3
DA:216,3
DA:217,3
DA:218,3
DA:219,3
DA:220,3
DA:221,3
DA:222,3
DA:223,3
DA:226,1
DA:227,1
DA:228,1
DA:229,1
DA:230,1
DA:231,1
DA:232,1
DA:235,1
DA:236,1
DA:238,1
DA:239,1
DA:240,1
DA:241,1
DA:242,1
DA:243,1
DA:244,1
DA:245,1
DA:248,1
DA:249,1
DA:250,1
DA:251,1
DA:252,1
DA:255,1
DA:256,1
DA:257,1
DA:260,1
DA:261,1
DA:262,1
DA:263,1
DA:265,1
DA:266,1
DA:267,1
BRF:0
BRH:0
LF:191
LH:186
end_of_record
SF:/Users/lsh/projects/crates/wami/src/service/policies/attachment.rs
FN:276,_RNCNCNvMNtNtNtCs9VsQExrgwtF_4wami7service8policies10attachmentINtB6_17AttachmentServicepE18attach_role_policy00Bc_
FN:284,_RNCNCNvMNtNtNtCs9VsQExrgwtF_4wami7service8policies10attachmentINtB6_17AttachmentServicepE18attach_role_policy0s_0Bc_
FN:38,_RNCNCNvMNtNtNtCs9VsQExrgwtF_4wami7service8policies10attachmentINtB6_17AttachmentServicepE18attach_user_policy00Bc_
FN:46,_RNCNCNvMNtNtNtCs9VsQExrgwtF_4wami7service8policies10attachmentINtB6_17AttachmentServicepE18attach_user_policy0s_0Bc_
FN:324,_RNCNCNvMNtNtNtCs9VsQExrgwtF_4wami7service8policies10attachmentINtB6_17AttachmentServicepE18detach_role_policy00Bc_
FN:86,_RNCNCNvMNtNtNtCs9VsQExrgwtF_4wami7service8policies10attachmentINtB6_17AttachmentServicepE18detach_user_policy00Bc_
FN:157,_RNCNCNvMNtNtNtCs9VsQExrgwtF_4wami7service8policies10attachmentINtB6_17AttachmentServicepE19attach_group_policy00Bc_
FN:165,_RNCNCNvMNtNtNtCs9VsQExrgwtF_4wami7service8policies10attachmentINtB6_17AttachmentServicepE19attach_group_policy0s_0Bc_
FN:205,_RNCNCNvMNtNtNtCs9VsQExrgwtF_4wami7service8policies10attachmentINtB6_17AttachmentServicepE19detach_group_policy00Bc_
FN:359,_RNCNCNvMNtNtNtCs9VsQExrgwtF_4wami7service8policies10attachmentINtB6_17AttachmentServicepE27list_attached_role_policies00Bc_
FN:121,_RNCNCNvMNtNtNtCs9VsQExrgwtF_4wami7service8policies10attachmentINtB6_17AttachmentServicepE27list_attached_user_policies00Bc_
FN:240,_RNCNCNvMNtNtNtCs9VsQExrgwtF_4wami7service8policies10attachmentINtB6_17AttachmentServicepE28list_attached_group_policies00Bc_
FN:268,_RNCNvMNtNtNtCs9VsQExrgwtF_4wami7service8policies10attachmentINtB4_17AttachmentServicepE18attach_role_policy0Ba_
FN:30,_RNCNvMNtNtNtCs9VsQExrgwtF_4wami7service8policies10attachmentINtB4_17AttachmentServicepE18attach_user_policy0Ba_
FN:316,_RNCNvMNtNtNtCs9VsQExrgwtF_4wami7service8policies10attachmentINtB4_17AttachmentServicepE18detach_role_policy0Ba_
FN:78,_RNCNvMNtNtNtCs9VsQExrgwtF_4wami7service8policies10attachmentINtB4_17AttachmentServicepE18detach_user_policy0Ba_
FN:149,_RNCNvMNtNtNtCs9VsQExrgwtF_4wami7service8policies10attachmentINtB4_17AttachmentServicepE19attach_group_policy0Ba_
FN:197,_RNCNvMNtNtNtCs9VsQExrgwtF_4wami7service8policies10attachmentINtB4_17AttachmentServicepE19detach_group_policy0Ba_
FN:351,_RNCNvMNtNtNtCs9VsQExrgwtF_4wami7service8policies10attachmentINtB4_17AttachmentServicepE27list_attached_role_policies0Ba_
FN:113,_RNCNvMNtNtNtCs9VsQExrgwtF_4wami7service8policies10attachmentINtB4_17AttachmentServicepE27list_attached_user_policies0Ba_
FN:232,_RNCNvMNtNtNtCs9VsQExrgwtF_4wami7service8policies10attachmentINtB4_17AttachmentServicepE28list_attached_group_policies0Ba_
FN:265,_RNvMNtNtNtCs9VsQExrgwtF_4wami7service8policies10attachmentINtB2_17AttachmentServicepE18attach_role_policyB8_
FN:27,_RNvMNtNtNtCs9VsQExrgwtF_4wami7service8policies10attachmentINtB2_17AttachmentServicepE18attach_user_policyB8_
FN:313,_RNvMNtNtNtCs9VsQExrgwtF_4wami7service8policies10attachmentINtB2_17AttachmentServicepE18detach_role_policyB8_
FN:75,_RNvMNtNtNtCs9VsQExrgwtF_4wami7service8policies10attachmentINtB2_17AttachmentServicepE18detach_user_policyB8_
FN:146,_RNvMNtNtNtCs9VsQExrgwtF_4wami7service8policies10attachmentINtB2_17AttachmentServicepE19attach_group_policyB8_
FN:194,_RNvMNtNtNtCs9VsQExrgwtF_4wami7service8policies10attachmentINtB2_17AttachmentServicepE19detach_group_policyB8_
FN:348,_RNvMNtNtNtCs9VsQExrgwtF_4wami7service8policies10attachmentINtB2_17AttachmentServicepE27list_attached_role_policiesB8_
FN:110,_RNvMNtNtNtCs9VsQExrgwtF_4wami7service8policies10attachmentINtB2_17AttachmentServicepE27list_attached_user_policiesB8_
FN:229,_RNvMNtNtNtCs9VsQExrgwtF_4wami7service8policies10attachmentINtB2_17AttachmentServicepE28list_attached_group_policiesB8_
FN:20,_RNvMNtNtNtCs9VsQExrgwtF_4wami7service8policies10attachmentINtB2_17AttachmentServicepE3newB8_
FNDA:0,_RNCNCNvMNtNtNtCs9VsQExrgwtF_4wami7service8policies10attachmentINtB6_17AttachmentServicepE18attach_role_policy00Bc_
FNDA:0,_RNCNCNvMNtNtNtCs9VsQExrgwtF_4wami7service8policies10attachmentINtB6_17AttachmentServicepE18attach_role_policy0s_0Bc_
FNDA:0,_RNCNCNvMNtNtNtCs9VsQExrgwtF_4wami7service8policies10attachmentINtB6_17AttachmentServicepE18attach_user_policy00Bc_
FNDA:0,_RNCNCNvMNtNtNtCs9VsQExrgwtF_4wami7service8policies10attachmentINtB6_17AttachmentServicepE18attach_user_policy0s_0Bc_
FNDA:0,_RNCNCNvMNtNtNtCs9VsQExrgwtF_4wami7service8policies10attachmentINtB6_17AttachmentServicepE18detach_role_policy00Bc_
FNDA:0,_RNCNCNvMNtNtNtCs9VsQExrgwtF_4wami7service8policies10attachmentINtB6_17AttachmentServicepE18detach_user_policy00Bc_
FNDA:0,_RNCNCNvMNtNtNtCs9VsQExrgwtF_4wami7service8policies10attachmentINtB6_17AttachmentServicepE19attach_group_policy00Bc_
FNDA:0,_RNCNCNvMNtNtNtCs9VsQExrgwtF_4wami7service8policies10attachmentINtB6_17AttachmentServicepE19attach_group_policy0s_0Bc_
FNDA:0,_RNCNCNvMNtNtNtCs9VsQExrgwtF_4wami7service8policies10attachmentINtB6_17AttachmentServicepE19detach_group_policy00Bc_
FNDA:0,_RNCNCNvMNtNtNtCs9VsQExrgwtF_4wami7service8policies10attachmentINtB6_17AttachmentServicepE27list_attached_role_policies00Bc_
FNDA:0,_RNCNCNvMNtNtNtCs9VsQExrgwtF_4wami7service8policies10attachmentINtB6_17AttachmentServicepE27list_attached_user_policies00Bc_
FNDA:0,_RNCNCNvMNtNtNtCs9VsQExrgwtF_4wami7service8policies10attachmentINtB6_17AttachmentServicepE28list_attached_group_policies00Bc_
FNDA:0,_RNCNvMNtNtNtCs9VsQExrgwtF_4wami7service8policies10attachmentINtB4_17AttachmentServicepE18attach_role_policy0Ba_
FNDA:0,_RNCNvMNtNtNtCs9VsQExrgwtF_4wami7service8policies10attachmentINtB4_17AttachmentServicepE18attach_user_policy0Ba_
FNDA:0,_RNCNvMNtNtNtCs9VsQExrgwtF_4wami7service8policies10attachmentINtB4_17AttachmentServicepE18detach_role_policy0Ba_
FNDA:0,_RNCNvMNtNtNtCs9VsQExrgwtF_4wami7service8policies10attachmentINtB4_17AttachmentServicepE18detach_user_policy0Ba_
FNDA:0,_RNCNvMNtNtNtCs9VsQExrgwtF_4wami7service8policies10attachmentINtB4_17AttachmentServicepE19attach_group_policy0Ba_
FNDA:0,_RNCNvMNtNtNtCs9VsQExrgwtF_4wami7service8policies10attachmentINtB4_17AttachmentServicepE19detach_group_policy0Ba_
FNDA:0,_RNCNvMNtNtNtCs9VsQExrgwtF_4wami7service8policies10attachmentINtB4_17AttachmentServicepE27list_attached_role_policies0Ba_
FNDA:0,_RNCNvMNtNtNtCs9VsQExrgwtF_4wami7service8policies10attachmentINtB4_17AttachmentServicepE27list_attached_user_policies0Ba_
FNDA:0,_RNCNvMNtNtNtCs9VsQExrgwtF_4wami7service8policies10attachmentINtB4_17AttachmentServicepE28list_attached_group_policies0Ba_
FNDA:0,_RNvMNtNtNtCs9VsQExrgwtF_4wami7service8policies10attachmentINtB2_17AttachmentServicepE18attach_role_policyB8_
FNDA:0,_RNvMNtNtNtCs9VsQExrgwtF_4wami7service8policies10attachmentINtB2_17AttachmentServicepE18attach_user_policyB8_
FNDA:0,_RNvMNtNtNtCs9VsQExrgwtF_4wami7service8policies10attachmentINtB2_17AttachmentServicepE18detach_role_policyB8_
FNDA:0,_RNvMNtNtNtCs9VsQExrgwtF_4wami7service8policies10attachmentINtB2_17AttachmentServicepE18detach_user_policyB8_
FNDA:0,_RNvMNtNtNtCs9VsQExrgwtF_4wami7service8policies10attachmentINtB2_17AttachmentServicepE19attach_group_policyB8_
FNDA:0,_RNvMNtNtNtCs9VsQExrgwtF_4wami7service8policies10attachmentINtB2_17AttachmentServicepE19detach_group_policyB8_
FNDA:0,_RNvMNtNtNtCs9VsQExrgwtF_4wami7service8policies10attachmentINtB2_17AttachmentServicepE27list_attached_role_policiesB8_
FNDA:0,_RNvMNtNtNtCs9VsQExrgwtF_4wami7service8policies10attachmentINtB2_17AttachmentServicepE27list_attached_user_policiesB8_
FNDA:0,_RNvMNtNtNtCs9VsQExrgwtF_4wami7service8policies10attachmentINtB2_17AttachmentServicepE28list_attached_group_policiesB8_
FNDA:0,_RNvMNtNtNtCs9VsQExrgwtF_4wami7service8policies10attachmentINtB2_17AttachmentServicepE3newB8_
FNF:31
FNH:0
DA:20,0
DA:21,0
DA:22,0
DA:27,0
DA:28,0
DA:29,0
DA:30,0
DA:31,0
DA:34,0
DA:35,0
DA:36,0
DA:37,0
DA:38,0
DA:39,0
DA:42,0
DA:43,0
DA:44,0
DA:45,0
DA:46,0
DA:47,0
DA:50,0
DA:51,0
DA:52,0
DA:53,0
DA:54,0
DA:57,0
DA:58,0
DA:59,0
DA:62,0
DA:63,0
DA:64,0
DA:66,0
DA:67,0
DA:68,0
DA:69,0
DA:70,0
DA:71,0
DA:72,0
DA:75,0
DA:76,0
DA:77,0
DA:78,0
DA:79,0
DA:82,0
DA:83,0
DA:84,0
DA:85,0
DA:86,0
DA:87,0
DA:90,0
DA:91,0
DA:92,0
DA:95,0
DA:96,0
DA:97,0
DA:98,0
DA:99,0
DA:101,0
DA:102,0
DA:103,0
DA:104,0
DA:105,0
DA:106,0
DA:107,0
DA:110,0
DA:111,0
DA:112,0
DA:113,0
DA:114,0
DA:117,0
DA:118,0
DA:119,0
DA:120,0
DA:121,0
DA:122,0
DA:125,0
DA:126,0
DA:127,0
DA:130,0
DA:131,0
DA:132,0
DA:133,0
DA:134,0
DA:135,0
DA:136,0
DA:137,0
DA:140,0
DA:141,0
DA:146,0
DA:147,0
DA:148,0
DA:149,0
DA:150,0
DA:153,0
DA:154,0
DA:155,0
DA:156,0
DA:157,0
DA:158,0
DA:161,0
DA:162,0
DA:163,0
DA:164,0
DA:165,0
DA:166,0
DA:169,0
DA:170,0
DA:171,0
DA:172,0
DA:173,0
DA:176,0
DA:177,0
DA:178,0
DA:181,0
DA:182,0
DA:183,0
DA:185,0
DA:186,0
DA:187,0
DA:188,0
DA:189,0
DA:190,0
DA:191,0
DA:194,0
DA:195,0
DA:196,0
DA:197,0
DA:198,0
DA:201,0
DA:202,0
DA:203,0
DA:204,0
DA:205,0
DA:206,0
DA:209,0
DA:210,0
DA:211,0
DA:214,0
DA:215,0
DA:216,0
DA:217,0
DA:218,0
DA:220,0
DA:221,0
DA:222,0
DA:223,0
DA:224,0
DA:225,0
DA:226,0
DA:229,0
DA:230,0
DA:231,0
DA:232,0
DA:233,0
DA:236,0
DA:237,0
DA:238,0
DA:239,0
DA:240,0
DA:241,0
DA:244,0
DA:245,0
DA:246,0
DA:249,0
DA:250,0
DA:251,0
DA:252,0
DA:253,0
DA:254,0
DA:255,0
DA:256,0
DA:259,0
DA:260,0
DA:265,0
DA:266,0
DA:267,0
DA:268,0
DA:269,0
DA:272,0
DA:273,0
DA:274,0
DA:275,0
DA:276,0
DA:277,0
DA:280,0
DA:281,0
DA:282,0
DA:283,0
DA:284,0
DA:285,0
DA:288,0
DA:289,0
DA:290,0
DA:291,0
DA:292,0
DA:295,0
DA:296,0
DA:297,0
DA:300,0
DA:301,0
DA:302,0
DA:304,0
DA:305,0
DA:306,0
DA:307,0
DA:308,0
DA:309,0
DA:310,0
DA:313,0
DA:314,0
DA:315,0
DA:316,0
DA:317,0
DA:320,0
DA:321,0
DA:322,0
DA:323,0
DA:324,0
DA:325,0
DA:328,0
DA:329,0
DA:330,0
DA:333,0
DA:334,0
DA:335,0
DA:336,0
DA:337,0
DA:339,0
DA:340,0
DA:341,0
DA:342,0
DA:343,0
DA:344,0
DA:345,0
DA:348,0
DA:349,0
DA:350,0
DA:351,0
DA:352,0
DA:355,0
DA:356,0
DA:357,0
DA:358,0
DA:359,0
DA:360,0
DA:363,0
DA:364,0
DA:365,0
DA:368,0
DA:369,0
DA:370,0
DA:371,0
DA:372,0
DA:373,0
DA:374,0
DA:375,0
DA:378,0
DA:379,0
BRF:0
BRH:0
LF:279
LH:0
end_of_record
SF:/Users/lsh/projects/crates/wami/src/service/policies/evaluation.rs
FN:36,_RNvMNtNtNtCs9VsQExrgwtF_4wami7service8policies10evaluationINtB2_17EvaluationServicepE13with_providerB8_
FN:592,_RNCNCNvNtNtNtNtCs9VsQExrgwtF_4wami7service8policies10evaluation5testss_36test_simulate_custom_policy_wildcard00Bd_
FN:652,_RNCNvNtNtNtNtCs9VsQExrgwtF_4wami7service8policies10evaluation5testss_29test_parse_principal_arn_role0Bb_
FN:640,_RNCNvNtNtNtNtCs9VsQExrgwtF_4wami7service8policies10evaluation5testss_29test_parse_principal_arn_user0Bb_
FN:509,_RNCNvNtNtNtNtCs9VsQExrgwtF_4wami7service8policies10evaluation5testss_32test_simulate_custom_policy_deny0Bb_
FN:481,_RNCNvNtNtNtNtCs9VsQExrgwtF_4wami7service8policies10evaluation5testss_33test_simulate_custom_policy_allow0Bb_
FN:664,_RNCNvNtNtNtNtCs9VsQExrgwtF_4wami7service8policies10evaluation5testss_34test_parse_principal_arn_with_path0Bb_
FN:596,_RNCNvNtNtNtNtCs9VsQExrgwtF_4wami7service8policies10evaluation5testss_35test_simulate_principal_policy_user0Bb_
FN:565,_RNCNvNtNtNtNtCs9VsQExrgwtF_4wami7service8policies10evaluation5testss_36test_simulate_custom_policy_wildcard0Bb_
FN:537,_RNCNvNtNtNtNtCs9VsQExrgwtF_4wami7service8policies10evaluation5testss_41test_simulate_custom_policy_implicit_deny0Bb_
FN:467,_RNvNtNtNtNtCs9VsQExrgwtF_4wami7service8policies10evaluation5tests12test_context
FN:462,_RNvNtNtNtNtCs9VsQExrgwtF_4wami7service8policies10evaluation5tests13setup_service
FN:652,_RNvNtNtNtNtCs9VsQExrgwtF_4wami7service8policies10evaluation5testss_29test_parse_principal_arn_role
FN:640,_RNvNtNtNtNtCs9VsQExrgwtF_4wami7service8policies10evaluation5testss_29test_parse_principal_arn_user
FN:509,_RNvNtNtNtNtCs9VsQExrgwtF_4wami7service8policies10evaluation5testss_32test_simulate_custom_policy_deny
FN:481,_RNvNtNtNtNtCs9VsQExrgwtF_4wami7service8policies10evaluation5testss_33test_simulate_custom_policy_allow
FN:664,_RNvNtNtNtNtCs9VsQExrgwtF_4wami7service8policies10evaluation5testss_34test_parse_principal_arn_with_path
FN:596,_RNvNtNtNtNtCs9VsQExrgwtF_4wami7service8policies10evaluation5testss_35test_simulate_principal_policy_user
FN:565,_RNvNtNtNtNtCs9VsQExrgwtF_4wami7service8policies10evaluation5testss_36test_simulate_custom_policy_wildcard
FN:537,_RNvNtNtNtNtCs9VsQExrgwtF_4wami7service8policies10evaluation5testss_41test_simulate_custom_policy_implicit_deny
FN:57,_RNCNCNCNvMNtNtNtCs9VsQExrgwtF_4wami7service8policies10evaluationINtB8_17EvaluationServiceNtNtNtNtBe_5store6memory4wami17InMemoryWamiStoreE22simulate_custom_policy000Be_
FN:368,_RNCNCNCNvMNtNtNtCs9VsQExrgwtF_4wami7service8policies10evaluationINtB8_17EvaluationServiceNtNtNtNtBe_5store6memory4wami17InMemoryWamiStoreE29evaluate_action_with_boundarys0_000Be_
FN:372,_RNCNCNCNvMNtNtNtCs9VsQExrgwtF_4wami7service8policies10evaluationINtB8_17EvaluationServiceNtNtNtNtBe_5store6memory4wami17InMemoryWamiStoreE29evaluate_action_with_boundarys0_00s_0Be_
FN:55,_RNCNCNvMNtNtNtCs9VsQExrgwtF_4wami7service8policies10evaluationINtB6_17EvaluationServiceNtNtNtNtBc_5store6memory4wami17InMemoryWamiStoreE22simulate_custom_policy00Bc_
FN:67,_RNCNCNvMNtNtNtCs9VsQExrgwtF_4wami7service8policies10evaluationINtB6_17EvaluationServiceNtNtNtNtBc_5store6memory4wami17InMemoryWamiStoreE22simulate_custom_policy0s_0Bc_
FN:211,_RNCNCNvMNtNtNtCs9VsQExrgwtF_4wami7service8policies10evaluationINtB6_17EvaluationServiceNtNtNtNtBc_5store6memory4wami17InMemoryWamiStoreE24fetch_principal_policies00Bc_
FN:230,_RNCNCNvMNtNtNtCs9VsQExrgwtF_4wami7service8policies10evaluationINtB6_17EvaluationServiceNtNtNtNtBc_5store6memory4wami17InMemoryWamiStoreE24fetch_principal_policies0s_0Bc_
FN:119,_RNCNCNvMNtNtNtCs9VsQExrgwtF_4wami7service8policies10evaluationINtB6_17EvaluationServiceNtNtNtNtBc_5store6memory4wami17InMemoryWamiStoreE25simulate_principal_policy00Bc_
FN:128,_RNCNCNvMNtNtNtCs9VsQExrgwtF_4wami7service8policies10evaluationINtB6_17EvaluationServiceNtNtNtNtBc_5store6memory4wami17InMemoryWamiStoreE25simulate_principal_policy0s_0Bc_
FN:260,_RNCNCNvMNtNtNtCs9VsQExrgwtF_4wami7service8policies10evaluationINtB6_17EvaluationServiceNtNtNtNtBc_5store6memory4wami17InMemoryWamiStoreE26fetch_permissions_boundary00Bc_
FN:272,_RNCNCNvMNtNtNtCs9VsQExrgwtF_4wami7service8policies10evaluationINtB6_17EvaluationServiceNtNtNtNtBc_5store6memory4wami17InMemoryWamiStoreE26fetch_permissions_boundary0s_0Bc_
FN:364,_RNCNCNvMNtNtNtCs9VsQExrgwtF_4wami7service8policies10evaluationINtB6_17EvaluationServiceNtNtNtNtBc_5store6memory4wami17InMemoryWamiStoreE29evaluate_action_with_boundarys0_00Bc_
FN:302,_RNCNvMNtNtNtCs9VsQExrgwtF_4wami7service8policies10evaluationINtB4_17EvaluationServiceNtNtNtNtBa_5store6memory4wami17InMemoryWamiStoreE15evaluate_action0Ba_
FN:307,_RNCNvMNtNtNtCs9VsQExrgwtF_4wami7service8policies10evaluationINtB4_17EvaluationServiceNtNtNtNtBa_5store6memory4wami17InMemoryWamiStoreE15evaluate_actions_0Ba_
FN:50,_RNCNvMNtNtNtCs9VsQExrgwtF_4wami7service8policies10evaluationINtB4_17EvaluationServiceNtNtNtNtBa_5store6memory4wami17InMemoryWamiStoreE22simulate_custom_policy0Ba_
FN:198,_RNCNvMNtNtNtCs9VsQExrgwtF_4wami7service8policies10evaluationINtB4_17EvaluationServiceNtNtNtNtBa_5store6memory4wami17InMemoryWamiStoreE24fetch_principal_policies0Ba_
FN:419,_RNCNvMNtNtNtCs9VsQExrgwtF_4wami7service8policies10evaluationINtB4_17EvaluationServiceNtNtNtNtBa_5store6memory4wami17InMemoryWamiStoreE24find_matching_statements0Ba_
FN:424,_RNCNvMNtNtNtCs9VsQExrgwtF_4wami7service8policies10evaluationINtB4_17EvaluationServiceNtNtNtNtBa_5store6memory4wami17InMemoryWamiStoreE24find_matching_statementss_0Ba_
FN:99,_RNCNvMNtNtNtCs9VsQExrgwtF_4wami7service8policies10evaluationINtB4_17EvaluationServiceNtNtNtNtBa_5store6memory4wami17InMemoryWamiStoreE25simulate_principal_policy0Ba_
FN:250,_RNCNvMNtNtNtCs9VsQExrgwtF_4wami7service8policies10evaluationINtB4_17EvaluationServiceNtNtNtNtBa_5store6memory4wami17InMemoryWamiStoreE26fetch_permissions_boundary0Ba_
FN:349,_RNCNvMNtNtNtCs9VsQExrgwtF_4wami7service8policies10evaluationINtB4_17EvaluationServiceNtNtNtNtBa_5store6memory4wami17InMemoryWamiStoreE29evaluate_action_with_boundary0Ba_
FN:363,_RNCNvMNtNtNtCs9VsQExrgwtF_4wami7service8policies10evaluationINtB4_17EvaluationServiceNtNtNtNtBa_5store6memory4wami17InMemoryWamiStoreE29evaluate_action_with_boundarys0_0Ba_
FN:354,_RNCNvMNtNtNtCs9VsQExrgwtF_4wami7service8policies10evaluationINtB4_17EvaluationServiceNtNtNtNtBa_5store6memory4wami17InMemoryWamiStoreE29evaluate_action_with_boundarys_0Ba_
FN:293,_RNvMNtNtNtCs9VsQExrgwtF_4wami7service8policies10evaluationINtB2_17EvaluationServiceNtNtNtNtB8_5store6memory4wami17InMemoryWamiStoreE15evaluate_actionB8_
FN:441,_RNvMNtNtNtCs9VsQExrgwtF_4wami7service8policies10evaluationINtB2_17EvaluationServiceNtNtNtNtB8_5store6memory4wami17InMemoryWamiStoreE15matches_patternB8_
FN:163,_RNvMNtNtNtCs9VsQExrgwtF_4wami7service8policies10evaluationINtB2_17EvaluationServiceNtNtNtNtB8_5store6memory4wami17InMemoryWamiStoreE19parse_principal_arnB8_
FN:47,_RNvMNtNtNtCs9VsQExrgwtF_4wami7service8policies10evaluationINtB2_17EvaluationServiceNtNtNtNtB8_5store6memory4wami17InMemoryWamiStoreE22simulate_custom_policyB8_
FN:194,_RNvMNtNtNtCs9VsQExrgwtF_4wami7service8policies10evaluationINtB2_17EvaluationServiceNtNtNtNtB8_5store6memory4wami17InMemoryWamiStoreE24fetch_principal_policiesB8_
FN:406,_RNvMNtNtNtCs9VsQExrgwtF_4wami7service8policies10evaluationINtB2_17EvaluationServiceNtNtNtNtB8_5store6memory4wami17InMemoryWamiStoreE24find_matching_statementsB8_
FN:96,_RNvMNtNtNtCs9VsQExrgwtF_4wami7service8policies10evaluationINtB2_17EvaluationServiceNtNtNtNtB8_5store6memory4wami17InMemoryWamiStoreE25simulate_principal_policyB8_
FN:246,_RNvMNtNtNtCs9VsQExrgwtF_4wami7service8policies10evaluationINtB2_17EvaluationServiceNtNtNtNtB8_5store6memory4wami17InMemoryWamiStoreE26fetch_permissions_boundaryB8_
FN:336,_RNvMNtNtNtCs9VsQExrgwtF_4wami7service8policies10evaluationINtB2_17EvaluationServiceNtNtNtNtB8_5store6memory4wami17InMemoryWamiStoreE29evaluate_action_with_boundaryB8_
FN:27,_RNvMNtNtNtCs9VsQExrgwtF_4wami7service8policies10evaluationINtB2_17EvaluationServiceNtNtNtNtB8_5store6memory4wami17InMemoryWamiStoreE3newB8_
FNDA:0,_RNvMNtNtNtCs9VsQExrgwtF_4wami7service8policies10evaluationINtB2_17EvaluationServicepE13with_providerB8_
FNDA:2,_RNCNCNvNtNtNtNtCs9VsQExrgwtF_4wami7service8policies10evaluation5testss_36test_simulate_custom_policy_wildcard00Bd_
FNDA:1,_RNCNvNtNtNtNtCs9VsQExrgwtF_4wami7service8policies10evaluation5testss_29test_parse_principal_arn_role0Bb_
FNDA:1,_RNCNvNtNtNtNtCs9VsQExrgwtF_4wami7service8policies10evaluation5testss_29test_parse_principal_arn_user0Bb_
FNDA:1,_RNCNvNtNtNtNtCs9VsQExrgwtF_4wami7service8policies10evaluation5testss_32test_simulate_custom_policy_deny0Bb_
FNDA:1,_RNCNvNtNtNtNtCs9VsQExrgwtF_4wami7service8policies10evaluation5testss_33test_simulate_custom_policy_allow0Bb_
FNDA:1,_RNCNvNtNtNtNtCs9VsQExrgwtF_4wami7service8policies10evaluation5testss_34test_parse_principal_arn_with_path0Bb_
FNDA:1,_RNCNvNtNtNtNtCs9VsQExrgwtF_4wami7service8policies10evaluation5testss_35test_simulate_principal_policy_user0Bb_
FNDA:1,_RNCNvNtNtNtNtCs9VsQExrgwtF_4wami7service8policies10evaluation5testss_36test_simulate_custom_policy_wildcard0Bb_
FNDA:1,_RNCNvNtNtNtNtCs9VsQExrgwtF_4wami7service8policies10evaluation5testss_41test_simulate_custom_policy_implicit_deny0Bb_
FNDA:1,_RNvNtNtNtNtCs9VsQExrgwtF_4wami7service8policies10evaluation5tests12test_context
FNDA:8,_RNvNtNtNtNtCs9VsQExrgwtF_4wami7service8policies10evaluation5tests13setup_service
FNDA:1,_RNvNtNtNtNtCs9VsQExrgwtF_4wami7service8policies10evaluation5testss_29test_parse_principal_arn_role
FNDA:1,_RNvNtNtNtNtCs9VsQExrgwtF_4wami7service8policies10evaluation5testss_29test_parse_principal_arn_user
FNDA:1,_RNvNtNtNtNtCs9VsQExrgwtF_4wami7service8policies10evaluation5testss_32test_simulate_custom_policy_deny
FNDA:1,_RNvNtNtNtNtCs9VsQExrgwtF_4wami7service8policies10evaluation5testss_33test_simulate_custom_policy_allow
FNDA:1,_RNvNtNtNtNtCs9VsQExrgwtF_4wami7service8policies10evaluation5testss_34test_parse_principal_arn_with_path
FNDA:1,_RNvNtNtNtNtCs9VsQExrgwtF_4wami7service8policies10evaluation5testss_35test_simulate_principal_policy_user
FNDA:1,_RNvNtNtNtNtCs9VsQExrgwtF_4wami7service8policies10evaluation5testss_36test_simulate_custom_policy_wildcard
FNDA:1,_RNvNtNtNtNtCs9VsQExrgwtF_4wami7service8policies10evaluation5testss_41test_simulate_custom_policy_implicit_deny
FNDA:0,_RNCNCNCNvMNtNtNtCs9VsQExrgwtF_4wami7service8policies10evaluationINtB8_17EvaluationServiceNtNtNtNtBe_5store6memory4wami17InMemoryWamiStoreE22simulate_custom_policy000Be_
FNDA:1,_RNCNCNCNvMNtNtNtCs9VsQExrgwtF_4wami7service8policies10evaluationINtB8_17EvaluationServiceNtNtNtNtBe_5store6memory4wami17InMemoryWamiStoreE29evaluate_action_with_boundarys0_000Be_
FNDA:1,_RNCNCNCNvMNtNtNtCs9VsQExrgwtF_4wami7service8policies10evaluationINtB8_17EvaluationServiceNtNtNtNtBe_5store6memory4wami17InMemoryWamiStoreE29evaluate_action_with_boundarys0_00s_0Be_
FNDA:4,_RNCNCNvMNtNtNtCs9VsQExrgwtF_4wami7service8policies10evaluationINtB6_17EvaluationServiceNtNtNtNtBc_5store6memory4wami17InMemoryWamiStoreE22simulate_custom_policy00Bc_
FNDA:0,_RNCNCNvMNtNtNtCs9VsQExrgwtF_4wami7service8policies10evaluationINtB6_17EvaluationServiceNtNtNtNtBc_5store6memory4wami17InMemoryWamiStoreE22simulate_custom_policy0s_0Bc_
FNDA:0,_RNCNCNvMNtNtNtCs9VsQExrgwtF_4wami7service8policies10evaluationINtB6_17EvaluationServiceNtNtNtNtBc_5store6memory4wami17InMemoryWamiStoreE24fetch_principal_policies00Bc_
FNDA:0,_RNCNCNvMNtNtNtCs9VsQExrgwtF_4wami7service8policies10evaluationINtB6_17EvaluationServiceNtNtNtNtBc_5store6memory4wami17InMemoryWamiStoreE24fetch_principal_policies0s_0Bc_
FNDA:0,_RNCNCNvMNtNtNtCs9VsQExrgwtF_4wami7service8policies10evaluationINtB6_17EvaluationServiceNtNtNtNtBc_5store6memory4wami17InMemoryWamiStoreE25simulate_principal_policy00Bc_
FNDA:1,_RNCNCNvMNtNtNtCs9VsQExrgwtF_4wami7service8policies10evaluationINtB6_17EvaluationServiceNtNtNtNtBc_5store6memory4wami17InMemoryWamiStoreE25simulate_principal_policy0s_0Bc_
FNDA:0,_RNCNCNvMNtNtNtCs9VsQExrgwtF_4wami7service8policies10evaluationINtB6_17EvaluationServiceNtNtNtNtBc_5store6memory4wami17InMemoryWamiStoreE26fetch_permissions_boundary00Bc_
FNDA:0,_RNCNCNvMNtNtNtCs9VsQExrgwtF_4wami7service8policies10evaluationINtB6_17EvaluationServiceNtNtNtNtBc_5store6memory4wami17InMemoryWamiStoreE26fetch_permissions_boundary0s_0Bc_
FNDA:1,_RNCNCNvMNtNtNtCs9VsQExrgwtF_4wami7service8policies10evaluationINtB6_17EvaluationServiceNtNtNtNtBc_5store6memory4wami17InMemoryWamiStoreE29evaluate_action_with_boundarys0_00Bc_
FNDA:5,_RNCNvMNtNtNtCs9VsQExrgwtF_4wami7service8policies10evaluationINtB4_17EvaluationServiceNtNtNtNtBa_5store6memory4wami17InMemoryWamiStoreE15evaluate_action0Ba_
FNDA:5,_RNCNvMNtNtNtCs9VsQExrgwtF_4wami7service8policies10evaluationINtB4_17EvaluationServiceNtNtNtNtBa_5store6memory4wami17InMemoryWamiStoreE15evaluate_actions_0Ba_
FNDA:4,_RNCNvMNtNtNtCs9VsQExrgwtF_4wami7service8policies10evaluationINtB4_17EvaluationServiceNtNtNtNtBa_5store6memory4wami17InMemoryWamiStoreE22simulate_custom_policy0Ba_
FNDA:1,_RNCNvMNtNtNtCs9VsQExrgwtF_4wami7service8policies10evaluationINtB4_17EvaluationServiceNtNtNtNtBa_5store6memory4wami17InMemoryWamiStoreE24fetch_principal_policies0Ba_
FNDA:6,_RNCNvMNtNtNtCs9VsQExrgwtF_4wami7service8policies10evaluationINtB4_17EvaluationServiceNtNtNtNtBa_5store6memory4wami17InMemoryWamiStoreE24find_matching_statements0Ba_
FNDA:6,_RNCNvMNtNtNtCs9VsQExrgwtF_4wami7service8policies10evaluationINtB4_17EvaluationServiceNtNtNtNtBa_5store6memory4wami17InMemoryWamiStoreE24find_matching_statementss_0Ba_
FNDA:1,_RNCNvMNtNtNtCs9VsQExrgwtF_4wami7service8policies10evaluationINtB4_17EvaluationServiceNtNtNtNtBa_5store6memory4wami17InMemoryWamiStoreE25simulate_principal_policy0Ba_
FNDA:1,_RNCNvMNtNtNtCs9VsQExrgwtF_4wami7service8policies10evaluationINtB4_17EvaluationServiceNtNtNtNtBa_5store6memory4wami17InMemoryWamiStoreE26fetch_permissions_boundary0Ba_
FNDA:1,_RNCNvMNtNtNtCs9VsQExrgwtF_4wami7service8policies10evaluationINtB4_17EvaluationServiceNtNtNtNtBa_5store6memory4wami17InMemoryWamiStoreE29evaluate_action_with_boundary0Ba_
FNDA:1,_RNCNvMNtNtNtCs9VsQExrgwtF_4wami7service8policies10evaluationINtB4_17EvaluationServiceNtNtNtNtBa_5store6memory4wami17InMemoryWamiStoreE29evaluate_action_with_boundarys0_0Ba_
FNDA:1,_RNCNvMNtNtNtCs9VsQExrgwtF_4wami7service8policies10evaluationINtB4_17EvaluationServiceNtNtNtNtBa_5store6memory4wami17InMemoryWamiStoreE29evaluate_action_with_boundarys_0Ba_
FNDA:5,_RNvMNtNtNtCs9VsQExrgwtF_4wami7service8policies10evaluationINtB2_17EvaluationServiceNtNtNtNtB8_5store6memory4wami17InMemoryWamiStoreE15evaluate_actionB8_
FNDA:26,_RNvMNtNtNtCs9VsQExrgwtF_4wami7service8policies10evaluationINtB2_17EvaluationServiceNtNtNtNtB8_5store6memory4wami17InMemoryWamiStoreE15matches_patternB8_
FNDA:4,_RNvMNtNtNtCs9VsQExrgwtF_4wami7service8policies10evaluationINtB2_17EvaluationServiceNtNtNtNtB8_5store6memory4wami17InMemoryWamiStoreE19parse_principal_arnB8_
FNDA:4,_RNvMNtNtNtCs9VsQExrgwtF_4wami7service8policies10evaluationINtB2_17EvaluationServiceNtNtNtNtB8_5store6memory4wami17InMemoryWamiStoreE22simulate_custom_policyB8_
FNDA:1,_RNvMNtNtNtCs9VsQExrgwtF_4wami7service8policies10evaluationINtB2_17EvaluationServiceNtNtNtNtB8_5store6memory4wami17InMemoryWamiStoreE24fetch_principal_policiesB8_
FNDA:6,_RNvMNtNtNtCs9VsQExrgwtF_4wami7service8policies10evaluationINtB2_17EvaluationServiceNtNtNtNtB8_5store6memory4wami17InMemoryWamiStoreE24find_matching_statementsB8_
FNDA:1,_RNvMNtNtNtCs9VsQExrgwtF_4wami7service8policies10evaluationINtB2_17EvaluationServiceNtNtNtNtB8_5store6memory4wami17InMemoryWamiStoreE25simulate_principal_policyB8_
FNDA:1,_RNvMNtNtNtCs9VsQExrgwtF_4wami7service8policies10evaluationINtB2_17EvaluationServiceNtNtNtNtB8_5store6memory4wami17InMemoryWamiStoreE26fetch_permissions_boundaryB8_
FNDA:1,_RNvMNtNtNtCs9VsQExrgwtF_4wami7service8policies10evaluationINtB2_17EvaluationServiceNtNtNtNtB8_5store6memory4wami17InMemoryWamiStoreE29evaluate_action_with_boundaryB8_
FNDA:8,_RNvMNtNtNtCs9VsQExrgwtF_4wami7service8policies10evaluationINtB2_17EvaluationServiceNtNtNtNtB8_5store6memory4wami17InMemoryWamiStoreE3newB8_
FNF:53
FNH:45
DA:27,8
DA:28,8
DA:29,8
DA:30,8
DA:31,8
DA:32,8
DA:33,8
DA:36,0
DA:37,0
DA:38,0
DA:39,0
DA:40,0
DA:41,0
DA:42,0
DA:47,4
DA:48,4
DA:49,4
DA:50,4
DA:52,4
DA:53,4
DA:54,4
DA:55,4
DA:56,4
DA:57,0
DA:58,0
DA:59,4
DA:60,4
DA:62,4
DA:65,4
DA:66,4
DA:67,4
DA:70,4
DA:72,9
DA:73,10
DA:74,5
DA:75,5
DA:76,5
DA:77,5
DA:78,5
DA:79,5
DA:80,5
DA:81,5
DA:82,5
DA:83,5
DA:84,5
DA:87,4
DA:88,4
DA:89,4
DA:90,4
DA:91,4
DA:96,1
DA:97,1
DA:98,1
DA:99,1
DA:101,1
DA:102,1
DA:105,1
DA:106,1
DA:107,1
DA:110,1
DA:111,1
DA:112,1
DA:115,1
DA:116,2
DA:117,1
DA:118,1
DA:119,0
DA:120,0
DA:121,1
DA:123,0
DA:126,1
DA:127,1
DA:128,1
DA:131,1
DA:133,2
DA:134,2
DA:135,1
DA:136,1
DA:137,1
DA:138,1
DA:139,1
DA:140,1
DA:141,1
DA:142,1
DA:143,1
DA:144,1
DA:145,1
DA:146,1
DA:147,1
DA:148,1
DA:149,1
DA:150,1
DA:151,1
DA:154,1
DA:155,1
DA:156,1
DA:157,1
DA:158,1
DA:163,4
DA:170,4
DA:171,4
DA:172,0
DA:173,0
DA:174,0
DA:175,4
DA:177,4
DA:178,4
DA:180,4
DA:181,0
DA:182,0
DA:183,0
DA:184,4
DA:186,4
DA:188,4
DA:190,4
DA:191,4
DA:194,1
DA:195,1
DA:196,1
DA:197,1
DA:198,1
DA:199,1
DA:201,1
DA:202,1
DA:204,1
DA:205,1
DA:206,1
DA:207,1
DA:208,1
DA:209,1
DA:210,1
DA:211,0
DA:212,0
DA:221,0
DA:223,0
DA:224,0
DA:225,0
DA:226,0
DA:227,0
DA:228,0
DA:229,0
DA:230,0
DA:231,0
DA:236,0
DA:237,0
DA:238,0
DA:242,1
DA:243,1
DA:246,1
DA:247,1
DA:248,1
DA:249,1
DA:250,1
DA:251,1
DA:252,1
DA:253,1
DA:254,1
DA:255,1
DA:256,1
DA:257,1
DA:258,1
DA:259,1
DA:260,0
DA:261,0
DA:262,1
DA:264,0
DA:265,0
DA:266,0
DA:267,0
DA:268,0
DA:269,0
DA:270,0
DA:271,0
DA:272,0
DA:273,0
DA:274,0
DA:277,0
DA:278,0
DA:279,0
DA:284,1
DA:285,0
DA:286,0
DA:288,1
DA:290,1
DA:293,5
DA:294,5
DA:295,5
DA:297,10
DA:298,10
DA:299,5
DA:300,5
DA:301,5
DA:302,5
DA:304,5
DA:305,5
DA:306,5
DA:307,5
DA:309,5
DA:310,4
DA:311,1
DA:312,3
DA:313,3
DA:314,3
DA:315,1
DA:320,5
DA:321,1
DA:322,4
DA:323,3
DA:325,1
DA:327,5
DA:336,1
DA:337,1
DA:338,1
DA:339,1
DA:340,1
DA:341,1
DA:342,1
DA:344,2
DA:345,2
DA:346,1
DA:347,1
DA:348,1
DA:349,1
DA:351,1
DA:352,1
DA:353,1
DA:354,1
DA:356,1
DA:357,0
DA:358,1
DA:363,1
DA:364,1
DA:365,1
DA:366,1
DA:367,1
DA:368,1
DA:369,1
DA:370,1
DA:371,1
DA:372,1
DA:374,1
DA:375,1
DA:376,1
DA:378,1
DA:379,0
DA:380,1
DA:383,1
DA:384,0
DA:385,0
DA:386,0
DA:387,0
DA:388,0
DA:389,0
DA:390,0
DA:391,0
DA:392,0
DA:396,0
DA:399,1
DA:402,1
DA:403,1
DA:406,6
DA:407,6
DA:408,6
DA:409,6
DA:410,6
DA:411,6
DA:412,6
DA:414,12
DA:415,12
DA:416,6
DA:417,6
DA:418,6
DA:419,6
DA:421,6
DA:422,6
DA:423,6
DA:424,6
DA:426,6
DA:427,6
DA:428,6
DA:429,6
DA:430,6
DA:431,6
DA:432,6
DA:433,6
DA:437,6
DA:438,6
DA:441,26
DA:442,26
DA:443,9
DA:444,17
DA:446,17
DA:447,8
DA:448,9
DA:450,9
DA:451,26
DA:462,8
DA:463,8
DA:464,8
DA:465,8
DA:467,1
DA:468,1
DA:469,1
DA:470,1
DA:471,1
DA:472,1
DA:473,1
DA:474,1
DA:475,1
DA:476,1
DA:477,1
DA:478,1
DA:481,1
DA:482,1
DA:484,1
DA:485,1
DA:486,1
DA:487,1
DA:488,1
DA:489,1
DA:490,1
DA:491,1
DA:492,1
DA:493,1
DA:495,1
DA:496,1
DA:497,1
DA:498,1
DA:499,1
DA:500,1
DA:502,1
DA:504,1
DA:505,1
DA:506,1
DA:509,1
DA:510,1
DA:512,1
DA:513,1
DA:514,1
DA:515,1
DA:516,1
DA:517,1
DA:518,1
DA:519,1
DA:520,1
DA:521,1
DA:523,1
DA:524,1
DA:525,1
DA:526,1
DA:527,1
DA:528,1
DA:530,1
DA:532,1
DA:533,1
DA:534,1
DA:537,1
DA:538,1
DA:540,1
DA:541,1
DA:542,1
DA:543,1
DA:544,1
DA:545,1
DA:546,1
DA:547,1
DA:548,1
DA:549,1
DA:551,1
DA:552,1
DA:553,1
DA:554,1
DA:555,1
DA:556,1
DA:558,1
DA:560,1
DA:561,1
DA:562,1
DA:565,1
DA:566,1
DA:568,1
DA:569,1
DA:570,1
DA:571,1
DA:572,1
DA:573,1
DA:574,1
DA:575,1
DA:576,1
DA:577,1
DA:579,1
DA:580,1
DA:581,1
DA:582,1
DA:583,1
DA:584,1
DA:586,1
DA:588,1
DA:589,1
DA:590,1
DA:591,1
DA:592,2
DA:593,1
DA:596,1
DA:597,1
DA:598,1
DA:601,1
DA:603,1
DA:604,1
DA:605,1
DA:606,1
DA:607,1
DA:608,1
DA:609,1
DA:612,1
DA:613,1
DA:614,1
DA:615,1
DA:616,1
DA:617,1
DA:618,1
DA:619,1
DA:620,1
DA:621,1
DA:625,1
DA:626,1
DA:627,1
DA:628,1
DA:629,1
DA:630,1
DA:631,1
DA:633,1
DA:635,1
DA:636,1
DA:637,1
DA:640,1
DA:641,1
DA:643,1
DA:644,1
DA:645,1
DA:647,1
DA:648,1
DA:649,1
DA:652,1
DA:653,1
DA:655,1
DA:656,1
DA:657,1
DA:659,1
DA:660,1
DA:661,1
DA:664,1
DA:665,1
DA:667,1
DA:668,1
DA:669,1
DA:671,1
DA:674,1
DA:675,1
BRF:0
BRH:0
LF:501
LH:432
end_of_record
SF:/Users/lsh/projects/crates/wami/src/service/policies/inline.rs
FN:323,_RNCNCNvMNtNtNtCs9VsQExrgwtF_4wami7service8policies6inlineINtB6_19InlinePolicyServicepE15get_role_policy00Bc_
FN:331,_RNCNCNvMNtNtNtCs9VsQExrgwtF_4wami7service8policies6inlineINtB6_19InlinePolicyServicepE15get_role_policy0s_0Bc_
FN:77,_RNCNCNvMNtNtNtCs9VsQExrgwtF_4wami7service8policies6inlineINtB6_19InlinePolicyServicepE15get_user_policy00Bc_
FN:85,_RNCNCNvMNtNtNtCs9VsQExrgwtF_4wami7service8policies6inlineINtB6_19InlinePolicyServicepE15get_user_policy0s_0Bc_
FN:284,_RNCNCNvMNtNtNtCs9VsQExrgwtF_4wami7service8policies6inlineINtB6_19InlinePolicyServicepE15put_role_policy00Bc_
FN:288,_RNCNCNvMNtNtNtCs9VsQExrgwtF_4wami7service8policies6inlineINtB6_19InlinePolicyServicepE15put_role_policy0s_0Bc_
FN:38,_RNCNCNvMNtNtNtCs9VsQExrgwtF_4wami7service8policies6inlineINtB6_19InlinePolicyServicepE15put_user_policy00Bc_
FN:42,_RNCNCNvMNtNtNtCs9VsQExrgwtF_4wami7service8policies6inlineINtB6_19InlinePolicyServicepE15put_user_policy0s_0Bc_
FN:200,_RNCNCNvMNtNtNtCs9VsQExrgwtF_4wami7service8policies6inlineINtB6_19InlinePolicyServicepE16get_group_policy00Bc_
FN:208,_RNCNCNvMNtNtNtCs9VsQExrgwtF_4wami7service8policies6inlineINtB6_19InlinePolicyServicepE16get_group_policy0s_0Bc_
FN:161,_RNCNCNvMNtNtNtCs9VsQExrgwtF_4wami7service8policies6inlineINtB6_19InlinePolicyServicepE16put_group_policy00Bc_
FN:165,_RNCNCNvMNtNtNtCs9VsQExrgwtF_4wami7service8policies6inlineINtB6_19InlinePolicyServicepE16put_group_policy0s_0Bc_
FN:356,_RNCNCNvMNtNtNtCs9VsQExrgwtF_4wami7service8policies6inlineINtB6_19InlinePolicyServicepE18delete_role_policy00Bc_
FN:110,_RNCNCNvMNtNtNtCs9VsQExrgwtF_4wami7service8policies6inlineINtB6_19InlinePolicyServicepE18delete_user_policy00Bc_
FN:384,_RNCNCNvMNtNtNtCs9VsQExrgwtF_4wami7service8policies6inlineINtB6_19InlinePolicyServicepE18list_role_policies00Bc_
FN:138,_RNCNCNvMNtNtNtCs9VsQExrgwtF_4wami7service8policies6inlineINtB6_19InlinePolicyServicepE18list_user_policies00Bc_
FN:233,_RNCNCNvMNtNtNtCs9VsQExrgwtF_4wami7service8policies6inlineINtB6_19InlinePolicyServicepE19delete_group_policy00Bc_
FN:261,_RNCNCNvMNtNtNtCs9VsQExrgwtF_4wami7service8policies6inlineINtB6_19InlinePolicyServicepE19list_group_policies00Bc_
FN:315,_RNCNvMNtNtNtCs9VsQExrgwtF_4wami7service8policies6inlineINtB4_19InlinePolicyServicepE15get_role_policy0Ba_
FN:69,_RNCNvMNtNtNtCs9VsQExrgwtF_4wami7service8policies6inlineINtB4_19InlinePolicyServicepE15get_user_policy0Ba_
FN:276,_RNCNvMNtNtNtCs9VsQExrgwtF_4wami7service8policies6inlineINtB4_19InlinePolicyServicepE15put_role_policy0Ba_
FN:30,_RNCNvMNtNtNtCs9VsQExrgwtF_4wami7service8policies6inlineINtB4_19InlinePolicyServicepE15put_user_policy0Ba_
FN:192,_RNCNvMNtNtNtCs9VsQExrgwtF_4wami7service8policies6inlineINtB4_19InlinePolicyServicepE16get_group_policy0Ba_
FN:153,_RNCNvMNtNtNtCs9VsQExrgwtF_4wami7service8policies6inlineINtB4_19InlinePolicyServicepE16put_group_policy0Ba_
FN:348,_RNCNvMNtNtNtCs9VsQExrgwtF_4wami7service8policies6inlineINtB4_19InlinePolicyServicepE18delete_role_policy0Ba_
FN:102,_RNCNvMNtNtNtCs9VsQExrgwtF_4wami7service8policies6inlineINtB4_19InlinePolicyServicepE18delete_user_policy0Ba_
FN:376,_RNCNvMNtNtNtCs9VsQExrgwtF_4wami7service8policies6inlineINtB4_19InlinePolicyServicepE18list_role_policies0Ba_
FN:130,_RNCNvMNtNtNtCs9VsQExrgwtF_4wami7service8policies6inlineINtB4_19InlinePolicyServicepE18list_user_policies0Ba_
FN:225,_RNCNvMNtNtNtCs9VsQExrgwtF_4wami7service8policies6inlineINtB4_19InlinePolicyServicepE19delete_group_policy0Ba_
FN:253,_RNCNvMNtNtNtCs9VsQExrgwtF_4wami7service8policies6inlineINtB4_19InlinePolicyServicepE19list_group_policies0Ba_
FN:312,_RNvMNtNtNtCs9VsQExrgwtF_4wami7service8policies6inlineINtB2_19InlinePolicyServicepE15get_role_policyB8_
FN:66,_RNvMNtNtNtCs9VsQExrgwtF_4wami7service8policies6inlineINtB2_19InlinePolicyServicepE15get_user_policyB8_
FN:273,_RNvMNtNtNtCs9VsQExrgwtF_4wami7service8policies6inlineINtB2_19InlinePolicyServicepE15put_role_policyB8_
FN:27,_RNvMNtNtNtCs9VsQExrgwtF_4wami7service8policies6inlineINtB2_19InlinePolicyServicepE15put_user_policyB8_
FN:189,_RNvMNtNtNtCs9VsQExrgwtF_4wami7service8policies6inlineINtB2_19InlinePolicyServicepE16get_group_policyB8_
FN:150,_RNvMNtNtNtCs9VsQExrgwtF_4wami7service8policies6inlineINtB2_19InlinePolicyServicepE16put_group_policyB8_
FN:345,_RNvMNtNtNtCs9VsQExrgwtF_4wami7service8policies6inlineINtB2_19InlinePolicyServicepE18delete_role_policyB8_
FN:99,_RNvMNtNtNtCs9VsQExrgwtF_4wami7service8policies6inlineINtB2_19InlinePolicyServicepE18delete_user_policyB8_
FN:373,_RNvMNtNtNtCs9VsQExrgwtF_4wami7service8policies6inlineINtB2_19InlinePolicyServicepE18list_role_policiesB8_
FN:127,_RNvMNtNtNtCs9VsQExrgwtF_4wami7service8policies6inlineINtB2_19InlinePolicyServicepE18list_user_policiesB8_
FN:222,_RNvMNtNtNtCs9VsQExrgwtF_4wami7service8policies6inlineINtB2_19InlinePolicyServicepE19delete_group_policyB8_
FN:250,_RNvMNtNtNtCs9VsQExrgwtF_4wami7service8policies6inlineINtB2_19InlinePolicyServicepE19list_group_policiesB8_
FN:20,_RNvMNtNtNtCs9VsQExrgwtF_4wami7service8policies6inlineINtB2_19InlinePolicyServicepE3newB8_
FNDA:0,_RNCNCNvMNtNtNtCs9VsQExrgwtF_4wami7service8policies6inlineINtB6_19InlinePolicyServicepE15get_role_policy00Bc_
FNDA:0,_RNCNCNvMNtNtNtCs9VsQExrgwtF_4wami7service8policies6inlineINtB6_19InlinePolicyServicepE15get_role_policy0s_0Bc_
FNDA:0,_RNCNCNvMNtNtNtCs9VsQExrgwtF_4wami7service8policies6inlineINtB6_19InlinePolicyServicepE15get_user_policy00Bc_
FNDA:0,_RNCNCNvMNtNtNtCs9VsQExrgwtF_4wami7service8policies6inlineINtB6_19InlinePolicyServicepE15get_user_policy0s_0Bc_
FNDA:0,_RNCNCNvMNtNtNtCs9VsQExrgwtF_4wami7service8policies6inlineINtB6_19InlinePolicyServicepE15put_role_policy00Bc_
FNDA:0,_RNCNCNvMNtNtNtCs9VsQExrgwtF_4wami7service8policies6inlineINtB6_19InlinePolicyServicepE15put_role_policy0s_0Bc_
FNDA:0,_RNCNCNvMNtNtNtCs9VsQExrgwtF_4wami7service8policies6inlineINtB6_19InlinePolicyServicepE15put_user_policy00Bc_
FNDA:0,_RNCNCNvMNtNtNtCs9VsQExrgwtF_4wami7service8policies6inlineINtB6_19InlinePolicyServicepE15put_user_policy0s_0Bc_
FNDA:0,_RNCNCNvMNtNtNtCs9VsQExrgwtF_4wami7service8policies6inlineINtB6_19InlinePolicyServicepE16get_group_policy00Bc_
FNDA:0,_RNCNCNvMNtNtNtCs9VsQExrgwtF_4wami7service8policies6inlineINtB6_19InlinePolicyServicepE16get_group_policy0s_0Bc_
FNDA:0,_RNCNCNvMNtNtNtCs9VsQExrgwtF_4wami7service8policies6inlineINtB6_19InlinePolicyServicepE16put_group_policy00Bc_
FNDA:0,_RNCNCNvMNtNtNtCs9VsQExrgwtF_4wami7service8policies6inlineINtB6_19InlinePolicyServicepE16put_group_policy0s_0Bc_
FNDA:0,_RNCNCNvMNtNtNtCs9VsQExrgwtF_4wami7service8policies6inlineINtB6_19InlinePolicyServicepE18delete_role_policy00Bc_
FNDA:0,_RNCNCNvMNtNtNtCs9VsQExrgwtF_4wami7service8policies6inlineINtB6_19InlinePolicyServicepE18delete_user_policy00Bc_
FNDA:0,_RNCNCNvMNtNtNtCs9VsQExrgwtF_4wami7service8policies6inlineINtB6_19InlinePolicyServicepE18list_role_policies00Bc_
FNDA:0,_RNCNCNvMNtNtNtCs9VsQExrgwtF_4wami7service8policies6inlineINtB6_19InlinePolicyServicepE18list_user_policies00Bc_
FNDA:0,_RNCNCNvMNtNtNtCs9VsQExrgwtF_4wami7service8policies6inlineINtB6_19InlinePolicyServicepE19delete_group_policy00Bc_
FNDA:0,_RNCNCNvMNtNtNtCs9VsQExrgwtF_4wami7service8policies6inlineINtB6_19InlinePolicyServicepE19list_group_policies00Bc_
FNDA:0,_RNCNvMNtNtNtCs9VsQExrgwtF_4wami7service8policies6inlineINtB4_19InlinePolicyServicepE15get_role_policy0Ba_
FNDA:0,_RNCNvMNtNtNtCs9VsQExrgwtF_4wami7service8policies6inlineINtB4_19InlinePolicyServicepE15get_user_policy0Ba_
FNDA:0,_RNCNvMNtNtNtCs9VsQExrgwtF_4wami7service8policies6inlineINtB4_19InlinePolicyServicepE15put_role_policy0Ba_
FNDA:0,_RNCNvMNtNtNtCs9VsQExrgwtF_4wami7service8policies6inlineINtB4_19InlinePolicyServicepE15put_user_policy0Ba_
FNDA:0,_RNCNvMNtNtNtCs9VsQExrgwtF_4wami7service8policies6inlineINtB4_19InlinePolicyServicepE16get_group_policy0Ba_
FNDA:0,_RNCNvMNtNtNtCs9VsQExrgwtF_4wami7service8policies6inlineINtB4_19InlinePolicyServicepE16put_group_policy0Ba_
FNDA:0,_RNCNvMNtNtNtCs9VsQExrgwtF_4wami7service8policies6inlineINtB4_19InlinePolicyServicepE18delete_role_policy0Ba_
FNDA:0,_RNCNvMNtNtNtCs9VsQExrgwtF_4wami7service8policies6inlineINtB4_19InlinePolicyServicepE18delete_user_policy0Ba_
FNDA:0,_RNCNvMNtNtNtCs9VsQExrgwtF_4wami7service8policies6inlineINtB4_19InlinePolicyServicepE18list_role_policies0Ba_
FNDA:0,_RNCNvMNtNtNtCs9VsQExrgwtF_4wami7service8policies6inlineINtB4_19InlinePolicyServicepE18list_user_policies0Ba_
FNDA:0,_RNCNvMNtNtNtCs9VsQExrgwtF_4wami7service8policies6inlineINtB4_19InlinePolicyServicepE19delete_group_policy0Ba_
FNDA:0,_RNCNvMNtNtNtCs9VsQExrgwtF_4wami7service8policies6inlineINtB4_19InlinePolicyServicepE19list_group_policies0Ba_
FNDA:0,_RNvMNtNtNtCs9VsQExrgwtF_4wami7service8policies6inlineINtB2_19InlinePolicyServicepE15get_role_policyB8_
FNDA:0,_RNvMNtNtNtCs9VsQExrgwtF_4wami7service8policies6inlineINtB2_19InlinePolicyServicepE15get_user_policyB8_
FNDA:0,_RNvMNtNtNtCs9VsQExrgwtF_4wami7service8policies6inlineINtB2_19InlinePolicyServicepE15put_role_policyB8_
FNDA:0,_RNvMNtNtNtCs9VsQExrgwtF_4wami7service8policies6inlineINtB2_19InlinePolicyServicepE15put_user_policyB8_
FNDA:0,_RNvMNtNtNtCs9VsQExrgwtF_4wami7service8policies6inlineINtB2_19InlinePolicyServicepE16get_group_policyB8_
FNDA:0,_RNvMNtNtNtCs9VsQExrgwtF_4wami7service8policies6inlineINtB2_19InlinePolicyServicepE16put_group_policyB8_
FNDA:0,_RNvMNtNtNtCs9VsQExrgwtF_4wami7service8policies6inlineINtB2_19InlinePolicyServicepE18delete_role_policyB8_
FNDA:0,_RNvMNtNtNtCs9VsQExrgwtF_4wami7service8policies6inlineINtB2_19InlinePolicyServicepE18delete_user_policyB8_
FNDA:0,_RNvMNtNtNtCs9VsQExrgwtF_4wami7service8policies6inlineINtB2_19InlinePolicyServicepE18list_role_policiesB8_
FNDA:0,_RNvMNtNtNtCs9VsQExrgwtF_4wami7service8policies6inlineINtB2_19InlinePolicyServicepE18list_user_policiesB8_
FNDA:0,_RNvMNtNtNtCs9VsQExrgwtF_4wami7service8policies6inlineINtB2_19InlinePolicyServicepE19delete_group_policyB8_
FNDA:0,_RNvMNtNtNtCs9VsQExrgwtF_4wami7service8policies6inlineINtB2_19InlinePolicyServicepE19list_group_policiesB8_
FNDA:0,_RNvMNtNtNtCs9VsQExrgwtF_4wami7service8policies6inlineINtB2_19InlinePolicyServicepE3newB8_
FNF:43
FNH:0
DA:20,0
DA:21,0
DA:22,0
DA:27,0
DA:28,0
DA:29,0
DA:30,0
DA:31,0
DA:34,0
DA:35,0
DA:36,0
DA:37,0
DA:38,0
DA:39,0
DA:42,0
DA:43,0
DA:44,0
DA:45,0
DA:46,0
DA:49,0
DA:50,0
DA:51,0
DA:52,0
DA:53,0
DA:54,0
DA:55,0
DA:57,0
DA:58,0
DA:59,0
DA:60,0
DA:61,0
DA:62,0
DA:63,0
DA:66,0
DA:67,0
DA:68,0
DA:69,0
DA:70,0
DA:73,0
DA:74,0
DA:75,0
DA:76,0
DA:77,0
DA:78,0
DA:81,0
DA:82,0
DA:83,0
DA:84,0
DA:85,0
DA:86,0
DA:89,0
DA:91,0
DA:92,0
DA:93,0
DA:94,0
DA:95,0
DA:96,0
DA:99,0
DA:100,0
DA:101,0
DA:102,0
DA:103,0
DA:106,0
DA:107,0
DA:108,0
DA:109,0
DA:110,0
DA:111,0
DA:114,0
DA:115,0
DA:116,0
DA:118,0
DA:119,0
DA:120,0
DA:121,0
DA:122,0
DA:123,0
DA:124,0
DA:127,0
DA:128,0
DA:129,0
DA:130,0
DA:131,0
DA:134,0
DA:135,0
DA:136,0
DA:137,0
DA:138,0
DA:139,0
DA:142,0
DA:144,0
DA:145,0
DA:150,0
DA:151,0
DA:152,0
DA:153,0
DA:154,0
DA:157,0
DA:158,0
DA:159,0
DA:160,0
DA:161,0
DA:162,0
DA:165,0
DA:166,0
DA:167,0
DA:168,0
DA:169,0
DA:172,0
DA:173,0
DA:174,0
DA:175,0
DA:176,0
DA:177,0
DA:178,0
DA:180,0
DA:181,0
DA:182,0
DA:183,0
DA:184,0
DA:185,0
DA:186,0
DA:189,0
DA:190,0
DA:191,0
DA:192,0
DA:193,0
DA:196,0
DA:197,0
DA:198,0
DA:199,0
DA:200,0
DA:201,0
DA:204,0
DA:205,0
DA:206,0
DA:207,0
DA:208,0
DA:209,0
DA:212,0
DA:214,0
DA:215,0
DA:216,0
DA:217,0
DA:218,0
DA:219,0
DA:222,0
DA:223,0
DA:224,0
DA:225,0
DA:226,0
DA:229,0
DA:230,0
DA:231,0
DA:232,0
DA:233,0
DA:234,0
DA:237,0
DA:238,0
DA:239,0
DA:241,0
DA:242,0
DA:243,0
DA:244,0
DA:245,0
DA:246,0
DA:247,0
DA:250,0
DA:251,0
DA:252,0
DA:253,0
DA:254,0
DA:257,0
DA:258,0
DA:259,0
DA:260,0
DA:261,0
DA:262,0
DA:265,0
DA:267,0
DA:268,0
DA:273,0
DA:274,0
DA:275,0
DA:276,0
DA:277,0
DA:280,0
DA:281,0
DA:282,0
DA:283,0
DA:284,0
DA:285,0
DA:288,0
DA:289,0
DA:290,0
DA:291,0
DA:292,0
DA:295,0
DA:296,0
DA:297,0
DA:298,0
DA:299,0
DA:300,0
DA:301,0
DA:303,0
DA:304,0
DA:305,0
DA:306,0
DA:307,0
DA:308,0
DA:309,0
DA:312,0
DA:313,0
DA:314,0
DA:315,0
DA:316,0
DA:319,0
DA:320,0
DA:321,0
DA:322,0
DA:323,0
DA:324,0
DA:327,0
DA:328,0
DA:329,0
DA:330,0
DA:331,0
DA:332,0
DA:335,0
DA:337,0
DA:338,0
DA:339,0
DA:340,0
DA:341,0
DA:342,0
DA:345,0
DA:346,0
DA:347,0
DA:348,0
DA:349,0
DA:352,0
DA:353,0
DA:354,0
DA:355,0
DA:356,0
DA:357,0
DA:360,0
DA:361,0
DA:362,0
DA:364,0
DA:365,0
DA:366,0
DA:367,0
DA:368,0
DA:369,0
DA:370,0
DA:373,0
DA:374,0
DA:375,0
DA:376,0
DA:377,0
DA:380,0
DA:381,0
DA:382,0
DA:383,0
DA:384,0
DA:385,0
DA:388,0
DA:390,0
DA:391,0
BRF:0
BRH:0
LF:303
LH:0
end_of_record
SF:/Users/lsh/projects/crates/wami/src/service/policies/permissions_boundary.rs
FN:161,_RNvNtNtNtNtCs9VsQExrgwtF_4wami7service8policies20permissions_boundary5tests12test_context
FN:238,_RNvNtNtNtNtCs9VsQExrgwtF_4wami7service8policies20permissions_boundary5testss_25test_put_boundary_on_role
FN:175,_RNvNtNtNtNtCs9VsQExrgwtF_4wami7service8policies20permissions_boundary5testss_25test_put_boundary_on_user
FN:335,_RNvNtNtNtNtCs9VsQExrgwtF_4wami7service8policies20permissions_boundary5testss_29test_put_boundary_invalid_arn
FN:298,_RNvNtNtNtNtCs9VsQExrgwtF_4wami7service8policies20permissions_boundary5testss_30test_delete_boundary_from_role
FN:374,_RNvNtNtNtNtCs9VsQExrgwtF_4wami7service8policies20permissions_boundary5testss_34test_put_boundary_nonexistent_user
FN:351,_RNvNtNtNtNtCs9VsQExrgwtF_4wami7service8policies20permissions_boundary5testss_36test_put_boundary_nonexistent_policy
FN:238,_RNCNvNtNtNtNtCs9VsQExrgwtF_4wami7service8policies20permissions_boundary5testss_25test_put_boundary_on_role0Bb_
FN:175,_RNCNvNtNtNtNtCs9VsQExrgwtF_4wami7service8policies20permissions_boundary5testss_25test_put_boundary_on_user0Bb_
FN:335,_RNCNvNtNtNtNtCs9VsQExrgwtF_4wami7service8policies20permissions_boundary5testss_29test_put_boundary_invalid_arn0Bb_
FN:298,_RNCNvNtNtNtNtCs9VsQExrgwtF_4wami7service8policies20permissions_boundary5testss_30test_delete_boundary_from_role0Bb_
FN:374,_RNCNvNtNtNtNtCs9VsQExrgwtF_4wami7service8policies20permissions_boundary5testss_34test_put_boundary_nonexistent_user0Bb_
FN:351,_RNCNvNtNtNtNtCs9VsQExrgwtF_4wami7service8policies20permissions_boundary5testss_36test_put_boundary_nonexistent_policy0Bb_
FN:60,_RNCNCNvMNtNtNtCs9VsQExrgwtF_4wami7service8policies20permissions_boundaryINtB6_26PermissionsBoundaryServiceNtNtNtNtBc_5store6memory4wami17InMemoryWamiStoreE24put_permissions_boundary00Bc_
FN:88,_RNCNCNvMNtNtNtCs9VsQExrgwtF_4wami7service8policies20permissions_boundaryINtB6_26PermissionsBoundaryServiceNtNtNtNtBc_5store6memory4wami17InMemoryWamiStoreE24put_permissions_boundary0s0_0Bc_
FN:75,_RNCNCNvMNtNtNtCs9VsQExrgwtF_4wami7service8policies20permissions_boundaryINtB6_26PermissionsBoundaryServiceNtNtNtNtBc_5store6memory4wami17InMemoryWamiStoreE24put_permissions_boundary0s_0Bc_
FN:124,_RNCNCNvMNtNtNtCs9VsQExrgwtF_4wami7service8policies20permissions_boundaryINtB6_26PermissionsBoundaryServiceNtNtNtNtBc_5store6memory4wami17InMemoryWamiStoreE27delete_permissions_boundary00Bc_
FN:137,_RNCNCNvMNtNtNtCs9VsQExrgwtF_4wami7service8policies20permissions_boundaryINtB6_26PermissionsBoundaryServiceNtNtNtNtBc_5store6memory4wami17InMemoryWamiStoreE27delete_permissions_boundary0s_0Bc_
FN:48,_RNCNvMNtNtNtCs9VsQExrgwtF_4wami7service8policies20permissions_boundaryINtB4_26PermissionsBoundaryServiceNtNtNtNtBa_5store6memory4wami17InMemoryWamiStoreE24put_permissions_boundary0Ba_
FN:116,_RNCNvMNtNtNtCs9VsQExrgwtF_4wami7service8policies20permissions_boundaryINtB4_26PermissionsBoundaryServiceNtNtNtNtBa_5store6memory4wami17InMemoryWamiStoreE27delete_permissions_boundary0Ba_
FN:45,_RNvMNtNtNtCs9VsQExrgwtF_4wami7service8policies20permissions_boundaryINtB2_26PermissionsBoundaryServiceNtNtNtNtB8_5store6memory4wami17InMemoryWamiStoreE24put_permissions_boundaryB8_
FN:113,_RNvMNtNtNtCs9VsQExrgwtF_4wami7service8policies20permissions_boundaryINtB2_26PermissionsBoundaryServiceNtNtNtNtB8_5store6memory4wami17InMemoryWamiStoreE27delete_permissions_boundaryB8_
FN:24,_RNvMNtNtNtCs9VsQExrgwtF_4wami7service8policies20permissions_boundaryINtB2_26PermissionsBoundaryServiceNtNtNtNtB8_5store6memory4wami17InMemoryWamiStoreE3newB8_
FNDA:5,_RNvNtNtNtNtCs9VsQExrgwtF_4wami7service8policies20permissions_boundary5tests12test_context
FNDA:1,_RNvNtNtNtNtCs9VsQExrgwtF_4wami7service8policies20permissions_boundary5testss_25test_put_boundary_on_role
FNDA:1,_RNvNtNtNtNtCs9VsQExrgwtF_4wami7service8policies20permissions_boundary5testss_25test_put_boundary_on_user
FNDA:1,_RNvNtNtNtNtCs9VsQExrgwtF_4wami7service8policies20permissions_boundary5testss_29test_put_boundary_invalid_arn
FNDA:1,_RNvNtNtNtNtCs9VsQExrgwtF_4wami7service8policies20permissions_boundary5testss_30test_delete_boundary_from_role
FNDA:1,_RNvNtNtNtNtCs9VsQExrgwtF_4wami7service8policies20permissions_boundary5testss_34test_put_boundary_nonexistent_user
FNDA:1,_RNvNtNtNtNtCs9VsQExrgwtF_4wami7service8policies20permissions_boundary5testss_36test_put_boundary_nonexistent_policy
FNDA:1,_RNCNvNtNtNtNtCs9VsQExrgwtF_4wami7service8policies20permissions_boundary5testss_25test_put_boundary_on_role0Bb_
FNDA:1,_RNCNvNtNtNtNtCs9VsQExrgwtF_4wami7service8policies20permissions_boundary5testss_25test_put_boundary_on_user0Bb_
FNDA:1,_RNCNvNtNtNtNtCs9VsQExrgwtF_4wami7service8policies20permissions_boundary5testss_29test_put_boundary_invalid_arn0Bb_
FNDA:1,_RNCNvNtNtNtNtCs9VsQExrgwtF_4wami7service8policies20permissions_boundary5testss_30test_delete_boundary_from_role0Bb_
FNDA:1,_RNCNvNtNtNtNtCs9VsQExrgwtF_4wami7service8policies20permissions_boundary5testss_34test_put_boundary_nonexistent_user0Bb_
FNDA:1,_RNCNvNtNtNtNtCs9VsQExrgwtF_4wami7service8policies20permissions_boundary5testss_36test_put_boundary_nonexistent_policy0Bb_
FNDA:2,_RNCNCNvMNtNtNtCs9VsQExrgwtF_4wami7service8policies20permissions_boundaryINtB6_26PermissionsBoundaryServiceNtNtNtNtBc_5store6memory4wami17InMemoryWamiStoreE24put_permissions_boundary00Bc_
FNDA:0,_RNCNCNvMNtNtNtCs9VsQExrgwtF_4wami7service8policies20permissions_boundaryINtB6_26PermissionsBoundaryServiceNtNtNtNtBc_5store6memory4wami17InMemoryWamiStoreE24put_permissions_boundary0s0_0Bc_
FNDA:1,_RNCNCNvMNtNtNtCs9VsQExrgwtF_4wami7service8policies20permissions_boundaryINtB6_26PermissionsBoundaryServiceNtNtNtNtBc_5store6memory4wami17InMemoryWamiStoreE24put_permissions_boundary0s_0Bc_
FNDA:0,_RNCNCNvMNtNtNtCs9VsQExrgwtF_4wami7service8policies20permissions_boundaryINtB6_26PermissionsBoundaryServiceNtNtNtNtBc_5store6memory4wami17InMemoryWamiStoreE27delete_permissions_boundary00Bc_
FNDA:0,_RNCNCNvMNtNtNtCs9VsQExrgwtF_4wami7service8policies20permissions_boundaryINtB6_26PermissionsBoundaryServiceNtNtNtNtBc_5store6memory4wami17InMemoryWamiStoreE27delete_permissions_boundary0s_0Bc_
FNDA:5,_RNCNvMNtNtNtCs9VsQExrgwtF_4wami7service8policies20permissions_boundaryINtB4_26PermissionsBoundaryServiceNtNtNtNtBa_5store6memory4wami17InMemoryWamiStoreE24put_permissions_boundary0Ba_
FNDA:1,_RNCNvMNtNtNtCs9VsQExrgwtF_4wami7service8policies20permissions_boundaryINtB4_26PermissionsBoundaryServiceNtNtNtNtBa_5store6memory4wami17InMemoryWamiStoreE27delete_permissions_boundary0Ba_
FNDA:5,_RNvMNtNtNtCs9VsQExrgwtF_4wami7service8policies20permissions_boundaryINtB2_26PermissionsBoundaryServiceNtNtNtNtB8_5store6memory4wami17InMemoryWamiStoreE24put_permissions_boundaryB8_
FNDA:1,_RNvMNtNtNtCs9VsQExrgwtF_4wami7service8policies20permissions_boundaryINtB2_26PermissionsBoundaryServiceNtNtNtNtB8_5store6memory4wami17InMemoryWamiStoreE27delete_permissions_boundaryB8_
FNDA:6,_RNvMNtNtNtCs9VsQExrgwtF_4wami7service8policies20permissions_boundaryINtB2_26PermissionsBoundaryServiceNtNtNtNtB8_5store6memory4wami17InMemoryWamiStoreE3newB8_
FNF:23
FNH:20
DA:24,6
DA:25,6
DA:26,6
DA:45,5
DA:46,5
DA:47,5
DA:48,5
DA:50,5
DA:51,5
DA:52,1
DA:55,4
DA:56,4
DA:57,4
DA:58,4
DA:59,4
DA:60,2
DA:61,2
DA:64,2
DA:65,2
DA:68,2
DA:70,1
DA:71,1
DA:72,1
DA:73,1
DA:74,1
DA:75,1
DA:76,1
DA:79,0
DA:80,0
DA:83,1
DA:84,1
DA:85,1
DA:86,1
DA:87,1
DA:88,0
DA:89,0
DA:92,1
DA:93,1
DA:97,1
DA:98,5
DA:113,1
DA:114,1
DA:115,1
DA:116,1
DA:117,1
DA:119,0
DA:120,0
DA:121,0
DA:122,0
DA:123,0
DA:124,0
DA:125,0
DA:128,0
DA:129,0
DA:132,1
DA:133,1
DA:134,1
DA:135,1
DA:136,1
DA:137,0
DA:138,0
DA:141,1
DA:142,1
DA:146,1
DA:147,1
DA:161,5
DA:162,5
DA:163,5
DA:164,5
DA:165,5
DA:166,5
DA:167,5
DA:168,5
DA:169,5
DA:170,5
DA:171,5
DA:172,5
DA:175,1
DA:176,1
DA:177,1
DA:178,1
DA:181,1
DA:183,1
DA:184,1
DA:188,1
DA:189,1
DA:190,1
DA:191,1
DA:192,1
DA:193,1
DA:194,1
DA:195,1
DA:196,1
DA:197,1
DA:198,1
DA:199,1
DA:200,1
DA:201,1
DA:202,1
DA:204,1
DA:206,1
DA:207,1
DA:211,1
DA:212,1
DA:213,1
DA:214,1
DA:215,1
DA:217,1
DA:221,1
DA:222,1
DA:223,1
DA:224,1
DA:225,1
DA:226,1
DA:227,1
DA:228,1
DA:229,1
DA:230,1
DA:231,1
DA:232,1
DA:233,1
DA:234,1
DA:235,1
DA:238,1
DA:239,1
DA:240,1
DA:241,1
DA:244,1
DA:245,1
DA:246,1
DA:247,1
DA:248,1
DA:249,1
DA:250,1
DA:251,1
DA:253,1
DA:255,1
DA:256,1
DA:260,1
DA:261,1
DA:262,1
DA:263,1
DA:264,1
DA:265,1
DA:266,1
DA:267,1
DA:268,1
DA:269,1
DA:270,1
DA:271,1
DA:272,1
DA:273,1
DA:274,1
DA:276,1
DA:278,1
DA:279,1
DA:283,1
DA:284,1
DA:285,1
DA:286,1
DA:287,1
DA:289,1
DA:292,1
DA:293,1
DA:294,1
DA:295,1
DA:298,1
DA:299,1
DA:300,1
DA:301,1
DA:304,1
DA:305,1
DA:306,1
DA:307,1
DA:308,1
DA:309,1
DA:310,1
DA:311,1
DA:313,1
DA:314,1
DA:316,1
DA:317,1
DA:321,1
DA:322,1
DA:323,1
DA:324,1
DA:326,1
DA:329,1
DA:330,1
DA:331,1
DA:332,1
DA:335,1
DA:336,1
DA:337,1
DA:338,1
DA:340,1
DA:341,1
DA:342,1
DA:343,1
DA:344,1
DA:346,1
DA:347,1
DA:348,1
DA:351,1
DA:352,1
DA:353,1
DA:354,1
DA:357,1
DA:359,1
DA:360,1
DA:363,1
DA:364,1
DA:365,1
DA:366,1
DA:367,1
DA:369,1
DA:370,1
DA:371,1
DA:374,1
DA:375,1
DA:376,1
DA:377,1
DA:380,1
DA:381,1
DA:382,1
DA:383,1
DA:384,1
DA:385,1
DA:386,1
DA:387,1
DA:388,1
DA:389,1
DA:390,1
DA:391,1
DA:392,1
DA:393,1
DA:394,1
DA:396,1
DA:398,1
DA:399,1
DA:402,1
DA:403,1
DA:404,1
DA:405,1
DA:406,1
DA:408,1
DA:409,1
DA:410,1
BRF:0
BRH:0
LF:274
LH:252
end_of_record
SF:/Users/lsh/projects/crates/wami/src/service/policies/policy.rs
FN:62,_RNCNCNvMNtNtNtCs9VsQExrgwtF_4wami7service8policies6policyINtB6_13PolicyServiceNtNtNtNtBc_5store6memory4wami17InMemoryWamiStoreE13update_policy00Bc_
FN:48,_RNCNvMNtNtNtCs9VsQExrgwtF_4wami7service8policies6policyINtB4_13PolicyServiceNtNtNtNtBa_5store6memory4wami17InMemoryWamiStoreE10get_policy0Ba_
FN:32,_RNCNvMNtNtNtCs9VsQExrgwtF_4wami7service8policies6policyINtB4_13PolicyServiceNtNtNtNtBa_5store6memory4wami17InMemoryWamiStoreE13create_policy0Ba_
FN:78,_RNCNvMNtNtNtCs9VsQExrgwtF_4wami7service8policies6policyINtB4_13PolicyServiceNtNtNtNtBa_5store6memory4wami17InMemoryWamiStoreE13delete_policy0Ba_
FN:86,_RNCNvMNtNtNtCs9VsQExrgwtF_4wami7service8policies6policyINtB4_13PolicyServiceNtNtNtNtBa_5store6memory4wami17InMemoryWamiStoreE13list_policies0Ba_
FN:53,_RNCNvMNtNtNtCs9VsQExrgwtF_4wami7service8policies6policyINtB4_13PolicyServiceNtNtNtNtBa_5store6memory4wami17InMemoryWamiStoreE13update_policy0Ba_
FN:48,_RNvMNtNtNtCs9VsQExrgwtF_4wami7service8policies6policyINtB2_13PolicyServiceNtNtNtNtB8_5store6memory4wami17InMemoryWamiStoreE10get_policyB8_
FN:28,_RNvMNtNtNtCs9VsQExrgwtF_4wami7service8policies6policyINtB2_13PolicyServiceNtNtNtNtB8_5store6memory4wami17InMemoryWamiStoreE13create_policyB8_
FN:78,_RNvMNtNtNtCs9VsQExrgwtF_4wami7service8policies6policyINtB2_13PolicyServiceNtNtNtNtB8_5store6memory4wami17InMemoryWamiStoreE13delete_policyB8_
FN:83,_RNvMNtNtNtCs9VsQExrgwtF_4wami7service8policies6policyINtB2_13PolicyServiceNtNtNtNtB8_5store6memory4wami17InMemoryWamiStoreE13list_policiesB8_
FN:53,_RNvMNtNtNtCs9VsQExrgwtF_4wami7service8policies6policyINtB2_13PolicyServiceNtNtNtNtB8_5store6memory4wami17InMemoryWamiStoreE13update_policyB8_
FN:23,_RNvMNtNtNtCs9VsQExrgwtF_4wami7service8policies6policyINtB2_13PolicyServiceNtNtNtNtB8_5store6memory4wami17InMemoryWamiStoreE3newB8_
FN:106,_RNvNtNtNtNtCs9VsQExrgwtF_4wami7service8policies6policy5tests12test_context
FN:101,_RNvNtNtNtNtCs9VsQExrgwtF_4wami7service8policies6policy5tests13setup_service
FN:177,_RNvNtNtNtNtCs9VsQExrgwtF_4wami7service8policies6policy5testss_18test_delete_policy
FN:198,_RNvNtNtNtNtCs9VsQExrgwtF_4wami7service8policies6policy5testss_18test_list_policies
FN:147,_RNvNtNtNtNtCs9VsQExrgwtF_4wami7service8policies6policy5testss_18test_update_policy
FN:120,_RNvNtNtNtNtCs9VsQExrgwtF_4wami7service8policies6policy5testss_26test_create_and_get_policy
FN:177,_RNCNvNtNtNtNtCs9VsQExrgwtF_4wami7service8policies6policy5testss_18test_delete_policy0Bb_
FN:198,_RNCNvNtNtNtNtCs9VsQExrgwtF_4wami7service8policies6policy5testss_18test_list_policies0Bb_
FN:147,_RNCNvNtNtNtNtCs9VsQExrgwtF_4wami7service8policies6policy5testss_18test_update_policy0Bb_
FN:120,_RNCNvNtNtNtNtCs9VsQExrgwtF_4wami7service8policies6policy5testss_26test_create_and_get_policy0Bb_
FNDA:0,_RNCNCNvMNtNtNtCs9VsQExrgwtF_4wami7service8policies6policyINtB6_13PolicyServiceNtNtNtNtBc_5store6memory4wami17InMemoryWamiStoreE13update_policy00Bc_
FNDA:2,_RNCNvMNtNtNtCs9VsQExrgwtF_4wami7service8policies6policyINtB4_13PolicyServiceNtNtNtNtBa_5store6memory4wami17InMemoryWamiStoreE10get_policy0Ba_
FNDA:6,_RNCNvMNtNtNtCs9VsQExrgwtF_4wami7service8policies6policyINtB4_13PolicyServiceNtNtNtNtBa_5store6memory4wami17InMemoryWamiStoreE13create_policy0Ba_
FNDA:1,_RNCNvMNtNtNtCs9VsQExrgwtF_4wami7service8policies6policyINtB4_13PolicyServiceNtNtNtNtBa_5store6memory4wami17InMemoryWamiStoreE13delete_policy0Ba_
FNDA:1,_RNCNvMNtNtNtCs9VsQExrgwtF_4wami7service8policies6policyINtB4_13PolicyServiceNtNtNtNtBa_5store6memory4wami17InMemoryWamiStoreE13list_policies0Ba_
FNDA:1,_RNCNvMNtNtNtCs9VsQExrgwtF_4wami7service8policies6policyINtB4_13PolicyServiceNtNtNtNtBa_5store6memory4wami17InMemoryWamiStoreE13update_policy0Ba_
FNDA:2,_RNvMNtNtNtCs9VsQExrgwtF_4wami7service8policies6policyINtB2_13PolicyServiceNtNtNtNtB8_5store6memory4wami17InMemoryWamiStoreE10get_policyB8_
FNDA:6,_RNvMNtNtNtCs9VsQExrgwtF_4wami7service8policies6policyINtB2_13PolicyServiceNtNtNtNtB8_5store6memory4wami17InMemoryWamiStoreE13create_policyB8_
FNDA:1,_RNvMNtNtNtCs9VsQExrgwtF_4wami7service8policies6policyINtB2_13PolicyServiceNtNtNtNtB8_5store6memory4wami17InMemoryWamiStoreE13delete_policyB8_
FNDA:1,_RNvMNtNtNtCs9VsQExrgwtF_4wami7service8policies6policyINtB2_13PolicyServiceNtNtNtNtB8_5store6memory4wami17InMemoryWamiStoreE13list_policiesB8_
FNDA:1,_RNvMNtNtNtCs9VsQExrgwtF_4wami7service8policies6policyINtB2_13PolicyServiceNtNtNtNtB8_5store6memory4wami17InMemoryWamiStoreE13update_policyB8_
FNDA:4,_RNvMNtNtNtCs9VsQExrgwtF_4wami7service8policies6policyINtB2_13PolicyServiceNtNtNtNtB8_5store6memory4wami17InMemoryWamiStoreE3newB8_
FNDA:6,_RNvNtNtNtNtCs9VsQExrgwtF_4wami7service8policies6policy5tests12test_context
FNDA:4,_RNvNtNtNtNtCs9VsQExrgwtF_4wami7service8policies6policy5tests13setup_service
FNDA:1,_RNvNtNtNtNtCs9VsQExrgwtF_4wami7service8policies6policy5testss_18test_delete_policy
FNDA:1,_RNvNtNtNtNtCs9VsQExrgwtF_4wami7service8policies6policy5testss_18test_list_policies
FNDA:1,_RNvNtNtNtNtCs9VsQExrgwtF_4wami7service8policies6policy5testss_18test_update_policy
FNDA:1,_RNvNtNtNtNtCs9VsQExrgwtF_4wami7service8policies6policy5testss_26test_create_and_get_policy
FNDA:1,_RNCNvNtNtNtNtCs9VsQExrgwtF_4wami7service8policies6policy5testss_18test_delete_policy0Bb_
FNDA:1,_RNCNvNtNtNtNtCs9VsQExrgwtF_4wami7service8policies6policy5testss_18test_list_policies0Bb_
FNDA:1,_RNCNvNtNtNtNtCs9VsQExrgwtF_4wami7service8policies6policy5testss_18test_update_policy0Bb_
FNDA:1,_RNCNvNtNtNtNtCs9VsQExrgwtF_4wami7service8policies6policy5testss_26test_create_and_get_policy0Bb_
FNF:22
FNH:21
DA:23,4
DA:24,4
DA:25,4
DA:28,6
DA:29,6
DA:30,6
DA:31,6
DA:32,6
DA:34,6
DA:35,6
DA:36,6
DA:37,6
DA:38,6
DA:39,6
DA:40,6
DA:41,0
DA:44,6
DA:45,6
DA:48,2
DA:49,2
DA:50,2
DA:53,1
DA:55,1
DA:56,1
DA:57,1
DA:58,1
DA:59,1
DA:60,1
DA:61,1
DA:62,0
DA:63,0
DA:66,1
DA:67,1
DA:70,1
DA:71,1
DA:72,1
DA:73,1
DA:74,1
DA:75,1
DA:78,1
DA:79,1
DA:80,1
DA:83,1
DA:84,1
DA:85,1
DA:86,1
DA:87,1
DA:88,1
DA:89,1
DA:90,1
DA:91,1
DA:92,1
DA:101,4
DA:102,4
DA:103,4
DA:104,4
DA:106,6
DA:107,6
DA:108,6
DA:109,6
DA:110,6
DA:111,6
DA:112,6
DA:113,6
DA:114,6
DA:115,6
DA:116,6
DA:117,6
DA:120,1
DA:121,1
DA:123,1
DA:124,1
DA:125,1
DA:126,1
DA:127,1
DA:128,1
DA:129,1
DA:130,1
DA:132,1
DA:133,1
DA:134,1
DA:135,1
DA:136,1
DA:138,1
DA:141,1
DA:142,1
DA:143,1
DA:144,1
DA:147,1
DA:148,1
DA:151,1
DA:152,1
DA:153,1
DA:154,1
DA:155,1
DA:156,1
DA:157,1
DA:158,1
DA:159,1
DA:160,1
DA:161,1
DA:162,1
DA:163,1
DA:166,1
DA:167,1
DA:168,1
DA:169,1
DA:170,1
DA:171,1
DA:172,1
DA:173,1
DA:174,1
DA:177,1
DA:178,1
DA:180,1
DA:181,1
DA:182,1
DA:183,1
DA:184,1
DA:185,1
DA:186,1
DA:187,1
DA:188,1
DA:189,1
DA:191,1
DA:193,1
DA:194,1
DA:195,1
DA:198,1
DA:199,1
DA:202,4
DA:203,3
DA:204,3
DA:205,3
DA:206,3
DA:207,3
DA:208,3
DA:209,3
DA:210,3
DA:211,3
DA:212,3
DA:215,1
DA:216,1
DA:217,1
DA:218,1
DA:219,1
DA:220,1
DA:221,1
DA:222,1
DA:223,1
BRF:0
BRH:0
LF:164
LH:160
end_of_record
SF:/Users/lsh/projects/crates/wami/src/service/reports/credential_report.rs
FN:50,_RNvMNtNtNtCs9VsQExrgwtF_4wami7service7reports17credential_reportINtB2_23CredentialReportServicepE13with_providerB8_
FN:250,_RNvNtNtNtNtCs9VsQExrgwtF_4wami7service7reports17credential_report5tests12test_context
FN:245,_RNvNtNtNtNtCs9VsQExrgwtF_4wami7service7reports17credential_report5tests13setup_service
FN:288,_RNvNtNtNtNtCs9VsQExrgwtF_4wami7service7reports17credential_report5testss_26test_get_credential_report
FN:329,_RNvNtNtNtNtCs9VsQExrgwtF_4wami7service7reports17credential_report5testss_30test_get_account_summary_empty
FN:264,_RNvNtNtNtNtCs9VsQExrgwtF_4wami7service7reports17credential_report5testss_31test_generate_credential_report
FN:343,_RNvNtNtNtNtCs9VsQExrgwtF_4wami7service7reports17credential_report5testss_39test_get_account_summary_with_resources
FN:318,_RNvNtNtNtNtCs9VsQExrgwtF_4wami7service7reports17credential_report5testss_40test_get_credential_report_not_generated
FN:161,_RNCNCNvMNtNtNtCs9VsQExrgwtF_4wami7service7reports17credential_reportINtB6_23CredentialReportServiceNtNtNtNtBc_5store6memory4wami17InMemoryWamiStoreE21get_credential_report00Bc_
FN:108,_RNCNCNvMNtNtNtCs9VsQExrgwtF_4wami7service7reports17credential_reportINtB6_23CredentialReportServiceNtNtNtNtBc_5store6memory4wami17InMemoryWamiStoreE26generate_credential_report00Bc_
FN:120,_RNCNCNvMNtNtNtCs9VsQExrgwtF_4wami7service7reports17credential_reportINtB6_23CredentialReportServiceNtNtNtNtBc_5store6memory4wami17InMemoryWamiStoreE26generate_credential_report0s0_0Bc_
FN:123,_RNCNCNvMNtNtNtCs9VsQExrgwtF_4wami7service7reports17credential_reportINtB6_23CredentialReportServiceNtNtNtNtBc_5store6memory4wami17InMemoryWamiStoreE26generate_credential_report0s1_0Bc_
FN:130,_RNCNCNvMNtNtNtCs9VsQExrgwtF_4wami7service7reports17credential_reportINtB6_23CredentialReportServiceNtNtNtNtBc_5store6memory4wami17InMemoryWamiStoreE26generate_credential_report0s2_0Bc_
FN:113,_RNCNCNvMNtNtNtCs9VsQExrgwtF_4wami7service7reports17credential_reportINtB6_23CredentialReportServiceNtNtNtNtBc_5store6memory4wami17InMemoryWamiStoreE26generate_credential_report0s_0Bc_
FN:181,_RNCNvMNtNtNtCs9VsQExrgwtF_4wami7service7reports17credential_reportINtB4_23CredentialReportServiceNtNtNtNtBa_5store6memory4wami17InMemoryWamiStoreE19get_account_summary0Ba_
FN:153,_RNCNvMNtNtNtCs9VsQExrgwtF_4wami7service7reports17credential_reportINtB4_23CredentialReportServiceNtNtNtNtBa_5store6memory4wami17InMemoryWamiStoreE21get_credential_report0Ba_
FN:64,_RNCNvMNtNtNtCs9VsQExrgwtF_4wami7service7reports17credential_reportINtB4_23CredentialReportServiceNtNtNtNtBa_5store6memory4wami17InMemoryWamiStoreE26generate_credential_report0Ba_
FN:178,_RNvMNtNtNtCs9VsQExrgwtF_4wami7service7reports17credential_reportINtB2_23CredentialReportServiceNtNtNtNtB8_5store6memory4wami17InMemoryWamiStoreE19get_account_summaryB8_
FN:150,_RNvMNtNtNtCs9VsQExrgwtF_4wami7service7reports17credential_reportINtB2_23CredentialReportServiceNtNtNtNtB8_5store6memory4wami17InMemoryWamiStoreE21get_credential_reportB8_
FN:61,_RNvMNtNtNtCs9VsQExrgwtF_4wami7service7reports17credential_reportINtB2_23CredentialReportServiceNtNtNtNtB8_5store6memory4wami17InMemoryWamiStoreE26generate_credential_reportB8_
FN:41,_RNvMNtNtNtCs9VsQExrgwtF_4wami7service7reports17credential_reportINtB2_23CredentialReportServiceNtNtNtNtB8_5store6memory4wami17InMemoryWamiStoreE3newB8_
FN:288,_RNCNvNtNtNtNtCs9VsQExrgwtF_4wami7service7reports17credential_report5testss_26test_get_credential_report0Bb_
FN:329,_RNCNvNtNtNtNtCs9VsQExrgwtF_4wami7service7reports17credential_report5testss_30test_get_account_summary_empty0Bb_
FN:264,_RNCNvNtNtNtNtCs9VsQExrgwtF_4wami7service7reports17credential_report5testss_31test_generate_credential_report0Bb_
FN:343,_RNCNvNtNtNtNtCs9VsQExrgwtF_4wami7service7reports17credential_report5testss_39test_get_account_summary_with_resources0Bb_
FN:318,_RNCNvNtNtNtNtCs9VsQExrgwtF_4wami7service7reports17credential_report5testss_40test_get_credential_report_not_generated0Bb_
FNDA:0,_RNvMNtNtNtCs9VsQExrgwtF_4wami7service7reports17credential_reportINtB2_23CredentialReportServicepE13with_providerB8_
FNDA:3,_RNvNtNtNtNtCs9VsQExrgwtF_4wami7service7reports17credential_report5tests12test_context
FNDA:5,_RNvNtNtNtNtCs9VsQExrgwtF_4wami7service7reports17credential_report5tests13setup_service
FNDA:1,_RNvNtNtNtNtCs9VsQExrgwtF_4wami7service7reports17credential_report5testss_26test_get_credential_report
FNDA:1,_RNvNtNtNtNtCs9VsQExrgwtF_4wami7service7reports17credential_report5testss_30test_get_account_summary_empty
FNDA:1,_RNvNtNtNtNtCs9VsQExrgwtF_4wami7service7reports17credential_report5testss_31test_generate_credential_report
FNDA:1,_RNvNtNtNtNtCs9VsQExrgwtF_4wami7service7reports17credential_report5testss_39test_get_account_summary_with_resources
FNDA:1,_RNvNtNtNtNtCs9VsQExrgwtF_4wami7service7reports17credential_report5testss_40test_get_credential_report_not_generated
FNDA:1,_RNCNCNvMNtNtNtCs9VsQExrgwtF_4wami7service7reports17credential_reportINtB6_23CredentialReportServiceNtNtNtNtBc_5store6memory4wami17InMemoryWamiStoreE21get_credential_report00Bc_
FNDA:0,_RNCNCNvMNtNtNtCs9VsQExrgwtF_4wami7service7reports17credential_reportINtB6_23CredentialReportServiceNtNtNtNtBc_5store6memory4wami17InMemoryWamiStoreE26generate_credential_report00Bc_
FNDA:0,_RNCNCNvMNtNtNtCs9VsQExrgwtF_4wami7service7reports17credential_reportINtB6_23CredentialReportServiceNtNtNtNtBc_5store6memory4wami17InMemoryWamiStoreE26generate_credential_report0s0_0Bc_
FNDA:0,_RNCNCNvMNtNtNtCs9VsQExrgwtF_4wami7service7reports17credential_reportINtB6_23CredentialReportServiceNtNtNtNtBc_5store6memory4wami17InMemoryWamiStoreE26generate_credential_report0s1_0Bc_
FNDA:0,_RNCNCNvMNtNtNtCs9VsQExrgwtF_4wami7service7reports17credential_reportINtB6_23CredentialReportServiceNtNtNtNtBc_5store6memory4wami17InMemoryWamiStoreE26generate_credential_report0s2_0Bc_
FNDA:0,_RNCNCNvMNtNtNtCs9VsQExrgwtF_4wami7service7reports17credential_reportINtB6_23CredentialReportServiceNtNtNtNtBc_5store6memory4wami17InMemoryWamiStoreE26generate_credential_report0s_0Bc_
FNDA:2,_RNCNvMNtNtNtCs9VsQExrgwtF_4wami7service7reports17credential_reportINtB4_23CredentialReportServiceNtNtNtNtBa_5store6memory4wami17InMemoryWamiStoreE19get_account_summary0Ba_
FNDA:2,_RNCNvMNtNtNtCs9VsQExrgwtF_4wami7service7reports17credential_reportINtB4_23CredentialReportServiceNtNtNtNtBa_5store6memory4wami17InMemoryWamiStoreE21get_credential_report0Ba_
FNDA:2,_RNCNvMNtNtNtCs9VsQExrgwtF_4wami7service7reports17credential_reportINtB4_23CredentialReportServiceNtNtNtNtBa_5store6memory4wami17InMemoryWamiStoreE26generate_credential_report0Ba_
FNDA:2,_RNvMNtNtNtCs9VsQExrgwtF_4wami7service7reports17credential_reportINtB2_23CredentialReportServiceNtNtNtNtB8_5store6memory4wami17InMemoryWamiStoreE19get_account_summaryB8_
FNDA:2,_RNvMNtNtNtCs9VsQExrgwtF_4wami7service7reports17credential_reportINtB2_23CredentialReportServiceNtNtNtNtB8_5store6memory4wami17InMemoryWamiStoreE21get_credential_reportB8_
FNDA:2,_RNvMNtNtNtCs9VsQExrgwtF_4wami7service7reports17credential_reportINtB2_23CredentialReportServiceNtNtNtNtB8_5store6memory4wami17InMemoryWamiStoreE26generate_credential_reportB8_
FNDA:5,_RNvMNtNtNtCs9VsQExrgwtF_4wami7service7reports17credential_reportINtB2_23CredentialReportServiceNtNtNtNtB8_5store6memory4wami17InMemoryWamiStoreE3newB8_
FNDA:1,_RNCNvNtNtNtNtCs9VsQExrgwtF_4wami7service7reports17credential_report5testss_26test_get_credential_report0Bb_
FNDA:1,_RNCNvNtNtNtNtCs9VsQExrgwtF_4wami7service7reports17credential_report5testss_30test_get_account_summary_empty0Bb_
FNDA:1,_RNCNvNtNtNtNtCs9VsQExrgwtF_4wami7service7reports17credential_report5testss_31test_generate_credential_report0Bb_
FNDA:1,_RNCNvNtNtNtNtCs9VsQExrgwtF_4wami7service7reports17credential_report5testss_39test_get_account_summary_with_resources0Bb_
FNDA:1,_RNCNvNtNtNtNtCs9VsQExrgwtF_4wami7service7reports17credential_report5testss_40test_get_credential_report_not_generated0Bb_
FNF:26
FNH:20
DA:41,5
DA:42,5
DA:43,5
DA:44,5
DA:45,5
DA:46,5
DA:47,5
DA:50,0
DA:51,0
DA:52,0
DA:53,0
DA:54,0
DA:55,0
DA:56,0
DA:61,2
DA:62,2
DA:63,2
DA:64,2
DA:66,2
DA:69,2
DA:75,6
DA:77,4
DA:78,4
DA:79,4
DA:80,4
DA:81,4
DA:82,4
DA:84,4
DA:85,4
DA:86,4
DA:87,4
DA:88,4
DA:89,4
DA:92,4
DA:93,4
DA:94,4
DA:95,4
DA:96,4
DA:97,4
DA:98,4
DA:101,4
DA:102,4
DA:105,4
DA:107,4
DA:108,4
DA:110,4
DA:111,4
DA:112,4
DA:113,4
DA:114,0
DA:116,0
DA:117,0
DA:118,4
DA:119,4
DA:120,4
DA:121,4
DA:122,4
DA:123,4
DA:124,0
DA:126,0
DA:127,0
DA:128,4
DA:129,4
DA:130,4
DA:135,2
DA:137,2
DA:138,2
DA:139,2
DA:140,2
DA:141,2
DA:143,2
DA:144,2
DA:145,2
DA:146,2
DA:147,2
DA:150,2
DA:151,2
DA:152,2
DA:153,2
DA:154,2
DA:155,2
DA:156,2
DA:157,2
DA:158,2
DA:159,2
DA:160,2
DA:161,1
DA:162,1
DA:165,1
DA:166,1
DA:167,1
DA:170,1
DA:171,1
DA:172,1
DA:173,1
DA:174,1
DA:175,2
DA:178,2
DA:179,2
DA:180,2
DA:181,2
DA:182,2
DA:185,2
DA:186,2
DA:189,2
DA:190,2
DA:193,2
DA:194,2
DA:197,2
DA:198,2
DA:201,2
DA:202,7
DA:203,5
DA:204,5
DA:208,2
DA:209,2
DA:211,2
DA:214,2
DA:215,2
DA:216,2
DA:217,2
DA:218,2
DA:219,2
DA:220,2
DA:221,2
DA:222,2
DA:223,2
DA:224,2
DA:225,2
DA:226,2
DA:227,2
DA:228,2
DA:229,2
DA:231,2
DA:232,2
DA:233,2
DA:234,2
DA:245,5
DA:246,5
DA:247,5
DA:248,5
DA:250,3
DA:251,3
DA:252,3
DA:253,3
DA:254,3
DA:255,3
DA:256,3
DA:257,3
DA:258,3
DA:259,3
DA:260,3
DA:261,3
DA:264,1
DA:265,1
DA:266,1
DA:269,4
DA:270,3
DA:271,3
DA:272,3
DA:273,3
DA:274,3
DA:275,3
DA:276,3
DA:277,3
DA:280,1
DA:281,1
DA:283,1
DA:284,1
DA:285,1
DA:288,1
DA:289,1
DA:290,1
DA:293,1
DA:294,1
DA:295,1
DA:296,1
DA:297,1
DA:298,1
DA:299,1
DA:300,1
DA:303,1
DA:304,1
DA:305,1
DA:306,1
DA:307,1
DA:310,1
DA:311,1
DA:313,1
DA:314,1
DA:315,1
DA:318,1
DA:319,1
DA:321,1
DA:322,1
DA:324,1
DA:325,1
DA:326,1
DA:329,1
DA:330,1
DA:332,1
DA:333,1
DA:335,1
DA:336,1
DA:337,1
DA:338,1
DA:339,1
DA:340,1
DA:343,1
DA:344,1
DA:345,1
DA:348,6
DA:349,5
DA:350,5
DA:351,5
DA:352,5
DA:353,5
DA:354,5
DA:355,5
DA:356,5
DA:359,1
DA:360,1
DA:362,1
DA:363,1
DA:364,1
BRF:0
BRH:0
LF:244
LH:226
end_of_record
SF:/Users/lsh/projects/crates/wami/src/service/sso_admin/account_assignment.rs
FN:51,_RNCNvMNtNtNtCs9VsQExrgwtF_4wami7service9sso_admin18account_assignmentINtB4_24AccountAssignmentServiceNtNtNtNtBa_5store6memory4wami17InMemoryWamiStoreE22get_account_assignment0Ba_
FN:73,_RNCNvMNtNtNtCs9VsQExrgwtF_4wami7service9sso_admin18account_assignmentINtB4_24AccountAssignmentServiceNtNtNtNtBa_5store6memory4wami17InMemoryWamiStoreE24list_account_assignments0Ba_
FN:39,_RNCNvMNtNtNtCs9VsQExrgwtF_4wami7service9sso_admin18account_assignmentINtB4_24AccountAssignmentServiceNtNtNtNtBa_5store6memory4wami17InMemoryWamiStoreE25create_account_assignment0Ba_
FN:60,_RNCNvMNtNtNtCs9VsQExrgwtF_4wami7service9sso_admin18account_assignmentINtB4_24AccountAssignmentServiceNtNtNtNtBa_5store6memory4wami17InMemoryWamiStoreE25delete_account_assignment0Ba_
FN:48,_RNvMNtNtNtCs9VsQExrgwtF_4wami7service9sso_admin18account_assignmentINtB2_24AccountAssignmentServiceNtNtNtNtB8_5store6memory4wami17InMemoryWamiStoreE22get_account_assignmentB8_
FN:69,_RNvMNtNtNtCs9VsQExrgwtF_4wami7service9sso_admin18account_assignmentINtB2_24AccountAssignmentServiceNtNtNtNtB8_5store6memory4wami17InMemoryWamiStoreE24list_account_assignmentsB8_
FN:36,_RNvMNtNtNtCs9VsQExrgwtF_4wami7service9sso_admin18account_assignmentINtB2_24AccountAssignmentServiceNtNtNtNtB8_5store6memory4wami17InMemoryWamiStoreE25create_account_assignmentB8_
FN:60,_RNvMNtNtNtCs9VsQExrgwtF_4wami7service9sso_admin18account_assignmentINtB2_24AccountAssignmentServiceNtNtNtNtB8_5store6memory4wami17InMemoryWamiStoreE25delete_account_assignmentB8_
FN:20,_RNvMNtNtNtCs9VsQExrgwtF_4wami7service9sso_admin18account_assignmentINtB2_24AccountAssignmentServiceNtNtNtNtB8_5store6memory4wami17InMemoryWamiStoreE3newB8_
FN:88,_RNvNtNtNtNtCs9VsQExrgwtF_4wami7service9sso_admin18account_assignment5tests13setup_service
FN:93,_RNvNtNtNtNtCs9VsQExrgwtF_4wami7service9sso_admin18account_assignment5tests22create_test_assignment
FN:154,_RNvNtNtNtNtCs9VsQExrgwtF_4wami7service9sso_admin18account_assignment5testss_21test_list_assignments
FN:133,_RNvNtNtNtNtCs9VsQExrgwtF_4wami7service9sso_admin18account_assignment5testss_22test_delete_assignment
FN:115,_RNvNtNtNtNtCs9VsQExrgwtF_4wami7service9sso_admin18account_assignment5testss_30test_create_and_get_assignment
FN:28,_RNvMNtNtNtCs9VsQExrgwtF_4wami7service9sso_admin18account_assignmentINtB2_24AccountAssignmentServicepE13with_providerB8_
FN:154,_RNCNvNtNtNtNtCs9VsQExrgwtF_4wami7service9sso_admin18account_assignment5testss_21test_list_assignments0Bb_
FN:133,_RNCNvNtNtNtNtCs9VsQExrgwtF_4wami7service9sso_admin18account_assignment5testss_22test_delete_assignment0Bb_
FN:115,_RNCNvNtNtNtNtCs9VsQExrgwtF_4wami7service9sso_admin18account_assignment5testss_30test_create_and_get_assignment0Bb_
FNDA:2,_RNCNvMNtNtNtCs9VsQExrgwtF_4wami7service9sso_admin18account_assignmentINtB4_24AccountAssignmentServiceNtNtNtNtBa_5store6memory4wami17InMemoryWamiStoreE22get_account_assignment0Ba_
FNDA:1,_RNCNvMNtNtNtCs9VsQExrgwtF_4wami7service9sso_admin18account_assignmentINtB4_24AccountAssignmentServiceNtNtNtNtBa_5store6memory4wami17InMemoryWamiStoreE24list_account_assignments0Ba_
FNDA:4,_RNCNvMNtNtNtCs9VsQExrgwtF_4wami7service9sso_admin18account_assignmentINtB4_24AccountAssignmentServiceNtNtNtNtBa_5store6memory4wami17InMemoryWamiStoreE25create_account_assignment0Ba_
FNDA:1,_RNCNvMNtNtNtCs9VsQExrgwtF_4wami7service9sso_admin18account_assignmentINtB4_24AccountAssignmentServiceNtNtNtNtBa_5store6memory4wami17InMemoryWamiStoreE25delete_account_assignment0Ba_
FNDA:2,_RNvMNtNtNtCs9VsQExrgwtF_4wami7service9sso_admin18account_assignmentINtB2_24AccountAssignmentServiceNtNtNtNtB8_5store6memory4wami17InMemoryWamiStoreE22get_account_assignmentB8_
FNDA:1,_RNvMNtNtNtCs9VsQExrgwtF_4wami7service9sso_admin18account_assignmentINtB2_24AccountAssignmentServiceNtNtNtNtB8_5store6memory4wami17InMemoryWamiStoreE24list_account_assignmentsB8_
FNDA:4,_RNvMNtNtNtCs9VsQExrgwtF_4wami7service9sso_admin18account_assignmentINtB2_24AccountAssignmentServiceNtNtNtNtB8_5store6memory4wami17InMemoryWamiStoreE25create_account_assignmentB8_
FNDA:1,_RNvMNtNtNtCs9VsQExrgwtF_4wami7service9sso_admin18account_assignmentINtB2_24AccountAssignmentServiceNtNtNtNtB8_5store6memory4wami17InMemoryWamiStoreE25delete_account_assignmentB8_
FNDA:3,_RNvMNtNtNtCs9VsQExrgwtF_4wami7service9sso_admin18account_assignmentINtB2_24AccountAssignmentServiceNtNtNtNtB8_5store6memory4wami17InMemoryWamiStoreE3newB8_
FNDA:3,_RNvNtNtNtNtCs9VsQExrgwtF_4wami7service9sso_admin18account_assignment5tests13setup_service
FNDA:4,_RNvNtNtNtNtCs9VsQExrgwtF_4wami7service9sso_admin18account_assignment5tests22create_test_assignment
FNDA:1,_RNvNtNtNtNtCs9VsQExrgwtF_4wami7service9sso_admin18account_assignment5testss_21test_list_assignments
FNDA:1,_RNvNtNtNtNtCs9VsQExrgwtF_4wami7service9sso_admin18account_assignment5testss_22test_delete_assignment
FNDA:1,_RNvNtNtNtNtCs9VsQExrgwtF_4wami7service9sso_admin18account_assignment5testss_30test_create_and_get_assignment
FNDA:0,_RNvMNtNtNtCs9VsQExrgwtF_4wami7service9sso_admin18account_assignmentINtB2_24AccountAssignmentServicepE13with_providerB8_
FNDA:1,_RNCNvNtNtNtNtCs9VsQExrgwtF_4wami7service9sso_admin18account_assignment5testss_21test_list_assignments0Bb_
FNDA:1,_RNCNvNtNtNtNtCs9VsQExrgwtF_4wami7service9sso_admin18account_assignment5testss_22test_delete_assignment0Bb_
FNDA:1,_RNCNvNtNtNtNtCs9VsQExrgwtF_4wami7service9sso_admin18account_assignment5testss_30test_create_and_get_assignment0Bb_
FNF:18
FNH:17
DA:20,3
DA:21,3
DA:22,3
DA:23,3
DA:24,3
DA:25,3
DA:28,0
DA:29,0
DA:30,0
DA:31,0
DA:32,0
DA:33,0
DA:36,4
DA:37,4
DA:38,4
DA:39,4
DA:40,4
DA:41,4
DA:42,4
DA:43,4
DA:44,4
DA:45,4
DA:48,2
DA:49,2
DA:50,2
DA:51,2
DA:52,2
DA:53,2
DA:54,2
DA:55,2
DA:56,2
DA:57,2
DA:60,1
DA:61,1
DA:62,1
DA:63,1
DA:64,1
DA:65,1
DA:66,1
DA:69,1
DA:70,1
DA:71,1
DA:72,1
DA:73,1
DA:74,1
DA:75,1
DA:76,1
DA:77,1
DA:78,1
DA:79,1
DA:88,3
DA:89,3
DA:90,3
DA:91,3
DA:93,4
DA:94,4
DA:95,4
DA:96,4
DA:97,4
DA:98,4
DA:99,4
DA:100,4
DA:101,4
DA:102,4
DA:103,4
DA:104,4
DA:105,4
DA:106,4
DA:107,4
DA:108,4
DA:109,4
DA:110,4
DA:111,4
DA:112,4
DA:115,1
DA:116,1
DA:117,1
DA:119,1
DA:120,1
DA:121,1
DA:122,1
DA:123,1
DA:125,1
DA:126,1
DA:127,1
DA:128,1
DA:129,1
DA:130,1
DA:133,1
DA:134,1
DA:135,1
DA:137,1
DA:138,1
DA:139,1
DA:140,1
DA:141,1
DA:142,1
DA:143,1
DA:144,1
DA:146,1
DA:147,1
DA:148,1
DA:149,1
DA:150,1
DA:151,1
DA:154,1
DA:155,1
DA:156,1
DA:157,1
DA:159,1
DA:160,1
DA:161,1
DA:162,1
DA:163,1
DA:164,1
DA:165,1
DA:166,1
DA:168,1
DA:169,1
DA:170,1
DA:171,1
DA:172,1
DA:173,1
BRF:0
BRH:0
LF:133
LH:127
end_of_record
SF:/Users/lsh/projects/crates/wami/src/service/sso_admin/application.rs
FN:28,_RNvMNtNtNtCs9VsQExrgwtF_4wami7service9sso_admin11applicationINtB2_18ApplicationServicepE13with_providerB8_
FN:45,_RNCNvMNtNtNtCs9VsQExrgwtF_4wami7service9sso_admin11applicationINtB4_18ApplicationServiceNtNtNtNtBa_5store6memory4wami17InMemoryWamiStoreE15get_application0Ba_
FN:54,_RNCNvMNtNtNtCs9VsQExrgwtF_4wami7service9sso_admin11applicationINtB4_18ApplicationServiceNtNtNtNtBa_5store6memory4wami17InMemoryWamiStoreE17list_applications0Ba_
FN:36,_RNCNvMNtNtNtCs9VsQExrgwtF_4wami7service9sso_admin11applicationINtB4_18ApplicationServiceNtNtNtNtBa_5store6memory4wami17InMemoryWamiStoreE18create_application0Ba_
FN:45,_RNvMNtNtNtCs9VsQExrgwtF_4wami7service9sso_admin11applicationINtB2_18ApplicationServiceNtNtNtNtB8_5store6memory4wami17InMemoryWamiStoreE15get_applicationB8_
FN:54,_RNvMNtNtNtCs9VsQExrgwtF_4wami7service9sso_admin11applicationINtB2_18ApplicationServiceNtNtNtNtB8_5store6memory4wami17InMemoryWamiStoreE17list_applicationsB8_
FN:36,_RNvMNtNtNtCs9VsQExrgwtF_4wami7service9sso_admin11applicationINtB2_18ApplicationServiceNtNtNtNtB8_5store6memory4wami17InMemoryWamiStoreE18create_applicationB8_
FN:20,_RNvMNtNtNtCs9VsQExrgwtF_4wami7service9sso_admin11applicationINtB2_18ApplicationServiceNtNtNtNtB8_5store6memory4wami17InMemoryWamiStoreE3newB8_
FN:113,_RNCNvNtNtNtNtCs9VsQExrgwtF_4wami7service9sso_admin11application5testss_22test_list_applications0Bb_
FN:95,_RNCNvNtNtNtNtCs9VsQExrgwtF_4wami7service9sso_admin11application5testss_31test_create_and_get_application0Bb_
FN:69,_RNvNtNtNtNtCs9VsQExrgwtF_4wami7service9sso_admin11application5tests13setup_service
FN:74,_RNvNtNtNtNtCs9VsQExrgwtF_4wami7service9sso_admin11application5tests23create_test_application
FN:113,_RNvNtNtNtNtCs9VsQExrgwtF_4wami7service9sso_admin11application5testss_22test_list_applications
FN:95,_RNvNtNtNtNtCs9VsQExrgwtF_4wami7service9sso_admin11application5testss_31test_create_and_get_application
FNDA:0,_RNvMNtNtNtCs9VsQExrgwtF_4wami7service9sso_admin11applicationINtB2_18ApplicationServicepE13with_providerB8_
FNDA:1,_RNCNvMNtNtNtCs9VsQExrgwtF_4wami7service9sso_admin11applicationINtB4_18ApplicationServiceNtNtNtNtBa_5store6memory4wami17InMemoryWamiStoreE15get_application0Ba_
FNDA:1,_RNCNvMNtNtNtCs9VsQExrgwtF_4wami7service9sso_admin11applicationINtB4_18ApplicationServiceNtNtNtNtBa_5store6memory4wami17InMemoryWamiStoreE17list_applications0Ba_
FNDA:3,_RNCNvMNtNtNtCs9VsQExrgwtF_4wami7service9sso_admin11applicationINtB4_18ApplicationServiceNtNtNtNtBa_5store6memory4wami17InMemoryWamiStoreE18create_application0Ba_
FNDA:1,_RNvMNtNtNtCs9VsQExrgwtF_4wami7service9sso_admin11applicationINtB2_18ApplicationServiceNtNtNtNtB8_5store6memory4wami17InMemoryWamiStoreE15get_applicationB8_
FNDA:1,_RNvMNtNtNtCs9VsQExrgwtF_4wami7service9sso_admin11applicationINtB2_18ApplicationServiceNtNtNtNtB8_5store6memory4wami17InMemoryWamiStoreE17list_applicationsB8_
FNDA:3,_RNvMNtNtNtCs9VsQExrgwtF_4wami7service9sso_admin11applicationINtB2_18ApplicationServiceNtNtNtNtB8_5store6memory4wami17InMemoryWamiStoreE18create_applicationB8_
FNDA:2,_RNvMNtNtNtCs9VsQExrgwtF_4wami7service9sso_admin11applicationINtB2_18ApplicationServiceNtNtNtNtB8_5store6memory4wami17InMemoryWamiStoreE3newB8_
FNDA:1,_RNCNvNtNtNtNtCs9VsQExrgwtF_4wami7service9sso_admin11application5testss_22test_list_applications0Bb_
FNDA:1,_RNCNvNtNtNtNtCs9VsQExrgwtF_4wami7service9sso_admin11application5testss_31test_create_and_get_application0Bb_
FNDA:2,_RNvNtNtNtNtCs9VsQExrgwtF_4wami7service9sso_admin11application5tests13setup_service
FNDA:3,_RNvNtNtNtNtCs9VsQExrgwtF_4wami7service9sso_admin11application5tests23create_test_application
FNDA:1,_RNvNtNtNtNtCs9VsQExrgwtF_4wami7service9sso_admin11application5testss_22test_list_applications
FNDA:1,_RNvNtNtNtNtCs9VsQExrgwtF_4wami7service9sso_admin11application5testss_31test_create_and_get_application
FNF:14
FNH:13
DA:20,2
DA:21,2
DA:22,2
DA:23,2
DA:24,2
DA:25,2
DA:28,0
DA:29,0
DA:30,0
DA:31,0
DA:32,0
DA:33,0
DA:36,3
DA:37,3
DA:38,3
DA:39,3
DA:40,3
DA:41,3
DA:42,3
DA:45,1
DA:46,1
DA:47,1
DA:48,1
DA:49,1
DA:50,1
DA:51,1
DA:54,1
DA:55,1
DA:56,1
DA:57,1
DA:58,1
DA:59,1
DA:60,1
DA:69,2
DA:70,2
DA:71,2
DA:72,2
DA:74,3
DA:75,3
DA:76,3
DA:77,3
DA:78,3
DA:79,3
DA:80,3
DA:81,3
DA:82,3
DA:83,3
DA:84,3
DA:85,3
DA:86,3
DA:87,3
DA:88,3
DA:89,3
DA:90,3
DA:91,3
DA:92,3
DA:95,1
DA:96,1
DA:97,1
DA:99,1
DA:100,1
DA:101,1
DA:102,1
DA:103,1
DA:105,1
DA:106,1
DA:107,1
DA:108,1
DA:109,1
DA:110,1
DA:113,1
DA:114,1
DA:115,1
DA:117,1
DA:118,1
DA:119,1
DA:120,1
DA:121,1
DA:122,1
DA:123,1
DA:124,1
DA:126,1
DA:127,1
DA:128,1
BRF:0
BRH:0
LF:91
LH:85
end_of_record
SF:/Users/lsh/projects/crates/wami/src/service/sso_admin/instance.rs
FN:28,_RNvMNtNtNtCs9VsQExrgwtF_4wami7service9sso_admin8instanceINtB2_15InstanceServicepE13with_providerB8_
FN:57,_RNvNtNtNtNtCs9VsQExrgwtF_4wami7service9sso_admin8instance5tests13setup_service
FN:62,_RNvNtNtNtNtCs9VsQExrgwtF_4wami7service9sso_admin8instance5tests20create_test_instance
FN:93,_RNvNtNtNtNtCs9VsQExrgwtF_4wami7service9sso_admin8instance5testss_19test_list_instances
FN:80,_RNvNtNtNtNtCs9VsQExrgwtF_4wami7service9sso_admin8instance5testss_28test_create_and_get_instance
FN:41,_RNCNvMNtNtNtCs9VsQExrgwtF_4wami7service9sso_admin8instanceINtB4_15InstanceServiceNtNtNtNtBa_5store6memory4wami17InMemoryWamiStoreE12get_instance0Ba_
FN:46,_RNCNvMNtNtNtCs9VsQExrgwtF_4wami7service9sso_admin8instanceINtB4_15InstanceServiceNtNtNtNtBa_5store6memory4wami17InMemoryWamiStoreE14list_instances0Ba_
FN:36,_RNCNvMNtNtNtCs9VsQExrgwtF_4wami7service9sso_admin8instanceINtB4_15InstanceServiceNtNtNtNtBa_5store6memory4wami17InMemoryWamiStoreE15create_instance0Ba_
FN:41,_RNvMNtNtNtCs9VsQExrgwtF_4wami7service9sso_admin8instanceINtB2_15InstanceServiceNtNtNtNtB8_5store6memory4wami17InMemoryWamiStoreE12get_instanceB8_
FN:46,_RNvMNtNtNtCs9VsQExrgwtF_4wami7service9sso_admin8instanceINtB2_15InstanceServiceNtNtNtNtB8_5store6memory4wami17InMemoryWamiStoreE14list_instancesB8_
FN:36,_RNvMNtNtNtCs9VsQExrgwtF_4wami7service9sso_admin8instanceINtB2_15InstanceServiceNtNtNtNtB8_5store6memory4wami17InMemoryWamiStoreE15create_instanceB8_
FN:20,_RNvMNtNtNtCs9VsQExrgwtF_4wami7service9sso_admin8instanceINtB2_15InstanceServiceNtNtNtNtB8_5store6memory4wami17InMemoryWamiStoreE3newB8_
FN:93,_RNCNvNtNtNtNtCs9VsQExrgwtF_4wami7service9sso_admin8instance5testss_19test_list_instances0Bb_
FN:80,_RNCNvNtNtNtNtCs9VsQExrgwtF_4wami7service9sso_admin8instance5testss_28test_create_and_get_instance0Bb_
FNDA:0,_RNvMNtNtNtCs9VsQExrgwtF_4wami7service9sso_admin8instanceINtB2_15InstanceServicepE13with_providerB8_
FNDA:2,_RNvNtNtNtNtCs9VsQExrgwtF_4wami7service9sso_admin8instance5tests13setup_service
FNDA:3,_RNvNtNtNtNtCs9VsQExrgwtF_4wami7service9sso_admin8instance5tests20create_test_instance
FNDA:1,_RNvNtNtNtNtCs9VsQExrgwtF_4wami7service9sso_admin8instance5testss_19test_list_instances
FNDA:1,_RNvNtNtNtNtCs9VsQExrgwtF_4wami7service9sso_admin8instance5testss_28test_create_and_get_instance
FNDA:1,_RNCNvMNtNtNtCs9VsQExrgwtF_4wami7service9sso_admin8instanceINtB4_15InstanceServiceNtNtNtNtBa_5store6memory4wami17InMemoryWamiStoreE12get_instance0Ba_
FNDA:1,_RNCNvMNtNtNtCs9VsQExrgwtF_4wami7service9sso_admin8instanceINtB4_15InstanceServiceNtNtNtNtBa_5store6memory4wami17InMemoryWamiStoreE14list_instances0Ba_
FNDA:3,_RNCNvMNtNtNtCs9VsQExrgwtF_4wami7service9sso_admin8instanceINtB4_15InstanceServiceNtNtNtNtBa_5store6memory4wami17InMemoryWamiStoreE15create_instance0Ba_
FNDA:1,_RNvMNtNtNtCs9VsQExrgwtF_4wami7service9sso_admin8instanceINtB2_15InstanceServiceNtNtNtNtB8_5store6memory4wami17InMemoryWamiStoreE12get_instanceB8_
FNDA:1,_RNvMNtNtNtCs9VsQExrgwtF_4wami7service9sso_admin8instanceINtB2_15InstanceServiceNtNtNtNtB8_5store6memory4wami17InMemoryWamiStoreE14list_instancesB8_
FNDA:3,_RNvMNtNtNtCs9VsQExrgwtF_4wami7service9sso_admin8instanceINtB2_15InstanceServiceNtNtNtNtB8_5store6memory4wami17InMemoryWamiStoreE15create_instanceB8_
FNDA:2,_RNvMNtNtNtCs9VsQExrgwtF_4wami7service9sso_admin8instanceINtB2_15InstanceServiceNtNtNtNtB8_5store6memory4wami17InMemoryWamiStoreE3newB8_
FNDA:1,_RNCNvNtNtNtNtCs9VsQExrgwtF_4wami7service9sso_admin8instance5testss_19test_list_instances0Bb_
FNDA:1,_RNCNvNtNtNtNtCs9VsQExrgwtF_4wami7service9sso_admin8instance5testss_28test_create_and_get_instance0Bb_
FNF:14
FNH:13
DA:20,2
DA:21,2
DA:22,2
DA:23,2
DA:24,2
DA:25,2
DA:28,0
DA:29,0
DA:30,0
DA:31,0
DA:32,0
DA:33,0
DA:36,3
DA:37,3
DA:38,3
DA:41,1
DA:42,1
DA:43,1
DA:46,1
DA:47,1
DA:48,1
DA:57,2
DA:58,2
DA:59,2
DA:60,2
DA:62,3
DA:63,3
DA:64,3
DA:65,3
DA:66,3
DA:67,3
DA:68,3
DA:69,3
DA:70,3
DA:71,3
DA:72,3
DA:73,3
DA:74,3
DA:75,3
DA:76,3
DA:77,3
DA:80,1
DA:81,1
DA:82,1
DA:84,1
DA:85,1
DA:87,1
DA:88,1
DA:89,1
DA:90,1
DA:93,1
DA:94,1
DA:96,1
DA:97,1
DA:98,1
DA:99,1
DA:100,1
DA:101,1
DA:102,1
DA:103,1
DA:105,1
DA:106,1
DA:107,1
BRF:0
BRH:0
LF:70
LH:64
end_of_record
SF:/Users/lsh/projects/crates/wami/src/service/sso_admin/permission_set.rs
FN:51,_RNCNvMNtNtNtCs9VsQExrgwtF_4wami7service9sso_admin14permission_setINtB4_20PermissionSetServiceNtNtNtNtBa_5store6memory4wami17InMemoryWamiStoreE18get_permission_set0Ba_
FN:81,_RNCNvMNtNtNtCs9VsQExrgwtF_4wami7service9sso_admin14permission_setINtB4_20PermissionSetServiceNtNtNtNtBa_5store6memory4wami17InMemoryWamiStoreE20list_permission_sets0Ba_
FN:39,_RNCNvMNtNtNtCs9VsQExrgwtF_4wami7service9sso_admin14permission_setINtB4_20PermissionSetServiceNtNtNtNtBa_5store6memory4wami17InMemoryWamiStoreE21create_permission_set0Ba_
FN:72,_RNCNvMNtNtNtCs9VsQExrgwtF_4wami7service9sso_admin14permission_setINtB4_20PermissionSetServiceNtNtNtNtBa_5store6memory4wami17InMemoryWamiStoreE21delete_permission_set0Ba_
FN:63,_RNCNvMNtNtNtCs9VsQExrgwtF_4wami7service9sso_admin14permission_setINtB4_20PermissionSetServiceNtNtNtNtBa_5store6memory4wami17InMemoryWamiStoreE21update_permission_set0Ba_
FN:48,_RNvMNtNtNtCs9VsQExrgwtF_4wami7service9sso_admin14permission_setINtB2_20PermissionSetServiceNtNtNtNtB8_5store6memory4wami17InMemoryWamiStoreE18get_permission_setB8_
FN:81,_RNvMNtNtNtCs9VsQExrgwtF_4wami7service9sso_admin14permission_setINtB2_20PermissionSetServiceNtNtNtNtB8_5store6memory4wami17InMemoryWamiStoreE20list_permission_setsB8_
FN:36,_RNvMNtNtNtCs9VsQExrgwtF_4wami7service9sso_admin14permission_setINtB2_20PermissionSetServiceNtNtNtNtB8_5store6memory4wami17InMemoryWamiStoreE21create_permission_setB8_
FN:72,_RNvMNtNtNtCs9VsQExrgwtF_4wami7service9sso_admin14permission_setINtB2_20PermissionSetServiceNtNtNtNtB8_5store6memory4wami17InMemoryWamiStoreE21delete_permission_setB8_
FN:60,_RNvMNtNtNtCs9VsQExrgwtF_4wami7service9sso_admin14permission_setINtB2_20PermissionSetServiceNtNtNtNtB8_5store6memory4wami17InMemoryWamiStoreE21update_permission_setB8_
FN:20,_RNvMNtNtNtCs9VsQExrgwtF_4wami7service9sso_admin14permission_setINtB2_20PermissionSetServiceNtNtNtNtB8_5store6memory4wami17InMemoryWamiStoreE3newB8_
FN:28,_RNvMNtNtNtCs9VsQExrgwtF_4wami7service9sso_admin14permission_setINtB2_20PermissionSetServicepE13with_providerB8_
FN:175,_RNCNvNtNtNtNtCs9VsQExrgwtF_4wami7service9sso_admin14permission_set5testss_25test_list_permission_sets0Bb_
FN:154,_RNCNvNtNtNtNtCs9VsQExrgwtF_4wami7service9sso_admin14permission_set5testss_26test_delete_permission_set0Bb_
FN:139,_RNCNvNtNtNtNtCs9VsQExrgwtF_4wami7service9sso_admin14permission_set5testss_26test_update_permission_set0Bb_
FN:121,_RNCNvNtNtNtNtCs9VsQExrgwtF_4wami7service9sso_admin14permission_set5testss_34test_create_and_get_permission_set0Bb_
FN:96,_RNvNtNtNtNtCs9VsQExrgwtF_4wami7service9sso_admin14permission_set5tests13setup_service
FN:101,_RNvNtNtNtNtCs9VsQExrgwtF_4wami7service9sso_admin14permission_set5tests26create_test_permission_set
FN:175,_RNvNtNtNtNtCs9VsQExrgwtF_4wami7service9sso_admin14permission_set5testss_25test_list_permission_sets
FN:154,_RNvNtNtNtNtCs9VsQExrgwtF_4wami7service9sso_admin14permission_set5testss_26test_delete_permission_set
FN:139,_RNvNtNtNtNtCs9VsQExrgwtF_4wami7service9sso_admin14permission_set5testss_26test_update_permission_set
FN:121,_RNvNtNtNtNtCs9VsQExrgwtF_4wami7service9sso_admin14permission_set5testss_34test_create_and_get_permission_set
FNDA:2,_RNCNvMNtNtNtCs9VsQExrgwtF_4wami7service9sso_admin14permission_setINtB4_20PermissionSetServiceNtNtNtNtBa_5store6memory4wami17InMemoryWamiStoreE18get_permission_set0Ba_
FNDA:1,_RNCNvMNtNtNtCs9VsQExrgwtF_4wami7service9sso_admin14permission_setINtB4_20PermissionSetServiceNtNtNtNtBa_5store6memory4wami17InMemoryWamiStoreE20list_permission_sets0Ba_
FNDA:5,_RNCNvMNtNtNtCs9VsQExrgwtF_4wami7service9sso_admin14permission_setINtB4_20PermissionSetServiceNtNtNtNtBa_5store6memory4wami17InMemoryWamiStoreE21create_permission_set0Ba_
FNDA:1,_RNCNvMNtNtNtCs9VsQExrgwtF_4wami7service9sso_admin14permission_setINtB4_20PermissionSetServiceNtNtNtNtBa_5store6memory4wami17InMemoryWamiStoreE21delete_permission_set0Ba_
FNDA:1,_RNCNvMNtNtNtCs9VsQExrgwtF_4wami7service9sso_admin14permission_setINtB4_20PermissionSetServiceNtNtNtNtBa_5store6memory4wami17InMemoryWamiStoreE21update_permission_set0Ba_
FNDA:2,_RNvMNtNtNtCs9VsQExrgwtF_4wami7service9sso_admin14permission_setINtB2_20PermissionSetServiceNtNtNtNtB8_5store6memory4wami17InMemoryWamiStoreE18get_permission_setB8_
FNDA:1,_RNvMNtNtNtCs9VsQExrgwtF_4wami7service9sso_admin14permission_setINtB2_20PermissionSetServiceNtNtNtNtB8_5store6memory4wami17InMemoryWamiStoreE20list_permission_setsB8_
FNDA:5,_RNvMNtNtNtCs9VsQExrgwtF_4wami7service9sso_admin14permission_setINtB2_20PermissionSetServiceNtNtNtNtB8_5store6memory4wami17InMemoryWamiStoreE21create_permission_setB8_
FNDA:1,_RNvMNtNtNtCs9VsQExrgwtF_4wami7service9sso_admin14permission_setINtB2_20PermissionSetServiceNtNtNtNtB8_5store6memory4wami17InMemoryWamiStoreE21delete_permission_setB8_
FNDA:1,_RNvMNtNtNtCs9VsQExrgwtF_4wami7service9sso_admin14permission_setINtB2_20PermissionSetServiceNtNtNtNtB8_5store6memory4wami17InMemoryWamiStoreE21update_permission_setB8_
FNDA:4,_RNvMNtNtNtCs9VsQExrgwtF_4wami7service9sso_admin14permission_setINtB2_20PermissionSetServiceNtNtNtNtB8_5store6memory4wami17InMemoryWamiStoreE3newB8_
FNDA:0,_RNvMNtNtNtCs9VsQExrgwtF_4wami7service9sso_admin14permission_setINtB2_20PermissionSetServicepE13with_providerB8_
FNDA:1,_RNCNvNtNtNtNtCs9VsQExrgwtF_4wami7service9sso_admin14permission_set5testss_25test_list_permission_sets0Bb_
FNDA:1,_RNCNvNtNtNtNtCs9VsQExrgwtF_4wami7service9sso_admin14permission_set5testss_26test_delete_permission_set0Bb_
FNDA:1,_RNCNvNtNtNtNtCs9VsQExrgwtF_4wami7service9sso_admin14permission_set5testss_26test_update_permission_set0Bb_
FNDA:1,_RNCNvNtNtNtNtCs9VsQExrgwtF_4wami7service9sso_admin14permission_set5testss_34test_create_and_get_permission_set0Bb_
FNDA:4,_RNvNtNtNtNtCs9VsQExrgwtF_4wami7service9sso_admin14permission_set5tests13setup_service
FNDA:5,_RNvNtNtNtNtCs9VsQExrgwtF_4wami7service9sso_admin14permission_set5tests26create_test_permission_set
FNDA:1,_RNvNtNtNtNtCs9VsQExrgwtF_4wami7service9sso_admin14permission_set5testss_25test_list_permission_sets
FNDA:1,_RNvNtNtNtNtCs9VsQExrgwtF_4wami7service9sso_admin14permission_set5testss_26test_delete_permission_set
FNDA:1,_RNvNtNtNtNtCs9VsQExrgwtF_4wami7service9sso_admin14permission_set5testss_26test_update_permission_set
FNDA:1,_RNvNtNtNtNtCs9VsQExrgwtF_4wami7service9sso_admin14permission_set5testss_34test_create_and_get_permission_set
FNF:22
FNH:21
DA:20,4
DA:21,4
DA:22,4
DA:23,4
DA:24,4
DA:25,4
DA:28,0
DA:29,0
DA:30,0
DA:31,0
DA:32,0
DA:33,0
DA:36,5
DA:37,5
DA:38,5
DA:39,5
DA:40,5
DA:41,5
DA:42,5
DA:43,5
DA:44,5
DA:45,5
DA:48,2
DA:49,2
DA:50,2
DA:51,2
DA:52,2
DA:53,2
DA:54,2
DA:55,2
DA:56,2
DA:57,2
DA:60,1
DA:61,1
DA:62,1
DA:63,1
DA:64,1
DA:65,1
DA:66,1
DA:67,1
DA:68,1
DA:69,1
DA:72,1
DA:73,1
DA:74,1
DA:75,1
DA:76,1
DA:77,1
DA:78,1
DA:81,1
DA:82,1
DA:83,1
DA:84,1
DA:85,1
DA:86,1
DA:87,1
DA:96,4
DA:97,4
DA:98,4
DA:99,4
DA:101,5
DA:102,5
DA:103,5
DA:104,5
DA:105,5
DA:106,5
DA:107,5
DA:108,5
DA:109,5
DA:110,5
DA:111,5
DA:112,5
DA:113,5
DA:114,5
DA:115,5
DA:116,5
DA:117,5
DA:118,5
DA:121,1
DA:122,1
DA:123,1
DA:125,1
DA:126,1
DA:127,1
DA:128,1
DA:129,1
DA:131,1
DA:132,1
DA:133,1
DA:134,1
DA:135,1
DA:136,1
DA:139,1
DA:140,1
DA:141,1
DA:143,1
DA:144,1
DA:145,1
DA:146,1
DA:148,1
DA:149,1
DA:150,1
DA:151,1
DA:154,1
DA:155,1
DA:156,1
DA:158,1
DA:159,1
DA:160,1
DA:161,1
DA:162,1
DA:163,1
DA:164,1
DA:165,1
DA:167,1
DA:168,1
DA:169,1
DA:170,1
DA:171,1
DA:172,1
DA:175,1
DA:176,1
DA:177,1
DA:179,1
DA:180,1
DA:181,1
DA:182,1
DA:183,1
DA:184,1
DA:185,1
DA:186,1
DA:188,1
DA:189,1
DA:190,1
BRF:0
BRH:0
LF:147
LH:141
end_of_record
SF:/Users/lsh/projects/crates/wami/src/service/sso_admin/trusted_token_issuer.rs
FN:51,_RNCNvMNtNtNtCs9VsQExrgwtF_4wami7service9sso_admin20trusted_token_issuerINtB4_25TrustedTokenIssuerServiceNtNtNtNtBa_5store6memory4wami17InMemoryWamiStoreE24get_trusted_token_issuer0Ba_
FN:72,_RNCNvMNtNtNtCs9VsQExrgwtF_4wami7service9sso_admin20trusted_token_issuerINtB4_25TrustedTokenIssuerServiceNtNtNtNtBa_5store6memory4wami17InMemoryWamiStoreE26list_trusted_token_issuers0Ba_
FN:39,_RNCNvMNtNtNtCs9VsQExrgwtF_4wami7service9sso_admin20trusted_token_issuerINtB4_25TrustedTokenIssuerServiceNtNtNtNtBa_5store6memory4wami17InMemoryWamiStoreE27create_trusted_token_issuer0Ba_
FN:60,_RNCNvMNtNtNtCs9VsQExrgwtF_4wami7service9sso_admin20trusted_token_issuerINtB4_25TrustedTokenIssuerServiceNtNtNtNtBa_5store6memory4wami17InMemoryWamiStoreE27delete_trusted_token_issuer0Ba_
FN:48,_RNvMNtNtNtCs9VsQExrgwtF_4wami7service9sso_admin20trusted_token_issuerINtB2_25TrustedTokenIssuerServiceNtNtNtNtB8_5store6memory4wami17InMemoryWamiStoreE24get_trusted_token_issuerB8_
FN:69,_RNvMNtNtNtCs9VsQExrgwtF_4wami7service9sso_admin20trusted_token_issuerINtB2_25TrustedTokenIssuerServiceNtNtNtNtB8_5store6memory4wami17InMemoryWamiStoreE26list_trusted_token_issuersB8_
FN:36,_RNvMNtNtNtCs9VsQExrgwtF_4wami7service9sso_admin20trusted_token_issuerINtB2_25TrustedTokenIssuerServiceNtNtNtNtB8_5store6memory4wami17InMemoryWamiStoreE27create_trusted_token_issuerB8_
FN:60,_RNvMNtNtNtCs9VsQExrgwtF_4wami7service9sso_admin20trusted_token_issuerINtB2_25TrustedTokenIssuerServiceNtNtNtNtB8_5store6memory4wami17InMemoryWamiStoreE27delete_trusted_token_issuerB8_
FN:20,_RNvMNtNtNtCs9VsQExrgwtF_4wami7service9sso_admin20trusted_token_issuerINtB2_25TrustedTokenIssuerServiceNtNtNtNtB8_5store6memory4wami17InMemoryWamiStoreE3newB8_
FN:87,_RNvNtNtNtNtCs9VsQExrgwtF_4wami7service9sso_admin20trusted_token_issuer5tests13setup_service
FN:92,_RNvNtNtNtNtCs9VsQExrgwtF_4wami7service9sso_admin20trusted_token_issuer5tests18create_test_issuer
FN:150,_RNvNtNtNtNtCs9VsQExrgwtF_4wami7service9sso_admin20trusted_token_issuer5testss_17test_list_issuers
FN:129,_RNvNtNtNtNtCs9VsQExrgwtF_4wami7service9sso_admin20trusted_token_issuer5testss_18test_delete_issuer
FN:111,_RNvNtNtNtNtCs9VsQExrgwtF_4wami7service9sso_admin20trusted_token_issuer5testss_26test_create_and_get_issuer
FN:28,_RNvMNtNtNtCs9VsQExrgwtF_4wami7service9sso_admin20trusted_token_issuerINtB2_25TrustedTokenIssuerServicepE13with_providerB8_
FN:150,_RNCNvNtNtNtNtCs9VsQExrgwtF_4wami7service9sso_admin20trusted_token_issuer5testss_17test_list_issuers0Bb_
FN:129,_RNCNvNtNtNtNtCs9VsQExrgwtF_4wami7service9sso_admin20trusted_token_issuer5testss_18test_delete_issuer0Bb_
FN:111,_RNCNvNtNtNtNtCs9VsQExrgwtF_4wami7service9sso_admin20trusted_token_issuer5testss_26test_create_and_get_issuer0Bb_
FNDA:2,_RNCNvMNtNtNtCs9VsQExrgwtF_4wami7service9sso_admin20trusted_token_issuerINtB4_25TrustedTokenIssuerServiceNtNtNtNtBa_5store6memory4wami17InMemoryWamiStoreE24get_trusted_token_issuer0Ba_
FNDA:1,_RNCNvMNtNtNtCs9VsQExrgwtF_4wami7service9sso_admin20trusted_token_issuerINtB4_25TrustedTokenIssuerServiceNtNtNtNtBa_5store6memory4wami17InMemoryWamiStoreE26list_trusted_token_issuers0Ba_
FNDA:4,_RNCNvMNtNtNtCs9VsQExrgwtF_4wami7service9sso_admin20trusted_token_issuerINtB4_25TrustedTokenIssuerServiceNtNtNtNtBa_5store6memory4wami17InMemoryWamiStoreE27create_trusted_token_issuer0Ba_
FNDA:1,_RNCNvMNtNtNtCs9VsQExrgwtF_4wami7service9sso_admin20trusted_token_issuerINtB4_25TrustedTokenIssuerServiceNtNtNtNtBa_5store6memory4wami17InMemoryWamiStoreE27delete_trusted_token_issuer0Ba_
FNDA:2,_RNvMNtNtNtCs9VsQExrgwtF_4wami7service9sso_admin20trusted_token_issuerINtB2_25TrustedTokenIssuerServiceNtNtNtNtB8_5store6memory4wami17InMemoryWamiStoreE24get_trusted_token_issuerB8_
FNDA:1,_RNvMNtNtNtCs9VsQExrgwtF_4wami7service9sso_admin20trusted_token_issuerINtB2_25TrustedTokenIssuerServiceNtNtNtNtB8_5store6memory4wami17InMemoryWamiStoreE26list_trusted_token_issuersB8_
FNDA:4,_RNvMNtNtNtCs9VsQExrgwtF_4wami7service9sso_admin20trusted_token_issuerINtB2_25TrustedTokenIssuerServiceNtNtNtNtB8_5store6memory4wami17InMemoryWamiStoreE27create_trusted_token_issuerB8_
FNDA:1,_RNvMNtNtNtCs9VsQExrgwtF_4wami7service9sso_admin20trusted_token_issuerINtB2_25TrustedTokenIssuerServiceNtNtNtNtB8_5store6memory4wami17InMemoryWamiStoreE27delete_trusted_token_issuerB8_
FNDA:3,_RNvMNtNtNtCs9VsQExrgwtF_4wami7service9sso_admin20trusted_token_issuerINtB2_25TrustedTokenIssuerServiceNtNtNtNtB8_5store6memory4wami17InMemoryWamiStoreE3newB8_
FNDA:3,_RNvNtNtNtNtCs9VsQExrgwtF_4wami7service9sso_admin20trusted_token_issuer5tests13setup_service
FNDA:4,_RNvNtNtNtNtCs9VsQExrgwtF_4wami7service9sso_admin20trusted_token_issuer5tests18create_test_issuer
FNDA:1,_RNvNtNtNtNtCs9VsQExrgwtF_4wami7service9sso_admin20trusted_token_issuer5testss_17test_list_issuers
FNDA:1,_RNvNtNtNtNtCs9VsQExrgwtF_4wami7service9sso_admin20trusted_token_issuer5testss_18test_delete_issuer
FNDA:1,_RNvNtNtNtNtCs9VsQExrgwtF_4wami7service9sso_admin20trusted_token_issuer5testss_26test_create_and_get_issuer
FNDA:0,_RNvMNtNtNtCs9VsQExrgwtF_4wami7service9sso_admin20trusted_token_issuerINtB2_25TrustedTokenIssuerServicepE13with_providerB8_
FNDA:1,_RNCNvNtNtNtNtCs9VsQExrgwtF_4wami7service9sso_admin20trusted_token_issuer5testss_17test_list_issuers0Bb_
FNDA:1,_RNCNvNtNtNtNtCs9VsQExrgwtF_4wami7service9sso_admin20trusted_token_issuer5testss_18test_delete_issuer0Bb_
FNDA:1,_RNCNvNtNtNtNtCs9VsQExrgwtF_4wami7service9sso_admin20trusted_token_issuer5testss_26test_create_and_get_issuer0Bb_
FNF:18
FNH:17
DA:20,3
DA:21,3
DA:22,3
DA:23,3
DA:24,3
DA:25,3
DA:28,0
DA:29,0
DA:30,0
DA:31,0
DA:32,0
DA:33,0
DA:36,4
DA:37,4
DA:38,4
DA:39,4
DA:40,4
DA:41,4
DA:42,4
DA:43,4
DA:44,4
DA:45,4
DA:48,2
DA:49,2
DA:50,2
DA:51,2
DA:52,2
DA:53,2
DA:54,2
DA:55,2
DA:56,2
DA:57,2
DA:60,1
DA:61,1
DA:62,1
DA:63,1
DA:64,1
DA:65,1
DA:66,1
DA:69,1
DA:70,1
DA:71,1
DA:72,1
DA:73,1
DA:74,1
DA:75,1
DA:76,1
DA:77,1
DA:78,1
DA:87,3
DA:88,3
DA:89,3
DA:90,3
DA:92,4
DA:93,4
DA:94,4
DA:95,4
DA:96,4
DA:97,4
DA:98,4
DA:99,4
DA:100,4
DA:101,4
DA:102,4
DA:103,4
DA:104,4
DA:105,4
DA:106,4
DA:107,4
DA:108,4
DA:111,1
DA:112,1
DA:113,1
DA:115,1
DA:116,1
DA:117,1
DA:118,1
DA:119,1
DA:121,1
DA:122,1
DA:123,1
DA:124,1
DA:125,1
DA:126,1
DA:129,1
DA:130,1
DA:131,1
DA:133,1
DA:134,1
DA:135,1
DA:136,1
DA:137,1
DA:138,1
DA:139,1
DA:140,1
DA:142,1
DA:143,1
DA:144,1
DA:145,1
DA:146,1
DA:147,1
DA:150,1
DA:151,1
DA:152,1
DA:154,1
DA:155,1
DA:156,1
DA:157,1
DA:158,1
DA:159,1
DA:160,1
DA:161,1
DA:163,1
DA:164,1
DA:165,1
DA:166,1
DA:167,1
DA:168,1
BRF:0
BRH:0
LF:128
LH:122
end_of_record
SF:/Users/lsh/projects/crates/wami/src/service/sts/assume_role.rs
FN:210,_RNvNtNtNtNtCs9VsQExrgwtF_4wami7service3sts11assume_role5tests12test_context
FN:205,_RNvNtNtNtNtCs9VsQExrgwtF_4wami7service3sts11assume_role5tests13setup_service
FN:224,_RNvNtNtNtNtCs9VsQExrgwtF_4wami7service3sts11assume_role5testss_16test_assume_role
FN:271,_RNvNtNtNtNtCs9VsQExrgwtF_4wami7service3sts11assume_role5testss_28test_assume_role_nonexistent
FN:397,_RNvNtNtNtNtCs9VsQExrgwtF_4wami7service3sts11assume_role5testss_31test_extract_role_name_from_arn
FN:340,_RNvNtNtNtNtCs9VsQExrgwtF_4wami7service3sts11assume_role5testss_32test_assume_role_creates_session
FN:292,_RNvNtNtNtNtCs9VsQExrgwtF_4wami7service3sts11assume_role5testss_33test_assume_role_with_external_id
FN:224,_RNCNvNtNtNtNtCs9VsQExrgwtF_4wami7service3sts11assume_role5testss_16test_assume_role0Bb_
FN:271,_RNCNvNtNtNtNtCs9VsQExrgwtF_4wami7service3sts11assume_role5testss_28test_assume_role_nonexistent0Bb_
FN:397,_RNCNvNtNtNtNtCs9VsQExrgwtF_4wami7service3sts11assume_role5testss_31test_extract_role_name_from_arn0Bb_
FN:340,_RNCNvNtNtNtNtCs9VsQExrgwtF_4wami7service3sts11assume_role5testss_32test_assume_role_creates_session0Bb_
FN:292,_RNCNvNtNtNtNtCs9VsQExrgwtF_4wami7service3sts11assume_role5testss_33test_assume_role_with_external_id0Bb_
FN:48,_RNCNCNvMNtNtNtCs9VsQExrgwtF_4wami7service3sts11assume_roleINtB6_17AssumeRoleServiceNtNtNtNtBc_5store6memory4wami17InMemoryWamiStoreE11assume_role00Bc_
FN:66,_RNCNCNvMNtNtNtCs9VsQExrgwtF_4wami7service3sts11assume_roleINtB6_17AssumeRoleServiceNtNtNtNtBc_5store6memory4wami17InMemoryWamiStoreE11assume_role0s0_0Bc_
FN:50,_RNCNCNvMNtNtNtCs9VsQExrgwtF_4wami7service3sts11assume_roleINtB6_17AssumeRoleServiceNtNtNtNtBc_5store6memory4wami17InMemoryWamiStoreE11assume_role0s_0Bc_
FN:36,_RNCNvMNtNtNtCs9VsQExrgwtF_4wami7service3sts11assume_roleINtB4_17AssumeRoleServiceNtNtNtNtBa_5store6memory4wami17InMemoryWamiStoreE11assume_role0Ba_
FN:31,_RNvMNtNtNtCs9VsQExrgwtF_4wami7service3sts11assume_roleINtB2_17AssumeRoleServiceNtNtNtNtB8_5store6memory4wami17InMemoryWamiStoreE11assume_roleB8_
FN:163,_RNvMNtNtNtCs9VsQExrgwtF_4wami7service3sts11assume_roleINtB2_17AssumeRoleServiceNtNtNtNtB8_5store6memory4wami17InMemoryWamiStoreE26extract_role_name_from_arnB8_
FN:24,_RNvMNtNtNtCs9VsQExrgwtF_4wami7service3sts11assume_roleINtB2_17AssumeRoleServiceNtNtNtNtB8_5store6memory4wami17InMemoryWamiStoreE3newB8_
FNDA:4,_RNvNtNtNtNtCs9VsQExrgwtF_4wami7service3sts11assume_role5tests12test_context
FNDA:5,_RNvNtNtNtNtCs9VsQExrgwtF_4wami7service3sts11assume_role5tests13setup_service
FNDA:1,_RNvNtNtNtNtCs9VsQExrgwtF_4wami7service3sts11assume_role5testss_16test_assume_role
FNDA:1,_RNvNtNtNtNtCs9VsQExrgwtF_4wami7service3sts11assume_role5testss_28test_assume_role_nonexistent
FNDA:1,_RNvNtNtNtNtCs9VsQExrgwtF_4wami7service3sts11assume_role5testss_31test_extract_role_name_from_arn
FNDA:1,_RNvNtNtNtNtCs9VsQExrgwtF_4wami7service3sts11assume_role5testss_32test_assume_role_creates_session
FNDA:1,_RNvNtNtNtNtCs9VsQExrgwtF_4wami7service3sts11assume_role5testss_33test_assume_role_with_external_id
FNDA:1,_RNCNvNtNtNtNtCs9VsQExrgwtF_4wami7service3sts11assume_role5testss_16test_assume_role0Bb_
FNDA:1,_RNCNvNtNtNtNtCs9VsQExrgwtF_4wami7service3sts11assume_role5testss_28test_assume_role_nonexistent0Bb_
FNDA:1,_RNCNvNtNtNtNtCs9VsQExrgwtF_4wami7service3sts11assume_role5testss_31test_extract_role_name_from_arn0Bb_
FNDA:1,_RNCNvNtNtNtNtCs9VsQExrgwtF_4wami7service3sts11assume_role5testss_32test_assume_role_creates_session0Bb_
FNDA:1,_RNCNvNtNtNtNtCs9VsQExrgwtF_4wami7service3sts11assume_role5testss_33test_assume_role_with_external_id0Bb_
FNDA:3,_RNCNCNvMNtNtNtCs9VsQExrgwtF_4wami7service3sts11assume_roleINtB6_17AssumeRoleServiceNtNtNtNtBc_5store6memory4wami17InMemoryWamiStoreE11assume_role00Bc_
FNDA:0,_RNCNCNvMNtNtNtCs9VsQExrgwtF_4wami7service3sts11assume_roleINtB6_17AssumeRoleServiceNtNtNtNtBc_5store6memory4wami17InMemoryWamiStoreE11assume_role0s0_0Bc_
FNDA:1,_RNCNCNvMNtNtNtCs9VsQExrgwtF_4wami7service3sts11assume_roleINtB6_17AssumeRoleServiceNtNtNtNtBc_5store6memory4wami17InMemoryWamiStoreE11assume_role0s_0Bc_
FNDA:4,_RNCNvMNtNtNtCs9VsQExrgwtF_4wami7service3sts11assume_roleINtB4_17AssumeRoleServiceNtNtNtNtBa_5store6memory4wami17InMemoryWamiStoreE11assume_role0Ba_
FNDA:4,_RNvMNtNtNtCs9VsQExrgwtF_4wami7service3sts11assume_roleINtB2_17AssumeRoleServiceNtNtNtNtB8_5store6memory4wami17InMemoryWamiStoreE11assume_roleB8_
FNDA:2,_RNvMNtNtNtCs9VsQExrgwtF_4wami7service3sts11assume_roleINtB2_17AssumeRoleServiceNtNtNtNtB8_5store6memory4wami17InMemoryWamiStoreE26extract_role_name_from_arnB8_
FNDA:5,_RNvMNtNtNtCs9VsQExrgwtF_4wami7service3sts11assume_roleINtB2_17AssumeRoleServiceNtNtNtNtB8_5store6memory4wami17InMemoryWamiStoreE3newB8_
FNF:19
FNH:18
DA:24,5
DA:25,5
DA:26,5
DA:31,4
DA:32,4
DA:33,4
DA:34,4
DA:35,4
DA:36,4
DA:38,4
DA:41,4
DA:42,4
DA:44,4
DA:45,4
DA:46,4
DA:47,4
DA:48,4
DA:49,4
DA:50,1
DA:51,1
DA:53,0
DA:54,0
DA:55,0
DA:59,0
DA:60,0
DA:61,0
DA:62,0
DA:63,0
DA:64,0
DA:65,0
DA:66,0
DA:67,0
DA:71,3
DA:72,3
DA:73,3
DA:76,3
DA:77,3
DA:78,3
DA:79,3
DA:80,3
DA:81,3
DA:82,3
DA:83,3
DA:85,3
DA:86,3
DA:87,3
DA:89,3
DA:91,3
DA:92,3
DA:93,3
DA:94,3
DA:99,3
DA:100,3
DA:101,3
DA:102,3
DA:103,3
DA:105,3
DA:107,3
DA:109,3
DA:110,3
DA:111,3
DA:112,3
DA:113,3
DA:114,3
DA:115,3
DA:116,3
DA:117,3
DA:118,3
DA:121,3
DA:122,3
DA:123,3
DA:124,3
DA:125,3
DA:126,3
DA:127,3
DA:128,3
DA:130,3
DA:131,3
DA:132,3
DA:133,3
DA:136,3
DA:137,3
DA:138,3
DA:139,3
DA:140,3
DA:141,3
DA:142,3
DA:143,3
DA:144,3
DA:145,3
DA:146,3
DA:147,3
DA:148,3
DA:149,3
DA:150,3
DA:151,3
DA:153,3
DA:155,3
DA:156,3
DA:157,3
DA:158,3
DA:159,4
DA:163,2
DA:165,2
DA:166,0
DA:172,0
DA:173,0
DA:174,2
DA:177,2
DA:178,2
DA:179,0
DA:180,0
DA:181,0
DA:182,2
DA:184,2
DA:185,2
DA:187,2
DA:188,0
DA:189,0
DA:190,0
DA:191,2
DA:193,2
DA:194,2
DA:205,5
DA:206,5
DA:207,5
DA:208,5
DA:210,4
DA:211,4
DA:212,4
DA:213,4
DA:214,4
DA:215,4
DA:216,4
DA:217,4
DA:218,4
DA:219,4
DA:220,4
DA:221,4
DA:224,1
DA:225,1
DA:226,1
DA:229,1
DA:230,1
DA:231,1
DA:232,1
DA:233,1
DA:234,1
DA:235,1
DA:236,1
DA:238,1
DA:240,1
DA:242,1
DA:243,1
DA:244,1
DA:245,1
DA:246,1
DA:247,1
DA:248,1
DA:251,1
DA:252,1
DA:253,1
DA:254,1
DA:255,1
DA:256,1
DA:257,1
DA:259,1
DA:260,1
DA:261,1
DA:262,1
DA:264,1
DA:265,1
DA:266,1
DA:267,1
DA:268,1
DA:271,1
DA:272,1
DA:274,1
DA:275,1
DA:276,1
DA:277,1
DA:278,1
DA:279,1
DA:280,1
DA:282,1
DA:283,1
DA:284,1
DA:285,1
DA:287,1
DA:288,1
DA:289,1
DA:292,1
DA:293,1
DA:294,1
DA:297,1
DA:298,1
DA:299,1
DA:300,1
DA:301,1
DA:302,1
DA:303,1
DA:304,1
DA:306,1
DA:308,1
DA:310,1
DA:311,1
DA:312,1
DA:313,1
DA:314,1
DA:315,1
DA:316,1
DA:319,1
DA:320,1
DA:321,1
DA:322,1
DA:323,1
DA:324,1
DA:325,1
DA:327,1
DA:328,1
DA:329,1
DA:330,1
DA:331,1
DA:332,1
DA:333,1
DA:334,1
DA:336,1
DA:337,1
DA:340,1
DA:341,1
DA:342,1
DA:345,1
DA:346,1
DA:347,1
DA:348,1
DA:349,1
DA:350,1
DA:351,1
DA:352,1
DA:354,1
DA:356,1
DA:358,1
DA:359,1
DA:360,1
DA:361,1
DA:362,1
DA:363,1
DA:364,1
DA:367,1
DA:368,1
DA:369,1
DA:370,1
DA:371,1
DA:372,1
DA:373,1
DA:375,1
DA:376,1
DA:377,1
DA:378,1
DA:381,1
DA:382,1
DA:383,1
DA:384,1
DA:385,1
DA:386,1
DA:387,1
DA:388,1
DA:389,1
DA:390,1
DA:393,1
DA:394,1
DA:397,1
DA:398,1
DA:400,1
DA:401,1
DA:402,1
DA:403,1
DA:405,1
DA:406,1
DA:407,1
DA:408,1
DA:409,1
BRF:0
BRH:0
LF:296
LH:274
end_of_record
SF:/Users/lsh/projects/crates/wami/src/service/sts/federation.rs
FN:154,_RNCNvNtNtNtNtCs9VsQExrgwtF_4wami7service3sts10federation5testss_25test_get_federation_token0Bb_
FN:245,_RNCNvNtNtNtNtCs9VsQExrgwtF_4wami7service3sts10federation5testss_37test_get_federation_token_with_policy0Bb_
FN:195,_RNCNvNtNtNtNtCs9VsQExrgwtF_4wami7service3sts10federation5testss_38test_get_federation_token_invalid_name0Bb_
FN:213,_RNCNvNtNtNtNtCs9VsQExrgwtF_4wami7service3sts10federation5testss_41test_get_federation_token_creates_session0Bb_
FN:176,_RNCNvNtNtNtNtCs9VsQExrgwtF_4wami7service3sts10federation5testss_42test_get_federation_token_default_duration0Bb_
FN:139,_RNvNtNtNtNtCs9VsQExrgwtF_4wami7service3sts10federation5tests12test_context
FN:134,_RNvNtNtNtNtCs9VsQExrgwtF_4wami7service3sts10federation5tests13setup_service
FN:154,_RNvNtNtNtNtCs9VsQExrgwtF_4wami7service3sts10federation5testss_25test_get_federation_token
FN:245,_RNvNtNtNtNtCs9VsQExrgwtF_4wami7service3sts10federation5testss_37test_get_federation_token_with_policy
FN:195,_RNvNtNtNtNtCs9VsQExrgwtF_4wami7service3sts10federation5testss_38test_get_federation_token_invalid_name
FN:213,_RNvNtNtNtNtCs9VsQExrgwtF_4wami7service3sts10federation5testss_41test_get_federation_token_creates_session
FN:176,_RNvNtNtNtNtCs9VsQExrgwtF_4wami7service3sts10federation5testss_42test_get_federation_token_default_duration
FN:38,_RNCNvMNtNtNtCs9VsQExrgwtF_4wami7service3sts10federationINtB4_17FederationServiceNtNtNtNtBa_5store6memory4wami17InMemoryWamiStoreE20get_federation_token0Ba_
FN:33,_RNvMNtNtNtCs9VsQExrgwtF_4wami7service3sts10federationINtB2_17FederationServiceNtNtNtNtB8_5store6memory4wami17InMemoryWamiStoreE20get_federation_tokenB8_
FN:26,_RNvMNtNtNtCs9VsQExrgwtF_4wami7service3sts10federationINtB2_17FederationServiceNtNtNtNtB8_5store6memory4wami17InMemoryWamiStoreE3newB8_
FNDA:1,_RNCNvNtNtNtNtCs9VsQExrgwtF_4wami7service3sts10federation5testss_25test_get_federation_token0Bb_
FNDA:1,_RNCNvNtNtNtNtCs9VsQExrgwtF_4wami7service3sts10federation5testss_37test_get_federation_token_with_policy0Bb_
FNDA:1,_RNCNvNtNtNtNtCs9VsQExrgwtF_4wami7service3sts10federation5testss_38test_get_federation_token_invalid_name0Bb_
FNDA:1,_RNCNvNtNtNtNtCs9VsQExrgwtF_4wami7service3sts10federation5testss_41test_get_federation_token_creates_session0Bb_
FNDA:1,_RNCNvNtNtNtNtCs9VsQExrgwtF_4wami7service3sts10federation5testss_42test_get_federation_token_default_duration0Bb_
FNDA:5,_RNvNtNtNtNtCs9VsQExrgwtF_4wami7service3sts10federation5tests12test_context
FNDA:5,_RNvNtNtNtNtCs9VsQExrgwtF_4wami7service3sts10federation5tests13setup_service
FNDA:1,_RNvNtNtNtNtCs9VsQExrgwtF_4wami7service3sts10federation5testss_25test_get_federation_token
FNDA:1,_RNvNtNtNtNtCs9VsQExrgwtF_4wami7service3sts10federation5testss_37test_get_federation_token_with_policy
FNDA:1,_RNvNtNtNtNtCs9VsQExrgwtF_4wami7service3sts10federation5testss_38test_get_federation_token_invalid_name
FNDA:1,_RNvNtNtNtNtCs9VsQExrgwtF_4wami7service3sts10federation5testss_41test_get_federation_token_creates_session
FNDA:1,_RNvNtNtNtNtCs9VsQExrgwtF_4wami7service3sts10federation5testss_42test_get_federation_token_default_duration
FNDA:5,_RNCNvMNtNtNtCs9VsQExrgwtF_4wami7service3sts10federationINtB4_17FederationServiceNtNtNtNtBa_5store6memory4wami17InMemoryWamiStoreE20get_federation_token0Ba_
FNDA:5,_RNvMNtNtNtCs9VsQExrgwtF_4wami7service3sts10federationINtB2_17FederationServiceNtNtNtNtB8_5store6memory4wami17InMemoryWamiStoreE20get_federation_tokenB8_
FNDA:5,_RNvMNtNtNtCs9VsQExrgwtF_4wami7service3sts10federationINtB2_17FederationServiceNtNtNtNtB8_5store6memory4wami17InMemoryWamiStoreE3newB8_
FNF:15
FNH:15
DA:26,5
DA:27,5
DA:28,5
DA:33,5
DA:34,5
DA:35,5
DA:36,5
DA:37,5
DA:38,5
DA:40,5
DA:43,4
DA:44,4
DA:47,4
DA:48,4
DA:49,4
DA:50,4
DA:51,4
DA:52,4
DA:53,4
DA:54,4
DA:56,4
DA:57,4
DA:58,4
DA:60,4
DA:62,4
DA:63,4
DA:64,4
DA:69,4
DA:70,4
DA:71,4
DA:72,4
DA:73,4
DA:74,4
DA:76,4
DA:77,4
DA:78,4
DA:79,4
DA:80,4
DA:81,4
DA:82,4
DA:83,4
DA:84,4
DA:85,4
DA:88,4
DA:89,4
DA:90,4
DA:91,4
DA:92,4
DA:93,4
DA:94,4
DA:95,4
DA:97,4
DA:98,4
DA:99,4
DA:100,4
DA:103,4
DA:104,4
DA:105,4
DA:106,4
DA:107,4
DA:108,4
DA:109,4
DA:110,4
DA:111,4
DA:112,4
DA:113,4
DA:114,4
DA:115,4
DA:116,4
DA:117,4
DA:118,4
DA:120,4
DA:122,4
DA:123,4
DA:124,4
DA:125,4
DA:126,5
DA:134,5
DA:135,5
DA:136,5
DA:137,5
DA:139,5
DA:141,5
DA:142,5
DA:143,5
DA:144,5
DA:145,5
DA:146,5
DA:147,5
DA:148,5
DA:149,5
DA:150,5
DA:151,5
DA:154,1
DA:155,1
DA:156,1
DA:158,1
DA:159,1
DA:160,1
DA:161,1
DA:162,1
DA:164,1
DA:165,1
DA:166,1
DA:167,1
DA:169,1
DA:170,1
DA:171,1
DA:172,1
DA:173,1
DA:176,1
DA:177,1
DA:179,1
DA:180,1
DA:181,1
DA:182,1
DA:183,1
DA:185,1
DA:186,1
DA:187,1
DA:188,1
DA:189,1
DA:191,1
DA:192,1
DA:195,1
DA:196,1
DA:198,1
DA:199,1
DA:200,1
DA:201,1
DA:202,1
DA:204,1
DA:205,1
DA:206,1
DA:207,1
DA:209,1
DA:210,1
DA:213,1
DA:214,1
DA:216,1
DA:217,1
DA:218,1
DA:219,1
DA:220,1
DA:222,1
DA:223,1
DA:224,1
DA:225,1
DA:226,1
DA:229,1
DA:230,1
DA:231,1
DA:232,1
DA:233,1
DA:234,1
DA:235,1
DA:236,1
DA:237,1
DA:238,1
DA:241,1
DA:242,1
DA:245,1
DA:246,1
DA:248,1
DA:249,1
DA:250,1
DA:251,1
DA:252,1
DA:253,1
DA:254,1
DA:255,1
DA:257,1
DA:258,1
DA:259,1
DA:260,1
DA:261,1
DA:263,1
DA:264,1
DA:265,1
DA:266,1
DA:267,1
DA:269,1
DA:270,1
BRF:0
BRH:0
LF:194
LH:194
end_of_record
SF:/Users/lsh/projects/crates/wami/src/service/sts/identity.rs
FN:111,_RNCNvMNtNtNtCs9VsQExrgwtF_4wami7service3sts8identityINtB4_15IdentityServiceNtNtNtNtBa_5store6memory4wami17InMemoryWamiStoreE15list_identities0Ba_
FN:60,_RNCNvMNtNtNtCs9VsQExrgwtF_4wami7service3sts8identityINtB4_15IdentityServiceNtNtNtNtBa_5store6memory4wami17InMemoryWamiStoreE19get_caller_identity0Ba_
FN:111,_RNvMNtNtNtCs9VsQExrgwtF_4wami7service3sts8identityINtB2_15IdentityServiceNtNtNtNtB8_5store6memory4wami17InMemoryWamiStoreE15list_identitiesB8_
FN:56,_RNvMNtNtNtCs9VsQExrgwtF_4wami7service3sts8identityINtB2_15IdentityServiceNtNtNtNtB8_5store6memory4wami17InMemoryWamiStoreE19get_caller_identityB8_
FN:116,_RNvMNtNtNtCs9VsQExrgwtF_4wami7service3sts8identityINtB2_15IdentityServiceNtNtNtNtB8_5store6memory4wami17InMemoryWamiStoreE26extract_user_name_from_arnB8_
FN:35,_RNvMNtNtNtCs9VsQExrgwtF_4wami7service3sts8identityINtB2_15IdentityServiceNtNtNtNtB8_5store6memory4wami17InMemoryWamiStoreE3newB8_
FN:44,_RNvMNtNtNtCs9VsQExrgwtF_4wami7service3sts8identityINtB2_15IdentityServicepE13with_providerB8_
FN:194,_RNCNvNtNtNtNtCs9VsQExrgwtF_4wami7service3sts8identity5testss_20test_list_identities0Bb_
FN:221,_RNCNvNtNtNtNtCs9VsQExrgwtF_4wami7service3sts8identity5testss_31test_extract_user_name_from_arn0Bb_
FN:165,_RNCNvNtNtNtNtCs9VsQExrgwtF_4wami7service3sts8identity5testss_34test_get_caller_identity_from_user0Bb_
FN:151,_RNvNtNtNtNtCs9VsQExrgwtF_4wami7service3sts8identity5tests12test_context
FN:146,_RNvNtNtNtNtCs9VsQExrgwtF_4wami7service3sts8identity5tests13setup_service
FN:194,_RNvNtNtNtNtCs9VsQExrgwtF_4wami7service3sts8identity5testss_20test_list_identities
FN:221,_RNvNtNtNtNtCs9VsQExrgwtF_4wami7service3sts8identity5testss_31test_extract_user_name_from_arn
FN:165,_RNvNtNtNtNtCs9VsQExrgwtF_4wami7service3sts8identity5testss_34test_get_caller_identity_from_user
FNDA:1,_RNCNvMNtNtNtCs9VsQExrgwtF_4wami7service3sts8identityINtB4_15IdentityServiceNtNtNtNtBa_5store6memory4wami17InMemoryWamiStoreE15list_identities0Ba_
FNDA:4,_RNCNvMNtNtNtCs9VsQExrgwtF_4wami7service3sts8identityINtB4_15IdentityServiceNtNtNtNtBa_5store6memory4wami17InMemoryWamiStoreE19get_caller_identity0Ba_
FNDA:1,_RNvMNtNtNtCs9VsQExrgwtF_4wami7service3sts8identityINtB2_15IdentityServiceNtNtNtNtB8_5store6memory4wami17InMemoryWamiStoreE15list_identitiesB8_
FNDA:4,_RNvMNtNtNtCs9VsQExrgwtF_4wami7service3sts8identityINtB2_15IdentityServiceNtNtNtNtB8_5store6memory4wami17InMemoryWamiStoreE19get_caller_identityB8_
FNDA:6,_RNvMNtNtNtCs9VsQExrgwtF_4wami7service3sts8identityINtB2_15IdentityServiceNtNtNtNtB8_5store6memory4wami17InMemoryWamiStoreE26extract_user_name_from_arnB8_
FNDA:3,_RNvMNtNtNtCs9VsQExrgwtF_4wami7service3sts8identityINtB2_15IdentityServiceNtNtNtNtB8_5store6memory4wami17InMemoryWamiStoreE3newB8_
FNDA:0,_RNvMNtNtNtCs9VsQExrgwtF_4wami7service3sts8identityINtB2_15IdentityServicepE13with_providerB8_
FNDA:1,_RNCNvNtNtNtNtCs9VsQExrgwtF_4wami7service3sts8identity5testss_20test_list_identities0Bb_
FNDA:1,_RNCNvNtNtNtNtCs9VsQExrgwtF_4wami7service3sts8identity5testss_31test_extract_user_name_from_arn0Bb_
FNDA:1,_RNCNvNtNtNtNtCs9VsQExrgwtF_4wami7service3sts8identity5testss_34test_get_caller_identity_from_user0Bb_
FNDA:2,_RNvNtNtNtNtCs9VsQExrgwtF_4wami7service3sts8identity5tests12test_context
FNDA:3,_RNvNtNtNtNtCs9VsQExrgwtF_4wami7service3sts8identity5tests13setup_service
FNDA:1,_RNvNtNtNtNtCs9VsQExrgwtF_4wami7service3sts8identity5testss_20test_list_identities
FNDA:1,_RNvNtNtNtNtCs9VsQExrgwtF_4wami7service3sts8identity5testss_31test_extract_user_name_from_arn
FNDA:1,_RNvNtNtNtNtCs9VsQExrgwtF_4wami7service3sts8identity5testss_34test_get_caller_identity_from_user
FNF:15
FNH:14
DA:35,3
DA:36,3
DA:37,3
DA:38,3
DA:39,3
DA:40,3
DA:41,3
DA:44,0
DA:45,0
DA:46,0
DA:47,0
DA:48,0
DA:49,0
DA:50,0
DA:56,4
DA:57,4
DA:58,4
DA:59,4
DA:60,4
DA:63,4
DA:64,4
DA:65,0
DA:66,0
DA:67,0
DA:68,0
DA:69,0
DA:70,4
DA:75,4
DA:78,4
DA:79,4
DA:80,4
DA:83,4
DA:85,4
DA:86,4
DA:87,4
DA:88,4
DA:89,4
DA:90,4
DA:91,4
DA:94,4
DA:95,4
DA:98,4
DA:99,4
DA:100,4
DA:101,4
DA:102,4
DA:103,0
DA:105,0
DA:106,0
DA:107,0
DA:108,4
DA:111,1
DA:112,1
DA:113,1
DA:116,6
DA:118,6
DA:119,6
DA:120,0
DA:121,0
DA:122,0
DA:123,6
DA:125,6
DA:126,6
DA:128,6
DA:129,0
DA:130,0
DA:131,0
DA:132,6
DA:134,6
DA:135,6
DA:146,3
DA:147,3
DA:148,3
DA:149,3
DA:151,2
DA:152,2
DA:153,2
DA:154,2
DA:155,2
DA:156,2
DA:157,2
DA:158,2
DA:159,2
DA:160,2
DA:161,2
DA:162,2
DA:165,1
DA:166,1
DA:167,1
DA:170,1
DA:172,1
DA:174,1
DA:175,1
DA:176,1
DA:177,1
DA:178,1
DA:179,1
DA:180,1
DA:183,1
DA:184,1
DA:185,1
DA:186,1
DA:187,1
DA:189,1
DA:190,1
DA:191,1
DA:194,1
DA:195,1
DA:196,1
DA:199,4
DA:200,3
DA:201,3
DA:203,3
DA:204,3
DA:205,3
DA:206,3
DA:207,3
DA:208,3
DA:209,3
DA:212,3
DA:213,3
DA:216,1
DA:217,1
DA:218,1
DA:221,1
DA:222,1
DA:224,1
DA:225,1
DA:226,1
DA:227,1
DA:229,1
DA:230,1
DA:231,1
DA:232,1
DA:233,1
BRF:0
BRH:0
LF:143
LH:121
end_of_record
SF:/Users/lsh/projects/crates/wami/src/service/sts/session.rs
FN:72,_RNvNtNtNtNtCs9VsQExrgwtF_4wami7service3sts7session5tests13setup_service
FN:77,_RNvNtNtNtNtCs9VsQExrgwtF_4wami7service3sts7session5tests19create_test_session
FN:128,_RNvNtNtNtNtCs9VsQExrgwtF_4wami7service3sts7session5testss_18test_list_sessions
FN:115,_RNvNtNtNtNtCs9VsQExrgwtF_4wami7service3sts7session5testss_19test_delete_session
FN:102,_RNvNtNtNtNtCs9VsQExrgwtF_4wami7service3sts7session5testss_27test_create_and_get_session
FN:32,_RNvMNtNtNtCs9VsQExrgwtF_4wami7service3sts7sessionINtB2_14SessionServicepE13with_providerB8_
FN:128,_RNCNvNtNtNtNtCs9VsQExrgwtF_4wami7service3sts7session5testss_18test_list_sessions0Bb_
FN:115,_RNCNvNtNtNtNtCs9VsQExrgwtF_4wami7service3sts7session5testss_19test_delete_session0Bb_
FN:102,_RNCNvNtNtNtNtCs9VsQExrgwtF_4wami7service3sts7session5testss_27test_create_and_get_session0Bb_
FN:46,_RNCNvMNtNtNtCs9VsQExrgwtF_4wami7service3sts7sessionINtB4_14SessionServiceNtNtNtNtBa_5store6memory4wami17InMemoryWamiStoreE11get_session0Ba_
FN:60,_RNCNvMNtNtNtCs9VsQExrgwtF_4wami7service3sts7sessionINtB4_14SessionServiceNtNtNtNtBa_5store6memory4wami17InMemoryWamiStoreE13list_sessions0Ba_
FN:41,_RNCNvMNtNtNtCs9VsQExrgwtF_4wami7service3sts7sessionINtB4_14SessionServiceNtNtNtNtBa_5store6memory4wami17InMemoryWamiStoreE14create_session0Ba_
FN:51,_RNCNvMNtNtNtCs9VsQExrgwtF_4wami7service3sts7sessionINtB4_14SessionServiceNtNtNtNtBa_5store6memory4wami17InMemoryWamiStoreE14delete_session0Ba_
FN:46,_RNvMNtNtNtCs9VsQExrgwtF_4wami7service3sts7sessionINtB2_14SessionServiceNtNtNtNtB8_5store6memory4wami17InMemoryWamiStoreE11get_sessionB8_
FN:60,_RNvMNtNtNtCs9VsQExrgwtF_4wami7service3sts7sessionINtB2_14SessionServiceNtNtNtNtB8_5store6memory4wami17InMemoryWamiStoreE13list_sessionsB8_
FN:41,_RNvMNtNtNtCs9VsQExrgwtF_4wami7service3sts7sessionINtB2_14SessionServiceNtNtNtNtB8_5store6memory4wami17InMemoryWamiStoreE14create_sessionB8_
FN:51,_RNvMNtNtNtCs9VsQExrgwtF_4wami7service3sts7sessionINtB2_14SessionServiceNtNtNtNtB8_5store6memory4wami17InMemoryWamiStoreE14delete_sessionB8_
FN:23,_RNvMNtNtNtCs9VsQExrgwtF_4wami7service3sts7sessionINtB2_14SessionServiceNtNtNtNtB8_5store6memory4wami17InMemoryWamiStoreE3newB8_
FNDA:3,_RNvNtNtNtNtCs9VsQExrgwtF_4wami7service3sts7session5tests13setup_service
FNDA:5,_RNvNtNtNtNtCs9VsQExrgwtF_4wami7service3sts7session5tests19create_test_session
FNDA:1,_RNvNtNtNtNtCs9VsQExrgwtF_4wami7service3sts7session5testss_18test_list_sessions
FNDA:1,_RNvNtNtNtNtCs9VsQExrgwtF_4wami7service3sts7session5testss_19test_delete_session
FNDA:1,_RNvNtNtNtNtCs9VsQExrgwtF_4wami7service3sts7session5testss_27test_create_and_get_session
FNDA:0,_RNvMNtNtNtCs9VsQExrgwtF_4wami7service3sts7sessionINtB2_14SessionServicepE13with_providerB8_
FNDA:1,_RNCNvNtNtNtNtCs9VsQExrgwtF_4wami7service3sts7session5testss_18test_list_sessions0Bb_
FNDA:1,_RNCNvNtNtNtNtCs9VsQExrgwtF_4wami7service3sts7session5testss_19test_delete_session0Bb_
FNDA:1,_RNCNvNtNtNtNtCs9VsQExrgwtF_4wami7service3sts7session5testss_27test_create_and_get_session0Bb_
FNDA:2,_RNCNvMNtNtNtCs9VsQExrgwtF_4wami7service3sts7sessionINtB4_14SessionServiceNtNtNtNtBa_5store6memory4wami17InMemoryWamiStoreE11get_session0Ba_
FNDA:1,_RNCNvMNtNtNtCs9VsQExrgwtF_4wami7service3sts7sessionINtB4_14SessionServiceNtNtNtNtBa_5store6memory4wami17InMemoryWamiStoreE13list_sessions0Ba_
FNDA:5,_RNCNvMNtNtNtCs9VsQExrgwtF_4wami7service3sts7sessionINtB4_14SessionServiceNtNtNtNtBa_5store6memory4wami17InMemoryWamiStoreE14create_session0Ba_
FNDA:1,_RNCNvMNtNtNtCs9VsQExrgwtF_4wami7service3sts7sessionINtB4_14SessionServiceNtNtNtNtBa_5store6memory4wami17InMemoryWamiStoreE14delete_session0Ba_
FNDA:2,_RNvMNtNtNtCs9VsQExrgwtF_4wami7service3sts7sessionINtB2_14SessionServiceNtNtNtNtB8_5store6memory4wami17InMemoryWamiStoreE11get_sessionB8_
FNDA:1,_RNvMNtNtNtCs9VsQExrgwtF_4wami7service3sts7sessionINtB2_14SessionServiceNtNtNtNtB8_5store6memory4wami17InMemoryWamiStoreE13list_sessionsB8_
FNDA:5,_RNvMNtNtNtCs9VsQExrgwtF_4wami7service3sts7sessionINtB2_14SessionServiceNtNtNtNtB8_5store6memory4wami17InMemoryWamiStoreE14create_sessionB8_
FNDA:1,_RNvMNtNtNtCs9VsQExrgwtF_4wami7service3sts7sessionINtB2_14SessionServiceNtNtNtNtB8_5store6memory4wami17InMemoryWamiStoreE14delete_sessionB8_
FNDA:3,_RNvMNtNtNtCs9VsQExrgwtF_4wami7service3sts7sessionINtB2_14SessionServiceNtNtNtNtB8_5store6memory4wami17InMemoryWamiStoreE3newB8_
FNF:18
FNH:17
DA:23,3
DA:24,3
DA:25,3
DA:26,3
DA:27,3
DA:28,3
DA:29,3
DA:32,0
DA:33,0
DA:34,0
DA:35,0
DA:36,0
DA:37,0
DA:38,0
DA:41,5
DA:42,5
DA:43,5
DA:46,2
DA:47,2
DA:48,2
DA:51,1
DA:52,1
DA:53,1
DA:54,1
DA:55,1
DA:56,1
DA:57,1
DA:60,1
DA:61,1
DA:62,1
DA:72,3
DA:73,3
DA:74,3
DA:75,3
DA:77,5
DA:78,5
DA:79,5
DA:80,5
DA:81,5
DA:82,5
DA:83,5
DA:84,5
DA:85,5
DA:86,5
DA:87,5
DA:88,5
DA:89,5
DA:90,5
DA:91,5
DA:92,5
DA:93,5
DA:94,5
DA:95,5
DA:96,5
DA:97,5
DA:98,5
DA:99,5
DA:102,1
DA:103,1
DA:105,1
DA:106,1
DA:108,1
DA:110,1
DA:111,1
DA:112,1
DA:115,1
DA:116,1
DA:118,1
DA:119,1
DA:121,1
DA:123,1
DA:124,1
DA:125,1
DA:128,1
DA:129,1
DA:132,4
DA:133,3
DA:134,3
DA:137,1
DA:138,1
DA:139,1
BRF:0
BRH:0
LF:91
LH:84
end_of_record
SF:/Users/lsh/projects/crates/wami/src/service/sts/session_token.rs
FN:140,_RNCNvNtNtNtNtCs9VsQExrgwtF_4wami7service3sts13session_token5testss_22test_get_session_token0Bb_
FN:161,_RNCNvNtNtNtNtCs9VsQExrgwtF_4wami7service3sts13session_token5testss_31test_get_session_token_with_mfa0Bb_
FN:198,_RNCNvNtNtNtNtCs9VsQExrgwtF_4wami7service3sts13session_token5testss_38test_get_session_token_creates_session0Bb_
FN:180,_RNCNvNtNtNtNtCs9VsQExrgwtF_4wami7service3sts13session_token5testss_39test_get_session_token_invalid_duration0Bb_
FN:125,_RNvNtNtNtNtCs9VsQExrgwtF_4wami7service3sts13session_token5tests12test_context
FN:120,_RNvNtNtNtNtCs9VsQExrgwtF_4wami7service3sts13session_token5tests13setup_service
FN:140,_RNvNtNtNtNtCs9VsQExrgwtF_4wami7service3sts13session_token5testss_22test_get_session_token
FN:161,_RNvNtNtNtNtCs9VsQExrgwtF_4wami7service3sts13session_token5testss_31test_get_session_token_with_mfa
FN:198,_RNvNtNtNtNtCs9VsQExrgwtF_4wami7service3sts13session_token5testss_38test_get_session_token_creates_session
FN:180,_RNvNtNtNtNtCs9VsQExrgwtF_4wami7service3sts13session_token5testss_39test_get_session_token_invalid_duration
FN:42,_RNCNvMNtNtNtCs9VsQExrgwtF_4wami7service3sts13session_tokenINtB4_19SessionTokenServiceNtNtNtNtBa_5store6memory4wami17InMemoryWamiStoreE17get_session_token0Ba_
FN:37,_RNvMNtNtNtCs9VsQExrgwtF_4wami7service3sts13session_tokenINtB2_19SessionTokenServiceNtNtNtNtB8_5store6memory4wami17InMemoryWamiStoreE17get_session_tokenB8_
FN:30,_RNvMNtNtNtCs9VsQExrgwtF_4wami7service3sts13session_tokenINtB2_19SessionTokenServiceNtNtNtNtB8_5store6memory4wami17InMemoryWamiStoreE3newB8_
FNDA:1,_RNCNvNtNtNtNtCs9VsQExrgwtF_4wami7service3sts13session_token5testss_22test_get_session_token0Bb_
FNDA:1,_RNCNvNtNtNtNtCs9VsQExrgwtF_4wami7service3sts13session_token5testss_31test_get_session_token_with_mfa0Bb_
FNDA:1,_RNCNvNtNtNtNtCs9VsQExrgwtF_4wami7service3sts13session_token5testss_38test_get_session_token_creates_session0Bb_
FNDA:1,_RNCNvNtNtNtNtCs9VsQExrgwtF_4wami7service3sts13session_token5testss_39test_get_session_token_invalid_duration0Bb_
FNDA:4,_RNvNtNtNtNtCs9VsQExrgwtF_4wami7service3sts13session_token5tests12test_context
FNDA:4,_RNvNtNtNtNtCs9VsQExrgwtF_4wami7service3sts13session_token5tests13setup_service
FNDA:1,_RNvNtNtNtNtCs9VsQExrgwtF_4wami7service3sts13session_token5testss_22test_get_session_token
FNDA:1,_RNvNtNtNtNtCs9VsQExrgwtF_4wami7service3sts13session_token5testss_31test_get_session_token_with_mfa
FNDA:1,_RNvNtNtNtNtCs9VsQExrgwtF_4wami7service3sts13session_token5testss_38test_get_session_token_creates_session
FNDA:1,_RNvNtNtNtNtCs9VsQExrgwtF_4wami7service3sts13session_token5testss_39test_get_session_token_invalid_duration
FNDA:4,_RNCNvMNtNtNtCs9VsQExrgwtF_4wami7service3sts13session_tokenINtB4_19SessionTokenServiceNtNtNtNtBa_5store6memory4wami17InMemoryWamiStoreE17get_session_token0Ba_
FNDA:4,_RNvMNtNtNtCs9VsQExrgwtF_4wami7service3sts13session_tokenINtB2_19SessionTokenServiceNtNtNtNtB8_5store6memory4wami17InMemoryWamiStoreE17get_session_tokenB8_
FNDA:4,_RNvMNtNtNtCs9VsQExrgwtF_4wami7service3sts13session_tokenINtB2_19SessionTokenServiceNtNtNtNtB8_5store6memory4wami17InMemoryWamiStoreE3newB8_
FNF:13
FNH:13
DA:30,4
DA:31,4
DA:32,4
DA:37,4
DA:38,4
DA:39,4
DA:40,4
DA:41,4
DA:42,4
DA:44,4
DA:47,3
DA:48,3
DA:51,3
DA:52,3
DA:53,3
DA:54,3
DA:55,3
DA:56,3
DA:57,3
DA:58,3
DA:59,3
DA:61,3
DA:62,3
DA:63,3
DA:66,3
DA:67,3
DA:68,3
DA:69,3
DA:73,3
DA:74,3
DA:75,3
DA:76,3
DA:77,3
DA:78,3
DA:80,3
DA:81,3
DA:82,3
DA:83,3
DA:84,3
DA:85,3
DA:86,3
DA:87,3
DA:88,3
DA:89,3
DA:92,3
DA:93,3
DA:94,3
DA:95,3
DA:96,3
DA:97,3
DA:98,3
DA:99,3
DA:100,3
DA:101,3
DA:102,3
DA:103,3
DA:104,3
DA:105,3
DA:106,3
DA:107,3
DA:109,3
DA:111,3
DA:112,4
DA:120,4
DA:121,4
DA:122,4
DA:123,4
DA:125,4
DA:127,4
DA:128,4
DA:129,4
DA:130,4
DA:131,4
DA:132,4
DA:133,4
DA:134,4
DA:135,4
DA:136,4
DA:137,4
DA:140,1
DA:141,1
DA:142,1
DA:144,1
DA:145,1
DA:146,1
DA:147,1
DA:148,1
DA:150,1
DA:151,1
DA:152,1
DA:153,1
DA:155,1
DA:156,1
DA:157,1
DA:158,1
DA:161,1
DA:162,1
DA:163,1
DA:165,1
DA:166,1
DA:167,1
DA:168,1
DA:169,1
DA:171,1
DA:172,1
DA:173,1
DA:174,1
DA:176,1
DA:177,1
DA:180,1
DA:181,1
DA:182,1
DA:184,1
DA:185,1
DA:186,1
DA:187,1
DA:188,1
DA:190,1
DA:191,1
DA:192,1
DA:194,1
DA:195,1
DA:198,1
DA:199,1
DA:200,1
DA:202,1
DA:203,1
DA:204,1
DA:205,1
DA:206,1
DA:208,1
DA:209,1
DA:210,1
DA:211,1
DA:214,1
DA:215,1
DA:216,1
DA:217,1
DA:218,1
DA:219,1
DA:220,1
DA:221,1
DA:222,1
DA:223,1
DA:224,1
DA:225,1
DA:226,1
BRF:0
BRH:0
LF:157
LH:157
end_of_record
SF:/Users/lsh/projects/crates/wami/src/service/tenant/mod.rs
FN:102,_RNCNvMNtNtCs9VsQExrgwtF_4wami7service6tenantINtB4_13TenantServicepE16get_tenant_usage0B8_
FN:93,_RNCNvMNtNtCs9VsQExrgwtF_4wami7service6tenantINtB4_13TenantServicepE20get_effective_quotas0B8_
FN:102,_RNvMNtNtCs9VsQExrgwtF_4wami7service6tenantINtB2_13TenantServicepE16get_tenant_usageB6_
FN:93,_RNvMNtNtCs9VsQExrgwtF_4wami7service6tenantINtB2_13TenantServicepE20get_effective_quotasB6_
FN:54,_RNCNvMNtNtCs9VsQExrgwtF_4wami7service6tenantINtB4_13TenantServiceNtNtNtNtB8_5store6memory4wami17InMemoryWamiStoreE10get_tenant0B8_
FN:69,_RNCNvMNtNtCs9VsQExrgwtF_4wami7service6tenantINtB4_13TenantServiceNtNtNtNtB8_5store6memory4wami17InMemoryWamiStoreE12list_tenants0B8_
FN:33,_RNCNvMNtNtCs9VsQExrgwtF_4wami7service6tenantINtB4_13TenantServiceNtNtNtNtB8_5store6memory4wami17InMemoryWamiStoreE13create_tenant0B8_
FN:64,_RNCNvMNtNtCs9VsQExrgwtF_4wami7service6tenantINtB4_13TenantServiceNtNtNtNtB8_5store6memory4wami17InMemoryWamiStoreE13delete_tenant0B8_
FN:83,_RNCNvMNtNtCs9VsQExrgwtF_4wami7service6tenantINtB4_13TenantServiceNtNtNtNtB8_5store6memory4wami17InMemoryWamiStoreE13get_ancestors0B8_
FN:59,_RNCNvMNtNtCs9VsQExrgwtF_4wami7service6tenantINtB4_13TenantServiceNtNtNtNtB8_5store6memory4wami17InMemoryWamiStoreE13update_tenant0B8_
FN:88,_RNCNvMNtNtCs9VsQExrgwtF_4wami7service6tenantINtB4_13TenantServiceNtNtNtNtB8_5store6memory4wami17InMemoryWamiStoreE15get_descendants0B8_
FN:74,_RNCNvMNtNtCs9VsQExrgwtF_4wami7service6tenantINtB4_13TenantServiceNtNtNtNtB8_5store6memory4wami17InMemoryWamiStoreE18list_child_tenants0B8_
FN:54,_RNvMNtNtCs9VsQExrgwtF_4wami7service6tenantINtB2_13TenantServiceNtNtNtNtB6_5store6memory4wami17InMemoryWamiStoreE10get_tenantB6_
FN:69,_RNvMNtNtCs9VsQExrgwtF_4wami7service6tenantINtB2_13TenantServiceNtNtNtNtB6_5store6memory4wami17InMemoryWamiStoreE12list_tenantsB6_
FN:27,_RNvMNtNtCs9VsQExrgwtF_4wami7service6tenantINtB2_13TenantServiceNtNtNtNtB6_5store6memory4wami17InMemoryWamiStoreE13create_tenantB6_
FN:64,_RNvMNtNtCs9VsQExrgwtF_4wami7service6tenantINtB2_13TenantServiceNtNtNtNtB6_5store6memory4wami17InMemoryWamiStoreE13delete_tenantB6_
FN:83,_RNvMNtNtCs9VsQExrgwtF_4wami7service6tenantINtB2_13TenantServiceNtNtNtNtB6_5store6memory4wami17InMemoryWamiStoreE13get_ancestorsB6_
FN:59,_RNvMNtNtCs9VsQExrgwtF_4wami7service6tenantINtB2_13TenantServiceNtNtNtNtB6_5store6memory4wami17InMemoryWamiStoreE13update_tenantB6_
FN:88,_RNvMNtNtCs9VsQExrgwtF_4wami7service6tenantINtB2_13TenantServiceNtNtNtNtB6_5store6memory4wami17InMemoryWamiStoreE15get_descendantsB6_
FN:74,_RNvMNtNtCs9VsQExrgwtF_4wami7service6tenantINtB2_13TenantServiceNtNtNtNtB6_5store6memory4wami17InMemoryWamiStoreE18list_child_tenantsB6_
FN:22,_RNvMNtNtCs9VsQExrgwtF_4wami7service6tenantINtB2_13TenantServiceNtNtNtNtB6_5store6memory4wami17InMemoryWamiStoreE3newB6_
FN:117,_RNvNtNtNtCs9VsQExrgwtF_4wami7service6tenant5tests12test_context
FN:112,_RNvNtNtNtCs9VsQExrgwtF_4wami7service6tenant5tests13setup_service
FN:156,_RNvNtNtNtCs9VsQExrgwtF_4wami7service6tenant5testss_17test_list_tenants
FN:190,_RNvNtNtNtCs9VsQExrgwtF_4wami7service6tenant5testss_18test_delete_tenant
FN:174,_RNvNtNtNtCs9VsQExrgwtF_4wami7service6tenant5testss_18test_update_tenant
FN:279,_RNvNtNtNtCs9VsQExrgwtF_4wami7service6tenant5testss_18test_with_provider
FN:234,_RNvNtNtNtCs9VsQExrgwtF_4wami7service6tenant5testss_20test_get_descendants
FN:206,_RNvNtNtNtCs9VsQExrgwtF_4wami7service6tenant5testss_25test_hierarchical_tenants
FN:132,_RNvNtNtNtCs9VsQExrgwtF_4wami7service6tenant5testss_26test_create_and_get_tenant
FN:268,_RNvNtNtNtCs9VsQExrgwtF_4wami7service6tenant5testss_26test_validate_invalid_name
FN:156,_RNCNvNtNtNtCs9VsQExrgwtF_4wami7service6tenant5testss_17test_list_tenants0B9_
FN:190,_RNCNvNtNtNtCs9VsQExrgwtF_4wami7service6tenant5testss_18test_delete_tenant0B9_
FN:174,_RNCNvNtNtNtCs9VsQExrgwtF_4wami7service6tenant5testss_18test_update_tenant0B9_
FN:279,_RNCNvNtNtNtCs9VsQExrgwtF_4wami7service6tenant5testss_18test_with_provider0B9_
FN:234,_RNCNvNtNtNtCs9VsQExrgwtF_4wami7service6tenant5testss_20test_get_descendants0B9_
FN:206,_RNCNvNtNtNtCs9VsQExrgwtF_4wami7service6tenant5testss_25test_hierarchical_tenants0B9_
FN:132,_RNCNvNtNtNtCs9VsQExrgwtF_4wami7service6tenant5testss_26test_create_and_get_tenant0B9_
FN:268,_RNCNvNtNtNtCs9VsQExrgwtF_4wami7service6tenant5testss_26test_validate_invalid_name0B9_
FNDA:0,_RNCNvMNtNtCs9VsQExrgwtF_4wami7service6tenantINtB4_13TenantServicepE16get_tenant_usage0B8_
FNDA:0,_RNCNvMNtNtCs9VsQExrgwtF_4wami7service6tenantINtB4_13TenantServicepE20get_effective_quotas0B8_
FNDA:0,_RNvMNtNtCs9VsQExrgwtF_4wami7service6tenantINtB2_13TenantServicepE16get_tenant_usageB6_
FNDA:0,_RNvMNtNtCs9VsQExrgwtF_4wami7service6tenantINtB2_13TenantServicepE20get_effective_quotasB6_
FNDA:2,_RNCNvMNtNtCs9VsQExrgwtF_4wami7service6tenantINtB4_13TenantServiceNtNtNtNtB8_5store6memory4wami17InMemoryWamiStoreE10get_tenant0B8_
FNDA:1,_RNCNvMNtNtCs9VsQExrgwtF_4wami7service6tenantINtB4_13TenantServiceNtNtNtNtB8_5store6memory4wami17InMemoryWamiStoreE12list_tenants0B8_
FNDA:13,_RNCNvMNtNtCs9VsQExrgwtF_4wami7service6tenantINtB4_13TenantServiceNtNtNtNtB8_5store6memory4wami17InMemoryWamiStoreE13create_tenant0B8_
FNDA:1,_RNCNvMNtNtCs9VsQExrgwtF_4wami7service6tenantINtB4_13TenantServiceNtNtNtNtB8_5store6memory4wami17InMemoryWamiStoreE13delete_tenant0B8_
FNDA:1,_RNCNvMNtNtCs9VsQExrgwtF_4wami7service6tenantINtB4_13TenantServiceNtNtNtNtB8_5store6memory4wami17InMemoryWamiStoreE13get_ancestors0B8_
FNDA:1,_RNCNvMNtNtCs9VsQExrgwtF_4wami7service6tenantINtB4_13TenantServiceNtNtNtNtB8_5store6memory4wami17InMemoryWamiStoreE13update_tenant0B8_
FNDA:1,_RNCNvMNtNtCs9VsQExrgwtF_4wami7service6tenantINtB4_13TenantServiceNtNtNtNtB8_5store6memory4wami17InMemoryWamiStoreE15get_descendants0B8_
FNDA:1,_RNCNvMNtNtCs9VsQExrgwtF_4wami7service6tenantINtB4_13TenantServiceNtNtNtNtB8_5store6memory4wami17InMemoryWamiStoreE18list_child_tenants0B8_
FNDA:2,_RNvMNtNtCs9VsQExrgwtF_4wami7service6tenantINtB2_13TenantServiceNtNtNtNtB6_5store6memory4wami17InMemoryWamiStoreE10get_tenantB6_
FNDA:1,_RNvMNtNtCs9VsQExrgwtF_4wami7service6tenantINtB2_13TenantServiceNtNtNtNtB6_5store6memory4wami17InMemoryWamiStoreE12list_tenantsB6_
FNDA:13,_RNvMNtNtCs9VsQExrgwtF_4wami7service6tenantINtB2_13TenantServiceNtNtNtNtB6_5store6memory4wami17InMemoryWamiStoreE13create_tenantB6_
FNDA:1,_RNvMNtNtCs9VsQExrgwtF_4wami7service6tenantINtB2_13TenantServiceNtNtNtNtB6_5store6memory4wami17InMemoryWamiStoreE13delete_tenantB6_
FNDA:1,_RNvMNtNtCs9VsQExrgwtF_4wami7service6tenantINtB2_13TenantServiceNtNtNtNtB6_5store6memory4wami17InMemoryWamiStoreE13get_ancestorsB6_
FNDA:1,_RNvMNtNtCs9VsQExrgwtF_4wami7service6tenantINtB2_13TenantServiceNtNtNtNtB6_5store6memory4wami17InMemoryWamiStoreE13update_tenantB6_
FNDA:1,_RNvMNtNtCs9VsQExrgwtF_4wami7service6tenantINtB2_13TenantServiceNtNtNtNtB6_5store6memory4wami17InMemoryWamiStoreE15get_descendantsB6_
FNDA:1,_RNvMNtNtCs9VsQExrgwtF_4wami7service6tenantINtB2_13TenantServiceNtNtNtNtB6_5store6memory4wami17InMemoryWamiStoreE18list_child_tenantsB6_
FNDA:8,_RNvMNtNtCs9VsQExrgwtF_4wami7service6tenantINtB2_13TenantServiceNtNtNtNtB6_5store6memory4wami17InMemoryWamiStoreE3newB6_
FNDA:8,_RNvNtNtNtCs9VsQExrgwtF_4wami7service6tenant5tests12test_context
FNDA:8,_RNvNtNtNtCs9VsQExrgwtF_4wami7service6tenant5tests13setup_service
FNDA:1,_RNvNtNtNtCs9VsQExrgwtF_4wami7service6tenant5testss_17test_list_tenants
FNDA:1,_RNvNtNtNtCs9VsQExrgwtF_4wami7service6tenant5testss_18test_delete_tenant
FNDA:1,_RNvNtNtNtCs9VsQExrgwtF_4wami7service6tenant5testss_18test_update_tenant
FNDA:1,_RNvNtNtNtCs9VsQExrgwtF_4wami7service6tenant5testss_18test_with_provider
FNDA:1,_RNvNtNtNtCs9VsQExrgwtF_4wami7service6tenant5testss_20test_get_descendants
FNDA:1,_RNvNtNtNtCs9VsQExrgwtF_4wami7service6tenant5testss_25test_hierarchical_tenants
FNDA:1,_RNvNtNtNtCs9VsQExrgwtF_4wami7service6tenant5testss_26test_create_and_get_tenant
FNDA:1,_RNvNtNtNtCs9VsQExrgwtF_4wami7service6tenant5testss_26test_validate_invalid_name
FNDA:1,_RNCNvNtNtNtCs9VsQExrgwtF_4wami7service6tenant5testss_17test_list_tenants0B9_
FNDA:1,_RNCNvNtNtNtCs9VsQExrgwtF_4wami7service6tenant5testss_18test_delete_tenant0B9_
FNDA:1,_RNCNvNtNtNtCs9VsQExrgwtF_4wami7service6tenant5testss_18test_update_tenant0B9_
FNDA:1,_RNCNvNtNtNtCs9VsQExrgwtF_4wami7service6tenant5testss_18test_with_provider0B9_
FNDA:1,_RNCNvNtNtNtCs9VsQExrgwtF_4wami7service6tenant5testss_20test_get_descendants0B9_
FNDA:1,_RNCNvNtNtNtCs9VsQExrgwtF_4wami7service6tenant5testss_25test_hierarchical_tenants0B9_
FNDA:1,_RNCNvNtNtNtCs9VsQExrgwtF_4wami7service6tenant5testss_26test_create_and_get_tenant0B9_
FNDA:1,_RNCNvNtNtNtCs9VsQExrgwtF_4wami7service6tenant5testss_26test_validate_invalid_name0B9_
FNF:39
FNH:35
DA:22,8
DA:23,8
DA:24,8
DA:27,13
DA:28,13
DA:29,13
DA:30,13
DA:31,13
DA:32,13
DA:33,13
DA:35,13
DA:38,12
DA:41,12
DA:42,12
DA:43,12
DA:44,12
DA:45,12
DA:46,12
DA:47,12
DA:50,12
DA:51,13
DA:54,2
DA:55,2
DA:56,2
DA:59,1
DA:60,1
DA:61,1
DA:64,1
DA:65,1
DA:66,1
DA:69,1
DA:70,1
DA:71,1
DA:74,1
DA:75,1
DA:76,1
DA:77,1
DA:78,1
DA:79,1
DA:80,1
DA:83,1
DA:84,1
DA:85,1
DA:88,1
DA:89,1
DA:90,1
DA:93,0
DA:94,0
DA:95,0
DA:96,0
DA:97,0
DA:98,0
DA:99,0
DA:102,0
DA:103,0
DA:104,0
DA:112,8
DA:113,8
DA:114,8
DA:115,8
DA:117,8
DA:119,8
DA:120,8
DA:121,8
DA:122,8
DA:123,8
DA:124,8
DA:125,8
DA:126,8
DA:127,8
DA:128,8
DA:129,8
DA:132,1
DA:133,1
DA:135,1
DA:136,1
DA:137,1
DA:138,1
DA:139,1
DA:140,1
DA:141,1
DA:142,1
DA:143,1
DA:144,1
DA:146,1
DA:147,1
DA:148,1
DA:150,1
DA:151,1
DA:152,1
DA:153,1
DA:156,1
DA:157,1
DA:159,1
DA:160,1
DA:161,1
DA:162,1
DA:163,1
DA:164,1
DA:165,1
DA:166,1
DA:167,1
DA:169,1
DA:170,1
DA:171,1
DA:174,1
DA:175,1
DA:177,1
DA:178,1
DA:179,1
DA:180,1
DA:181,1
DA:183,1
DA:185,1
DA:186,1
DA:187,1
DA:190,1
DA:191,1
DA:193,1
DA:194,1
DA:195,1
DA:196,1
DA:197,1
DA:199,1
DA:201,1
DA:202,1
DA:203,1
DA:206,1
DA:207,1
DA:209,1
DA:211,1
DA:212,1
DA:213,1
DA:214,1
DA:217,1
DA:218,1
DA:219,1
DA:220,1
DA:223,1
DA:224,1
DA:225,1
DA:228,1
DA:229,1
DA:230,1
DA:231,1
DA:234,1
DA:235,1
DA:237,1
DA:238,1
DA:239,1
DA:240,1
DA:241,1
DA:243,1
DA:244,1
DA:245,1
DA:246,1
DA:248,1
DA:249,1
DA:250,1
DA:251,1
DA:253,1
DA:254,1
DA:255,1
DA:256,1
DA:257,1
DA:258,1
DA:259,1
DA:260,1
DA:261,1
DA:263,1
DA:264,1
DA:265,1
DA:268,1
DA:269,1
DA:271,1
DA:272,1
DA:273,1
DA:274,1
DA:275,1
DA:276,1
DA:279,1
DA:280,1
DA:281,1
DA:283,1
DA:284,1
DA:285,1
DA:286,1
DA:289,1
DA:290,1
BRF:0
BRH:0
LF:215
LH:203
end_of_record
SF:/Users/lsh/projects/crates/wami/src/store/memory/credentials/access_key.rs
FN:18,_RNvXNtNtNtNtCs9VsQExrgwtF_4wami5store6memory11credentials10access_keyNtNtB6_4wami17InMemoryWamiStoreNtNtNtNtB8_6traits11credentials10access_key14AccessKeyStore14get_access_key
FN:37,_RNvXNtNtNtNtCs9VsQExrgwtF_4wami5store6memory11credentials10access_keyNtNtB6_4wami17InMemoryWamiStoreNtNtNtNtB8_6traits11credentials10access_key14AccessKeyStore16list_access_keys
FN:12,_RNvXNtNtNtNtCs9VsQExrgwtF_4wami5store6memory11credentials10access_keyNtNtB6_4wami17InMemoryWamiStoreNtNtNtNtB8_6traits11credentials10access_key14AccessKeyStore17create_access_key
FN:28,_RNvXNtNtNtNtCs9VsQExrgwtF_4wami5store6memory11credentials10access_keyNtNtB6_4wami17InMemoryWamiStoreNtNtNtNtB8_6traits11credentials10access_key14AccessKeyStore17delete_access_key
FN:22,_RNvXNtNtNtNtCs9VsQExrgwtF_4wami5store6memory11credentials10access_keyNtNtB6_4wami17InMemoryWamiStoreNtNtNtNtB8_6traits11credentials10access_key14AccessKeyStore17update_access_key
FN:41,_RNCNCNvXNtNtNtNtCs9VsQExrgwtF_4wami5store6memory11credentials10access_keyNtNtBa_4wami17InMemoryWamiStoreNtNtNtNtBc_6traits11credentials10access_key14AccessKeyStore16list_access_keys00Be_
FN:45,_RNCNCNvXNtNtNtNtCs9VsQExrgwtF_4wami5store6memory11credentials10access_keyNtNtBa_4wami17InMemoryWamiStoreNtNtNtNtBc_6traits11credentials10access_key14AccessKeyStore16list_access_keys0s_0Be_
FNDA:9,_RNvXNtNtNtNtCs9VsQExrgwtF_4wami5store6memory11credentials10access_keyNtNtB6_4wami17InMemoryWamiStoreNtNtNtNtB8_6traits11credentials10access_key14AccessKeyStore14get_access_key
FNDA:8,_RNvXNtNtNtNtCs9VsQExrgwtF_4wami5store6memory11credentials10access_keyNtNtB6_4wami17InMemoryWamiStoreNtNtNtNtB8_6traits11credentials10access_key14AccessKeyStore16list_access_keys
FNDA:21,_RNvXNtNtNtNtCs9VsQExrgwtF_4wami5store6memory11credentials10access_keyNtNtB6_4wami17InMemoryWamiStoreNtNtNtNtB8_6traits11credentials10access_key14AccessKeyStore17create_access_key
FNDA:2,_RNvXNtNtNtNtCs9VsQExrgwtF_4wami5store6memory11credentials10access_keyNtNtB6_4wami17InMemoryWamiStoreNtNtNtNtB8_6traits11credentials10access_key14AccessKeyStore17delete_access_key
FNDA:1,_RNvXNtNtNtNtCs9VsQExrgwtF_4wami5store6memory11credentials10access_keyNtNtB6_4wami17InMemoryWamiStoreNtNtNtNtB8_6traits11credentials10access_key14AccessKeyStore17update_access_key
FNDA:12,_RNCNCNvXNtNtNtNtCs9VsQExrgwtF_4wami5store6memory11credentials10access_keyNtNtBa_4wami17InMemoryWamiStoreNtNtNtNtBc_6traits11credentials10access_key14AccessKeyStore16list_access_keys00Be_
FNDA:12,_RNCNCNvXNtNtNtNtCs9VsQExrgwtF_4wami5store6memory11credentials10access_keyNtNtBa_4wami17InMemoryWamiStoreNtNtNtNtBc_6traits11credentials10access_key14AccessKeyStore16list_access_keys0s_0Be_
FNF:7
FNH:7
DA:12,21
DA:16,21
DA:18,9
DA:20,9
DA:22,1
DA:26,1
DA:28,2
DA:31,2
DA:37,8
DA:41,12
DA:45,12
DA:61,8
BRF:0
BRH:0
LF:12
LH:12
end_of_record
SF:/Users/lsh/projects/crates/wami/src/store/memory/credentials/login_profile.rs
FN:17,_RNvXNtNtNtNtCs9VsQExrgwtF_4wami5store6memory11credentials13login_profileNtNtB6_4wami17InMemoryWamiStoreNtNtNtNtB8_6traits11credentials13login_profile17LoginProfileStore17get_login_profile
FN:11,_RNvXNtNtNtNtCs9VsQExrgwtF_4wami5store6memory11credentials13login_profileNtNtB6_4wami17InMemoryWamiStoreNtNtNtNtB8_6traits11credentials13login_profile17LoginProfileStore20create_login_profile
FN:27,_RNvXNtNtNtNtCs9VsQExrgwtF_4wami5store6memory11credentials13login_profileNtNtB6_4wami17InMemoryWamiStoreNtNtNtNtB8_6traits11credentials13login_profile17LoginProfileStore20delete_login_profile
FN:21,_RNvXNtNtNtNtCs9VsQExrgwtF_4wami5store6memory11credentials13login_profileNtNtB6_4wami17InMemoryWamiStoreNtNtNtNtB8_6traits11credentials13login_profile17LoginProfileStore20update_login_profile
FNDA:13,_RNvXNtNtNtNtCs9VsQExrgwtF_4wami5store6memory11credentials13login_profileNtNtB6_4wami17InMemoryWamiStoreNtNtNtNtB8_6traits11credentials13login_profile17LoginProfileStore17get_login_profile
FNDA:9,_RNvXNtNtNtNtCs9VsQExrgwtF_4wami5store6memory11credentials13login_profileNtNtB6_4wami17InMemoryWamiStoreNtNtNtNtB8_6traits11credentials13login_profile17LoginProfileStore20create_login_profile
FNDA:2,_RNvXNtNtNtNtCs9VsQExrgwtF_4wami5store6memory11credentials13login_profileNtNtB6_4wami17InMemoryWamiStoreNtNtNtNtB8_6traits11credentials13login_profile17LoginProfileStore20delete_login_profile
FNDA:2,_RNvXNtNtNtNtCs9VsQExrgwtF_4wami5store6memory11credentials13login_profileNtNtB6_4wami17InMemoryWamiStoreNtNtNtNtB8_6traits11credentials13login_profile17LoginProfileStore20update_login_profile
FNF:4
FNH:4
DA:11,9
DA:15,9
DA:17,13
DA:19,13
DA:21,2
DA:25,2
DA:27,2
DA:30,2
BRF:0
BRH:0
LF:8
LH:8
end_of_record
SF:/Users/lsh/projects/crates/wami/src/store/memory/credentials/mfa_device.rs
FN:30,_RNCNCNvXNtNtNtNtCs9VsQExrgwtF_4wami5store6memory11credentials10mfa_deviceNtNtBa_4wami17InMemoryWamiStoreNtNtNtNtBc_6traits11credentials10mfa_device14MfaDeviceStore16list_mfa_devices00Be_
FN:17,_RNvXNtNtNtNtCs9VsQExrgwtF_4wami5store6memory11credentials10mfa_deviceNtNtB6_4wami17InMemoryWamiStoreNtNtNtNtB8_6traits11credentials10mfa_device14MfaDeviceStore14get_mfa_device
FN:26,_RNvXNtNtNtNtCs9VsQExrgwtF_4wami5store6memory11credentials10mfa_deviceNtNtB6_4wami17InMemoryWamiStoreNtNtNtNtB8_6traits11credentials10mfa_device14MfaDeviceStore16list_mfa_devices
FN:11,_RNvXNtNtNtNtCs9VsQExrgwtF_4wami5store6memory11credentials10mfa_deviceNtNtB6_4wami17InMemoryWamiStoreNtNtNtNtB8_6traits11credentials10mfa_device14MfaDeviceStore17create_mfa_device
FN:21,_RNvXNtNtNtNtCs9VsQExrgwtF_4wami5store6memory11credentials10mfa_deviceNtNtB6_4wami17InMemoryWamiStoreNtNtNtNtB8_6traits11credentials10mfa_device14MfaDeviceStore17delete_mfa_device
FNDA:6,_RNCNCNvXNtNtNtNtCs9VsQExrgwtF_4wami5store6memory11credentials10mfa_deviceNtNtBa_4wami17InMemoryWamiStoreNtNtNtNtBc_6traits11credentials10mfa_device14MfaDeviceStore16list_mfa_devices00Be_
FNDA:4,_RNvXNtNtNtNtCs9VsQExrgwtF_4wami5store6memory11credentials10mfa_deviceNtNtB6_4wami17InMemoryWamiStoreNtNtNtNtB8_6traits11credentials10mfa_device14MfaDeviceStore14get_mfa_device
FNDA:12,_RNvXNtNtNtNtCs9VsQExrgwtF_4wami5store6memory11credentials10mfa_deviceNtNtB6_4wami17InMemoryWamiStoreNtNtNtNtB8_6traits11credentials10mfa_device14MfaDeviceStore16list_mfa_devices
FNDA:10,_RNvXNtNtNtNtCs9VsQExrgwtF_4wami5store6memory11credentials10mfa_deviceNtNtB6_4wami17InMemoryWamiStoreNtNtNtNtB8_6traits11credentials10mfa_device14MfaDeviceStore17create_mfa_device
FNDA:2,_RNvXNtNtNtNtCs9VsQExrgwtF_4wami5store6memory11credentials10mfa_deviceNtNtB6_4wami17InMemoryWamiStoreNtNtNtNtB8_6traits11credentials10mfa_device14MfaDeviceStore17delete_mfa_device
FNF:5
FNH:5
DA:11,10
DA:15,10
DA:17,4
DA:19,4
DA:21,2
DA:24,2
DA:26,12
DA:30,6
DA:34,12
BRF:0
BRH:0
LF:9
LH:9
end_of_record
SF:/Users/lsh/projects/crates/wami/src/store/memory/credentials/server_certificate.rs
FN:41,_RNvXNtNtNtNtCs9VsQExrgwtF_4wami5store6memory11credentials18server_certificateNtNtB6_4wami17InMemoryWamiStoreNtNtNtNtB8_6traits11credentials18server_certificate22ServerCertificateStore25update_server_certificate
FN:31,_RNvXNtNtNtNtCs9VsQExrgwtF_4wami5store6memory11credentials18server_certificateNtNtB6_4wami17InMemoryWamiStoreNtNtNtNtB8_6traits11credentials18server_certificate22ServerCertificateStore22get_server_certificate
FN:64,_RNvXNtNtNtNtCs9VsQExrgwtF_4wami5store6memory11credentials18server_certificateNtNtB6_4wami17InMemoryWamiStoreNtNtNtNtB8_6traits11credentials18server_certificate22ServerCertificateStore24list_server_certificates
FN:16,_RNvXNtNtNtNtCs9VsQExrgwtF_4wami5store6memory11credentials18server_certificateNtNtB6_4wami17InMemoryWamiStoreNtNtNtNtB8_6traits11credentials18server_certificate22ServerCertificateStore25create_server_certificate
FN:55,_RNvXNtNtNtNtCs9VsQExrgwtF_4wami5store6memory11credentials18server_certificateNtNtB6_4wami17InMemoryWamiStoreNtNtNtNtB8_6traits11credentials18server_certificate22ServerCertificateStore25delete_server_certificate
FN:70,_RNCNCNCNvXNtNtNtNtCs9VsQExrgwtF_4wami5store6memory11credentials18server_certificateNtNtBc_4wami17InMemoryWamiStoreNtNtNtNtBe_6traits11credentials18server_certificate22ServerCertificateStore24list_server_certificates000Bg_
FN:35,_RNCNCNvXNtNtNtNtCs9VsQExrgwtF_4wami5store6memory11credentials18server_certificateNtNtBa_4wami17InMemoryWamiStoreNtNtNtNtBc_6traits11credentials18server_certificate22ServerCertificateStore22get_server_certificate00Be_
FN:68,_RNCNCNvXNtNtNtNtCs9VsQExrgwtF_4wami5store6memory11credentials18server_certificateNtNtBa_4wami17InMemoryWamiStoreNtNtNtNtBc_6traits11credentials18server_certificate22ServerCertificateStore24list_server_certificates00Be_
FN:72,_RNCNCNvXNtNtNtNtCs9VsQExrgwtF_4wami5store6memory11credentials18server_certificateNtNtBa_4wami17InMemoryWamiStoreNtNtNtNtBc_6traits11credentials18server_certificate22ServerCertificateStore24list_server_certificates0s_0Be_
FNDA:0,_RNvXNtNtNtNtCs9VsQExrgwtF_4wami5store6memory11credentials18server_certificateNtNtB6_4wami17InMemoryWamiStoreNtNtNtNtB8_6traits11credentials18server_certificate22ServerCertificateStore25update_server_certificate
FNDA:2,_RNvXNtNtNtNtCs9VsQExrgwtF_4wami5store6memory11credentials18server_certificateNtNtB6_4wami17InMemoryWamiStoreNtNtNtNtB8_6traits11credentials18server_certificate22ServerCertificateStore22get_server_certificate
FNDA:3,_RNvXNtNtNtNtCs9VsQExrgwtF_4wami5store6memory11credentials18server_certificateNtNtB6_4wami17InMemoryWamiStoreNtNtNtNtB8_6traits11credentials18server_certificate22ServerCertificateStore24list_server_certificates
FNDA:5,_RNvXNtNtNtNtCs9VsQExrgwtF_4wami5store6memory11credentials18server_certificateNtNtB6_4wami17InMemoryWamiStoreNtNtNtNtB8_6traits11credentials18server_certificate22ServerCertificateStore25create_server_certificate
FNDA:1,_RNvXNtNtNtNtCs9VsQExrgwtF_4wami5store6memory11credentials18server_certificateNtNtB6_4wami17InMemoryWamiStoreNtNtNtNtB8_6traits11credentials18server_certificate22ServerCertificateStore25delete_server_certificate
FNDA:3,_RNCNCNCNvXNtNtNtNtCs9VsQExrgwtF_4wami5store6memory11credentials18server_certificateNtNtBc_4wami17InMemoryWamiStoreNtNtNtNtBe_6traits11credentials18server_certificate22ServerCertificateStore24list_server_certificates000Bg_
FNDA:1,_RNCNCNvXNtNtNtNtCs9VsQExrgwtF_4wami5store6memory11credentials18server_certificateNtNtBa_4wami17InMemoryWamiStoreNtNtNtNtBc_6traits11credentials18server_certificate22ServerCertificateStore22get_server_certificate00Be_
FNDA:3,_RNCNCNvXNtNtNtNtCs9VsQExrgwtF_4wami5store6memory11credentials18server_certificateNtNtBa_4wami17InMemoryWamiStoreNtNtNtNtBc_6traits11credentials18server_certificate22ServerCertificateStore24list_server_certificates00Be_
FNDA:3,_RNCNCNvXNtNtNtNtCs9VsQExrgwtF_4wami5store6memory11credentials18server_certificateNtNtBa_4wami17InMemoryWamiStoreNtNtNtNtBc_6traits11credentials18server_certificate22ServerCertificateStore24list_server_certificates0s_0Be_
FNF:9
FNH:8
DA:16,5
DA:26,5
DA:31,2
DA:35,1
DA:36,2
DA:41,0
DA:53,0
DA:55,1
DA:58,1
DA:64,3
DA:68,3
DA:69,3
DA:70,3
DA:71,3
DA:72,3
DA:75,3
BRF:0
BRH:0
LF:17
LH:15
end_of_record
SF:/Users/lsh/projects/crates/wami/src/store/memory/credentials/service_credential.rs
FN:25,_RNvXNtNtNtNtCs9VsQExrgwtF_4wami5store6memory11credentials18service_credentialNtNtB6_4wami17InMemoryWamiStoreNtNtNtNtB8_6traits11credentials18service_credential22ServiceCredentialStore31get_service_specific_credential
FN:55,_RNvXNtNtNtNtCs9VsQExrgwtF_4wami5store6memory11credentials18service_credentialNtNtB6_4wami17InMemoryWamiStoreNtNtNtNtB8_6traits11credentials18service_credential22ServiceCredentialStore33list_service_specific_credentials
FN:14,_RNvXNtNtNtNtCs9VsQExrgwtF_4wami5store6memory11credentials18service_credentialNtNtB6_4wami17InMemoryWamiStoreNtNtNtNtB8_6traits11credentials18service_credential22ServiceCredentialStore34create_service_specific_credential
FN:46,_RNvXNtNtNtNtCs9VsQExrgwtF_4wami5store6memory11credentials18service_credentialNtNtB6_4wami17InMemoryWamiStoreNtNtNtNtB8_6traits11credentials18service_credential22ServiceCredentialStore34delete_service_specific_credential
FN:35,_RNvXNtNtNtNtCs9VsQExrgwtF_4wami5store6memory11credentials18service_credentialNtNtB6_4wami17InMemoryWamiStoreNtNtNtNtB8_6traits11credentials18service_credential22ServiceCredentialStore34update_service_specific_credential
FN:59,_RNCNCNvXNtNtNtNtCs9VsQExrgwtF_4wami5store6memory11credentials18service_credentialNtNtBa_4wami17InMemoryWamiStoreNtNtNtNtBc_6traits11credentials18service_credential22ServiceCredentialStore33list_service_specific_credentials00Be_
FNDA:3,_RNvXNtNtNtNtCs9VsQExrgwtF_4wami5store6memory11credentials18service_credentialNtNtB6_4wami17InMemoryWamiStoreNtNtNtNtB8_6traits11credentials18service_credential22ServiceCredentialStore31get_service_specific_credential
FNDA:1,_RNvXNtNtNtNtCs9VsQExrgwtF_4wami5store6memory11credentials18service_credentialNtNtB6_4wami17InMemoryWamiStoreNtNtNtNtB8_6traits11credentials18service_credential22ServiceCredentialStore33list_service_specific_credentials
FNDA:6,_RNvXNtNtNtNtCs9VsQExrgwtF_4wami5store6memory11credentials18service_credentialNtNtB6_4wami17InMemoryWamiStoreNtNtNtNtB8_6traits11credentials18service_credential22ServiceCredentialStore34create_service_specific_credential
FNDA:1,_RNvXNtNtNtNtCs9VsQExrgwtF_4wami5store6memory11credentials18service_credentialNtNtB6_4wami17InMemoryWamiStoreNtNtNtNtB8_6traits11credentials18service_credential22ServiceCredentialStore34delete_service_specific_credential
FNDA:1,_RNvXNtNtNtNtCs9VsQExrgwtF_4wami5store6memory11credentials18service_credentialNtNtB6_4wami17InMemoryWamiStoreNtNtNtNtB8_6traits11credentials18service_credential22ServiceCredentialStore34update_service_specific_credential
FNDA:3,_RNCNCNvXNtNtNtNtCs9VsQExrgwtF_4wami5store6memory11credentials18service_credentialNtNtBa_4wami17InMemoryWamiStoreNtNtNtNtBc_6traits11credentials18service_credential22ServiceCredentialStore33list_service_specific_credentials00Be_
FNF:6
FNH:6
DA:14,6
DA:20,6
DA:25,3
DA:30,3
DA:35,1
DA:41,1
DA:46,1
DA:50,1
DA:55,1
DA:59,3
DA:63,1
BRF:0
BRH:0
LF:11
LH:11
end_of_record
SF:/Users/lsh/projects/crates/wami/src/store/memory/credentials/signing_certificate.rs
FN:23,_RNvXNtNtNtNtCs9VsQExrgwtF_4wami5store6memory11credentials19signing_certificateNtNtB6_4wami17InMemoryWamiStoreNtNtNtNtB8_6traits11credentials19signing_certificate23SigningCertificateStore23get_signing_certificate
FN:44,_RNvXNtNtNtNtCs9VsQExrgwtF_4wami5store6memory11credentials19signing_certificateNtNtB6_4wami17InMemoryWamiStoreNtNtNtNtB8_6traits11credentials19signing_certificate23SigningCertificateStore25list_signing_certificates
FN:14,_RNvXNtNtNtNtCs9VsQExrgwtF_4wami5store6memory11credentials19signing_certificateNtNtB6_4wami17InMemoryWamiStoreNtNtNtNtB8_6traits11credentials19signing_certificate23SigningCertificateStore26create_signing_certificate
FN:36,_RNvXNtNtNtNtCs9VsQExrgwtF_4wami5store6memory11credentials19signing_certificateNtNtB6_4wami17InMemoryWamiStoreNtNtNtNtB8_6traits11credentials19signing_certificate23SigningCertificateStore26delete_signing_certificate
FN:30,_RNvXNtNtNtNtCs9VsQExrgwtF_4wami5store6memory11credentials19signing_certificateNtNtB6_4wami17InMemoryWamiStoreNtNtNtNtB8_6traits11credentials19signing_certificate23SigningCertificateStore26update_signing_certificate
FN:48,_RNCNCNCNvXNtNtNtNtCs9VsQExrgwtF_4wami5store6memory11credentials19signing_certificateNtNtBc_4wami17InMemoryWamiStoreNtNtNtNtBe_6traits11credentials19signing_certificate23SigningCertificateStore25list_signing_certificates000Bg_
FN:48,_RNCNCNvXNtNtNtNtCs9VsQExrgwtF_4wami5store6memory11credentials19signing_certificateNtNtBa_4wami17InMemoryWamiStoreNtNtNtNtBc_6traits11credentials19signing_certificate23SigningCertificateStore25list_signing_certificates00Be_
FNDA:3,_RNvXNtNtNtNtCs9VsQExrgwtF_4wami5store6memory11credentials19signing_certificateNtNtB6_4wami17InMemoryWamiStoreNtNtNtNtB8_6traits11credentials19signing_certificate23SigningCertificateStore23get_signing_certificate
FNDA:1,_RNvXNtNtNtNtCs9VsQExrgwtF_4wami5store6memory11credentials19signing_certificateNtNtB6_4wami17InMemoryWamiStoreNtNtNtNtB8_6traits11credentials19signing_certificate23SigningCertificateStore25list_signing_certificates
FNDA:6,_RNvXNtNtNtNtCs9VsQExrgwtF_4wami5store6memory11credentials19signing_certificateNtNtB6_4wami17InMemoryWamiStoreNtNtNtNtB8_6traits11credentials19signing_certificate23SigningCertificateStore26create_signing_certificate
FNDA:1,_RNvXNtNtNtNtCs9VsQExrgwtF_4wami5store6memory11credentials19signing_certificateNtNtB6_4wami17InMemoryWamiStoreNtNtNtNtB8_6traits11credentials19signing_certificate23SigningCertificateStore26delete_signing_certificate
FNDA:1,_RNvXNtNtNtNtCs9VsQExrgwtF_4wami5store6memory11credentials19signing_certificateNtNtB6_4wami17InMemoryWamiStoreNtNtNtNtB8_6traits11credentials19signing_certificate23SigningCertificateStore26update_signing_certificate
FNDA:3,_RNCNCNCNvXNtNtNtNtCs9VsQExrgwtF_4wami5store6memory11credentials19signing_certificateNtNtBc_4wami17InMemoryWamiStoreNtNtNtNtBe_6traits11credentials19signing_certificate23SigningCertificateStore25list_signing_certificates000Bg_
FNDA:3,_RNCNCNvXNtNtNtNtCs9VsQExrgwtF_4wami5store6memory11credentials19signing_certificateNtNtBa_4wami17InMemoryWamiStoreNtNtNtNtBc_6traits11credentials19signing_certificate23SigningCertificateStore25list_signing_certificates00Be_
FNF:7
FNH:7
DA:14,6
DA:18,6
DA:23,3
DA:25,3
DA:30,1
DA:34,1
DA:36,1
DA:39,1
DA:44,1
DA:48,3
DA:52,1
BRF:0
BRH:0
LF:12
LH:12
end_of_record
SF:/Users/lsh/projects/crates/wami/src/store/memory/credentials/tests.rs
FN:14,_RNvNtNtNtNtCs9VsQExrgwtF_4wami5store6memory11credentials5tests12test_context
FN:79,_RNvNtNtNtNtCs9VsQExrgwtF_4wami5store6memory11credentials5testss_22test_access_key_delete
FN:59,_RNvNtNtNtNtCs9VsQExrgwtF_4wami5store6memory11credentials5testss_22test_access_key_update
FN:187,_RNvNtNtNtNtCs9VsQExrgwtF_4wami5store6memory11credentials5testss_22test_mfa_device_delete
FN:306,_RNvNtNtNtNtCs9VsQExrgwtF_4wami5store6memory11credentials5testss_25test_login_profile_delete
FN:284,_RNvNtNtNtNtCs9VsQExrgwtF_4wami5store6memory11credentials5testss_25test_login_profile_update
FN:148,_RNvNtNtNtNtCs9VsQExrgwtF_4wami5store6memory11credentials5testss_26test_access_key_list_empty
FN:242,_RNvNtNtNtNtCs9VsQExrgwtF_4wami5store6memory11credentials5testss_26test_mfa_device_list_empty
FN:97,_RNvNtNtNtNtCs9VsQExrgwtF_4wami5store6memory11credentials5testss_29test_access_key_list_for_user
FN:210,_RNvNtNtNtNtCs9VsQExrgwtF_4wami5store6memory11credentials5testss_29test_mfa_device_list_for_user
FN:32,_RNvNtNtNtNtCs9VsQExrgwtF_4wami5store6memory11credentials5testss_30test_access_key_create_and_get
FN:163,_RNvNtNtNtNtCs9VsQExrgwtF_4wami5store6memory11credentials5testss_30test_mfa_device_create_and_get
FN:51,_RNvNtNtNtNtCs9VsQExrgwtF_4wami5store6memory11credentials5testss_31test_access_key_get_nonexistent
FN:342,_RNvNtNtNtNtCs9VsQExrgwtF_4wami5store6memory11credentials5testss_31test_login_profile_one_per_user
FN:255,_RNvNtNtNtNtCs9VsQExrgwtF_4wami5store6memory11credentials5testss_33test_login_profile_create_and_get
FN:276,_RNvNtNtNtNtCs9VsQExrgwtF_4wami5store6memory11credentials5testss_34test_login_profile_get_nonexistent
FN:121,_RNvNtNtNtNtCs9VsQExrgwtF_4wami5store6memory11credentials5testss_36test_access_key_list_with_pagination
FN:324,_RNvNtNtNtNtCs9VsQExrgwtF_4wami5store6memory11credentials5testss_42test_login_profile_password_reset_required
FN:117,_RNCNCNvNtNtNtNtCs9VsQExrgwtF_4wami5store6memory11credentials5testss_29test_access_key_list_for_user00Bd_
FN:238,_RNCNCNvNtNtNtNtCs9VsQExrgwtF_4wami5store6memory11credentials5testss_29test_mfa_device_list_for_user00Bd_
FN:79,_RNCNvNtNtNtNtCs9VsQExrgwtF_4wami5store6memory11credentials5testss_22test_access_key_delete0Bb_
FN:59,_RNCNvNtNtNtNtCs9VsQExrgwtF_4wami5store6memory11credentials5testss_22test_access_key_update0Bb_
FN:187,_RNCNvNtNtNtNtCs9VsQExrgwtF_4wami5store6memory11credentials5testss_22test_mfa_device_delete0Bb_
FN:306,_RNCNvNtNtNtNtCs9VsQExrgwtF_4wami5store6memory11credentials5testss_25test_login_profile_delete0Bb_
FN:284,_RNCNvNtNtNtNtCs9VsQExrgwtF_4wami5store6memory11credentials5testss_25test_login_profile_update0Bb_
FN:148,_RNCNvNtNtNtNtCs9VsQExrgwtF_4wami5store6memory11credentials5testss_26test_access_key_list_empty0Bb_
FN:242,_RNCNvNtNtNtNtCs9VsQExrgwtF_4wami5store6memory11credentials5testss_26test_mfa_device_list_empty0Bb_
FN:97,_RNCNvNtNtNtNtCs9VsQExrgwtF_4wami5store6memory11credentials5testss_29test_access_key_list_for_user0Bb_
FN:210,_RNCNvNtNtNtNtCs9VsQExrgwtF_4wami5store6memory11credentials5testss_29test_mfa_device_list_for_user0Bb_
FN:32,_RNCNvNtNtNtNtCs9VsQExrgwtF_4wami5store6memory11credentials5testss_30test_access_key_create_and_get0Bb_
FN:163,_RNCNvNtNtNtNtCs9VsQExrgwtF_4wami5store6memory11credentials5testss_30test_mfa_device_create_and_get0Bb_
FN:51,_RNCNvNtNtNtNtCs9VsQExrgwtF_4wami5store6memory11credentials5testss_31test_access_key_get_nonexistent0Bb_
FN:342,_RNCNvNtNtNtNtCs9VsQExrgwtF_4wami5store6memory11credentials5testss_31test_login_profile_one_per_user0Bb_
FN:255,_RNCNvNtNtNtNtCs9VsQExrgwtF_4wami5store6memory11credentials5testss_33test_login_profile_create_and_get0Bb_
FN:276,_RNCNvNtNtNtNtCs9VsQExrgwtF_4wami5store6memory11credentials5testss_34test_login_profile_get_nonexistent0Bb_
FN:121,_RNCNvNtNtNtNtCs9VsQExrgwtF_4wami5store6memory11credentials5testss_36test_access_key_list_with_pagination0Bb_
FN:324,_RNCNvNtNtNtNtCs9VsQExrgwtF_4wami5store6memory11credentials5testss_42test_login_profile_password_reset_required0Bb_
FNDA:13,_RNvNtNtNtNtCs9VsQExrgwtF_4wami5store6memory11credentials5tests12test_context
FNDA:1,_RNvNtNtNtNtCs9VsQExrgwtF_4wami5store6memory11credentials5testss_22test_access_key_delete
FNDA:1,_RNvNtNtNtNtCs9VsQExrgwtF_4wami5store6memory11credentials5testss_22test_access_key_update
FNDA:1,_RNvNtNtNtNtCs9VsQExrgwtF_4wami5store6memory11credentials5testss_22test_mfa_device_delete
FNDA:1,_RNvNtNtNtNtCs9VsQExrgwtF_4wami5store6memory11credentials5testss_25test_login_profile_delete
FNDA:1,_RNvNtNtNtNtCs9VsQExrgwtF_4wami5store6memory11credentials5testss_25test_login_profile_update
FNDA:1,_RNvNtNtNtNtCs9VsQExrgwtF_4wami5store6memory11credentials5testss_26test_access_key_list_empty
FNDA:1,_RNvNtNtNtNtCs9VsQExrgwtF_4wami5store6memory11credentials5testss_26test_mfa_device_list_empty
FNDA:1,_RNvNtNtNtNtCs9VsQExrgwtF_4wami5store6memory11credentials5testss_29test_access_key_list_for_user
FNDA:1,_RNvNtNtNtNtCs9VsQExrgwtF_4wami5store6memory11credentials5testss_29test_mfa_device_list_for_user
FNDA:1,_RNvNtNtNtNtCs9VsQExrgwtF_4wami5store6memory11credentials5testss_30test_access_key_create_and_get
FNDA:1,_RNvNtNtNtNtCs9VsQExrgwtF_4wami5store6memory11credentials5testss_30test_mfa_device_create_and_get
FNDA:1,_RNvNtNtNtNtCs9VsQExrgwtF_4wami5store6memory11credentials5testss_31test_access_key_get_nonexistent
FNDA:1,_RNvNtNtNtNtCs9VsQExrgwtF_4wami5store6memory11credentials5testss_31test_login_profile_one_per_user
FNDA:1,_RNvNtNtNtNtCs9VsQExrgwtF_4wami5store6memory11credentials5testss_33test_login_profile_create_and_get
FNDA:1,_RNvNtNtNtNtCs9VsQExrgwtF_4wami5store6memory11credentials5testss_34test_login_profile_get_nonexistent
FNDA:1,_RNvNtNtNtNtCs9VsQExrgwtF_4wami5store6memory11credentials5testss_36test_access_key_list_with_pagination
FNDA:1,_RNvNtNtNtNtCs9VsQExrgwtF_4wami5store6memory11credentials5testss_42test_login_profile_password_reset_required
FNDA:3,_RNCNCNvNtNtNtNtCs9VsQExrgwtF_4wami5store6memory11credentials5testss_29test_access_key_list_for_user00Bd_
FNDA:2,_RNCNCNvNtNtNtNtCs9VsQExrgwtF_4wami5store6memory11credentials5testss_29test_mfa_device_list_for_user00Bd_
FNDA:1,_RNCNvNtNtNtNtCs9VsQExrgwtF_4wami5store6memory11credentials5testss_22test_access_key_delete0Bb_
FNDA:1,_RNCNvNtNtNtNtCs9VsQExrgwtF_4wami5store6memory11credentials5testss_22test_access_key_update0Bb_
FNDA:1,_RNCNvNtNtNtNtCs9VsQExrgwtF_4wami5store6memory11credentials5testss_22test_mfa_device_delete0Bb_
FNDA:1,_RNCNvNtNtNtNtCs9VsQExrgwtF_4wami5store6memory11credentials5testss_25test_login_profile_delete0Bb_
FNDA:1,_RNCNvNtNtNtNtCs9VsQExrgwtF_4wami5store6memory11credentials5testss_25test_login_profile_update0Bb_
FNDA:1,_RNCNvNtNtNtNtCs9VsQExrgwtF_4wami5store6memory11credentials5testss_26test_access_key_list_empty0Bb_
FNDA:1,_RNCNvNtNtNtNtCs9VsQExrgwtF_4wami5store6memory11credentials5testss_26test_mfa_device_list_empty0Bb_
FNDA:1,_RNCNvNtNtNtNtCs9VsQExrgwtF_4wami5store6memory11credentials5testss_29test_access_key_list_for_user0Bb_
FNDA:1,_RNCNvNtNtNtNtCs9VsQExrgwtF_4wami5store6memory11credentials5testss_29test_mfa_device_list_for_user0Bb_
FNDA:1,_RNCNvNtNtNtNtCs9VsQExrgwtF_4wami5store6memory11credentials5testss_30test_access_key_create_and_get0Bb_
FNDA:1,_RNCNvNtNtNtNtCs9VsQExrgwtF_4wami5store6memory11credentials5testss_30test_mfa_device_create_and_get0Bb_
FNDA:1,_RNCNvNtNtNtNtCs9VsQExrgwtF_4wami5store6memory11credentials5testss_31test_access_key_get_nonexistent0Bb_
FNDA:1,_RNCNvNtNtNtNtCs9VsQExrgwtF_4wami5store6memory11credentials5testss_31test_login_profile_one_per_user0Bb_
FNDA:1,_RNCNvNtNtNtNtCs9VsQExrgwtF_4wami5store6memory11credentials5testss_33test_login_profile_create_and_get0Bb_
FNDA:1,_RNCNvNtNtNtNtCs9VsQExrgwtF_4wami5store6memory11credentials5testss_34test_login_profile_get_nonexistent0Bb_
FNDA:1,_RNCNvNtNtNtNtCs9VsQExrgwtF_4wami5store6memory11credentials5testss_36test_access_key_list_with_pagination0Bb_
FNDA:1,_RNCNvNtNtNtNtCs9VsQExrgwtF_4wami5store6memory11credentials5testss_42test_login_profile_password_reset_required0Bb_
FNF:37
FNH:37
DA:14,13
DA:15,13
DA:16,13
DA:17,13
DA:18,13
DA:19,13
DA:20,13
DA:21,13
DA:22,13
DA:23,13
DA:24,13
DA:25,13
DA:32,1
DA:33,1
DA:34,1
DA:36,1
DA:38,1
DA:41,1
DA:42,1
DA:45,1
DA:46,1
DA:47,1
DA:48,1
DA:51,1
DA:52,1
DA:54,1
DA:55,1
DA:56,1
DA:59,1
DA:60,1
DA:61,1
DA:63,1
DA:65,1
DA:66,1
DA:69,1
DA:70,1
DA:71,1
DA:74,1
DA:75,1
DA:76,1
DA:79,1
DA:80,1
DA:81,1
DA:83,1
DA:85,1
DA:86,1
DA:89,1
DA:92,1
DA:93,1
DA:94,1
DA:97,1
DA:98,1
DA:99,1
DA:102,4
DA:103,3
DA:104,3
DA:105,3
DA:109,1
DA:110,1
DA:113,1
DA:115,1
DA:116,1
DA:117,3
DA:118,1
DA:121,1
DA:122,1
DA:123,1
DA:126,6
DA:127,5
DA:128,5
DA:129,5
DA:132,1
DA:133,1
DA:134,1
DA:135,1
DA:137,1
DA:138,1
DA:139,1
DA:140,1
DA:142,1
DA:143,1
DA:144,1
DA:145,1
DA:148,1
DA:149,1
DA:151,1
DA:153,1
DA:154,1
DA:155,1
DA:156,1
DA:163,1
DA:164,1
DA:165,1
DA:167,1
DA:168,1
DA:169,1
DA:170,1
DA:172,1
DA:174,1
DA:177,1
DA:178,1
DA:181,1
DA:182,1
DA:183,1
DA:184,1
DA:187,1
DA:188,1
DA:189,1
DA:191,1
DA:192,1
DA:193,1
DA:194,1
DA:196,1
DA:198,1
DA:199,1
DA:202,1
DA:205,1
DA:206,1
DA:207,1
DA:210,1
DA:211,1
DA:212,1
DA:215,3
DA:216,2
DA:217,2
DA:218,2
DA:219,2
DA:221,2
DA:222,2
DA:226,1
DA:227,1
DA:228,1
DA:229,1
DA:231,1
DA:232,1
DA:235,1
DA:237,1
DA:238,2
DA:239,1
DA:242,1
DA:243,1
DA:245,1
DA:247,1
DA:248,1
DA:255,1
DA:256,1
DA:257,1
DA:259,1
DA:260,1
DA:263,1
DA:264,1
DA:265,1
DA:266,1
DA:267,1
DA:270,1
DA:271,1
DA:272,1
DA:273,1
DA:276,1
DA:277,1
DA:279,1
DA:280,1
DA:281,1
DA:284,1
DA:285,1
DA:286,1
DA:288,1
DA:289,1
DA:291,1
DA:292,1
DA:293,1
DA:294,1
DA:297,1
DA:298,1
DA:301,1
DA:302,1
DA:303,1
DA:306,1
DA:307,1
DA:308,1
DA:310,1
DA:311,1
DA:313,1
DA:316,1
DA:319,1
DA:320,1
DA:321,1
DA:324,1
DA:325,1
DA:326,1
DA:328,1
DA:329,1
DA:331,1
DA:333,1
DA:335,1
DA:337,1
DA:338,1
DA:339,1
DA:342,1
DA:343,1
DA:344,1
DA:346,1
DA:347,1
DA:349,1
DA:352,1
DA:353,1
DA:355,1
DA:358,1
DA:359,1
DA:360,1
BRF:0
BRH:0
LF:246
LH:246
end_of_record
SF:/Users/lsh/projects/crates/wami/src/store/memory/identity/group.rs
FN:140,_RNCNCNvXNtNtNtNtCs9VsQExrgwtF_4wami5store6memory8identity5groupNtNtBa_4wami17InMemoryWamiStoreNtNtNtNtBc_6traits8identity5group10GroupStore16get_group_policy00Be_
FN:103,_RNCNCNvXNtNtNtNtCs9VsQExrgwtF_4wami5store6memory8identity5groupNtNtBa_4wami17InMemoryWamiStoreNtNtNtNtBc_6traits8identity5group10GroupStore19detach_group_policy00Be_
FN:154,_RNCNCNvXNtNtNtNtCs9VsQExrgwtF_4wami5store6memory8identity5groupNtNtBa_4wami17InMemoryWamiStoreNtNtNtNtBc_6traits8identity5group10GroupStore19list_group_policies00Be_
FN:136,_RNvXNtNtNtNtCs9VsQExrgwtF_4wami5store6memory8identity5groupNtNtB6_4wami17InMemoryWamiStoreNtNtNtNtB8_6traits8identity5group10GroupStore16get_group_policy
FN:122,_RNvXNtNtNtNtCs9VsQExrgwtF_4wami5store6memory8identity5groupNtNtB6_4wami17InMemoryWamiStoreNtNtNtNtB8_6traits8identity5group10GroupStore16put_group_policy
FN:89,_RNvXNtNtNtNtCs9VsQExrgwtF_4wami5store6memory8identity5groupNtNtB6_4wami17InMemoryWamiStoreNtNtNtNtB8_6traits8identity5group10GroupStore19attach_group_policy
FN:143,_RNvXNtNtNtNtCs9VsQExrgwtF_4wami5store6memory8identity5groupNtNtB6_4wami17InMemoryWamiStoreNtNtNtNtB8_6traits8identity5group10GroupStore19delete_group_policy
FN:101,_RNvXNtNtNtNtCs9VsQExrgwtF_4wami5store6memory8identity5groupNtNtB6_4wami17InMemoryWamiStoreNtNtNtNtB8_6traits8identity5group10GroupStore19detach_group_policy
FN:150,_RNvXNtNtNtNtCs9VsQExrgwtF_4wami5store6memory8identity5groupNtNtB6_4wami17InMemoryWamiStoreNtNtNtNtB8_6traits8identity5group10GroupStore19list_group_policies
FN:108,_RNvXNtNtNtNtCs9VsQExrgwtF_4wami5store6memory8identity5groupNtNtB6_4wami17InMemoryWamiStoreNtNtNtNtB8_6traits8identity5group10GroupStore28list_attached_group_policies
FN:39,_RNvXNtNtNtNtCs9VsQExrgwtF_4wami5store6memory8identity5groupNtNtB6_4wami17InMemoryWamiStoreNtNtNtNtB8_6traits8identity5group10GroupStore11list_groups
FN:12,_RNvXNtNtNtNtCs9VsQExrgwtF_4wami5store6memory8identity5groupNtNtB6_4wami17InMemoryWamiStoreNtNtNtNtB8_6traits8identity5group10GroupStore12create_group
FN:26,_RNvXNtNtNtNtCs9VsQExrgwtF_4wami5store6memory8identity5groupNtNtB6_4wami17InMemoryWamiStoreNtNtNtNtB8_6traits8identity5group10GroupStore12delete_group
FN:21,_RNvXNtNtNtNtCs9VsQExrgwtF_4wami5store6memory8identity5groupNtNtB6_4wami17InMemoryWamiStoreNtNtNtNtB8_6traits8identity5group10GroupStore12update_group
FN:73,_RNvXNtNtNtNtCs9VsQExrgwtF_4wami5store6memory8identity5groupNtNtB6_4wami17InMemoryWamiStoreNtNtNtNtB8_6traits8identity5group10GroupStore17add_user_to_group
FN:64,_RNvXNtNtNtNtCs9VsQExrgwtF_4wami5store6memory8identity5groupNtNtB6_4wami17InMemoryWamiStoreNtNtNtNtB8_6traits8identity5group10GroupStore20list_groups_for_user
FN:81,_RNvXNtNtNtNtCs9VsQExrgwtF_4wami5store6memory8identity5groupNtNtB6_4wami17InMemoryWamiStoreNtNtNtNtB8_6traits8identity5group10GroupStore22remove_user_from_group
FN:17,_RNvXNtNtNtNtCs9VsQExrgwtF_4wami5store6memory8identity5groupNtNtB6_4wami17InMemoryWamiStoreNtNtNtNtB8_6traits8identity5group10GroupStore9get_group
FN:43,_RNCNCNvXNtNtNtNtCs9VsQExrgwtF_4wami5store6memory8identity5groupNtNtBa_4wami17InMemoryWamiStoreNtNtNtNtBc_6traits8identity5group10GroupStore11list_groups00Be_
FN:46,_RNCNCNvXNtNtNtNtCs9VsQExrgwtF_4wami5store6memory8identity5groupNtNtBa_4wami17InMemoryWamiStoreNtNtNtNtBc_6traits8identity5group10GroupStore11list_groups0s_0Be_
FN:30,_RNCNCNvXNtNtNtNtCs9VsQExrgwtF_4wami5store6memory8identity5groupNtNtBa_4wami17InMemoryWamiStoreNtNtNtNtBc_6traits8identity5group10GroupStore12delete_group00Be_
FN:68,_RNCNCNvXNtNtNtNtCs9VsQExrgwtF_4wami5store6memory8identity5groupNtNtBa_4wami17InMemoryWamiStoreNtNtNtNtBc_6traits8identity5group10GroupStore20list_groups_for_user00Be_
FN:83,_RNCNCNvXNtNtNtNtCs9VsQExrgwtF_4wami5store6memory8identity5groupNtNtBa_4wami17InMemoryWamiStoreNtNtNtNtBc_6traits8identity5group10GroupStore22remove_user_from_group00Be_
FNDA:0,_RNCNCNvXNtNtNtNtCs9VsQExrgwtF_4wami5store6memory8identity5groupNtNtBa_4wami17InMemoryWamiStoreNtNtNtNtBc_6traits8identity5group10GroupStore16get_group_policy00Be_
FNDA:0,_RNCNCNvXNtNtNtNtCs9VsQExrgwtF_4wami5store6memory8identity5groupNtNtBa_4wami17InMemoryWamiStoreNtNtNtNtBc_6traits8identity5group10GroupStore19detach_group_policy00Be_
FNDA:0,_RNCNCNvXNtNtNtNtCs9VsQExrgwtF_4wami5store6memory8identity5groupNtNtBa_4wami17InMemoryWamiStoreNtNtNtNtBc_6traits8identity5group10GroupStore19list_group_policies00Be_
FNDA:0,_RNvXNtNtNtNtCs9VsQExrgwtF_4wami5store6memory8identity5groupNtNtB6_4wami17InMemoryWamiStoreNtNtNtNtB8_6traits8identity5group10GroupStore16get_group_policy
FNDA:0,_RNvXNtNtNtNtCs9VsQExrgwtF_4wami5store6memory8identity5groupNtNtB6_4wami17InMemoryWamiStoreNtNtNtNtB8_6traits8identity5group10GroupStore16put_group_policy
FNDA:0,_RNvXNtNtNtNtCs9VsQExrgwtF_4wami5store6memory8identity5groupNtNtB6_4wami17InMemoryWamiStoreNtNtNtNtB8_6traits8identity5group10GroupStore19attach_group_policy
FNDA:0,_RNvXNtNtNtNtCs9VsQExrgwtF_4wami5store6memory8identity5groupNtNtB6_4wami17InMemoryWamiStoreNtNtNtNtB8_6traits8identity5group10GroupStore19delete_group_policy
FNDA:0,_RNvXNtNtNtNtCs9VsQExrgwtF_4wami5store6memory8identity5groupNtNtB6_4wami17InMemoryWamiStoreNtNtNtNtB8_6traits8identity5group10GroupStore19detach_group_policy
FNDA:0,_RNvXNtNtNtNtCs9VsQExrgwtF_4wami5store6memory8identity5groupNtNtB6_4wami17InMemoryWamiStoreNtNtNtNtB8_6traits8identity5group10GroupStore19list_group_policies
FNDA:0,_RNvXNtNtNtNtCs9VsQExrgwtF_4wami5store6memory8identity5groupNtNtB6_4wami17InMemoryWamiStoreNtNtNtNtB8_6traits8identity5group10GroupStore28list_attached_group_policies
FNDA:4,_RNvXNtNtNtNtCs9VsQExrgwtF_4wami5store6memory8identity5groupNtNtB6_4wami17InMemoryWamiStoreNtNtNtNtB8_6traits8identity5group10GroupStore11list_groups
FNDA:13,_RNvXNtNtNtNtCs9VsQExrgwtF_4wami5store6memory8identity5groupNtNtB6_4wami17InMemoryWamiStoreNtNtNtNtB8_6traits8identity5group10GroupStore12create_group
FNDA:2,_RNvXNtNtNtNtCs9VsQExrgwtF_4wami5store6memory8identity5groupNtNtB6_4wami17InMemoryWamiStoreNtNtNtNtB8_6traits8identity5group10GroupStore12delete_group
FNDA:1,_RNvXNtNtNtNtCs9VsQExrgwtF_4wami5store6memory8identity5groupNtNtB6_4wami17InMemoryWamiStoreNtNtNtNtB8_6traits8identity5group10GroupStore12update_group
FNDA:2,_RNvXNtNtNtNtCs9VsQExrgwtF_4wami5store6memory8identity5groupNtNtB6_4wami17InMemoryWamiStoreNtNtNtNtB8_6traits8identity5group10GroupStore17add_user_to_group
FNDA:4,_RNvXNtNtNtNtCs9VsQExrgwtF_4wami5store6memory8identity5groupNtNtB6_4wami17InMemoryWamiStoreNtNtNtNtB8_6traits8identity5group10GroupStore20list_groups_for_user
FNDA:2,_RNvXNtNtNtNtCs9VsQExrgwtF_4wami5store6memory8identity5groupNtNtB6_4wami17InMemoryWamiStoreNtNtNtNtB8_6traits8identity5group10GroupStore22remove_user_from_group
FNDA:5,_RNvXNtNtNtNtCs9VsQExrgwtF_4wami5store6memory8identity5groupNtNtB6_4wami17InMemoryWamiStoreNtNtNtNtB8_6traits8identity5group10GroupStore9get_group
FNDA:3,_RNCNCNvXNtNtNtNtCs9VsQExrgwtF_4wami5store6memory8identity5groupNtNtBa_4wami17InMemoryWamiStoreNtNtNtNtBc_6traits8identity5group10GroupStore11list_groups00Be_
FNDA:5,_RNCNCNvXNtNtNtNtCs9VsQExrgwtF_4wami5store6memory8identity5groupNtNtBa_4wami17InMemoryWamiStoreNtNtNtNtBc_6traits8identity5group10GroupStore11list_groups0s_0Be_
FNDA:0,_RNCNCNvXNtNtNtNtCs9VsQExrgwtF_4wami5store6memory8identity5groupNtNtBa_4wami17InMemoryWamiStoreNtNtNtNtBc_6traits8identity5group10GroupStore12delete_group00Be_
FNDA:2,_RNCNCNvXNtNtNtNtCs9VsQExrgwtF_4wami5store6memory8identity5groupNtNtBa_4wami17InMemoryWamiStoreNtNtNtNtBc_6traits8identity5group10GroupStore20list_groups_for_user00Be_
FNDA:2,_RNCNCNvXNtNtNtNtCs9VsQExrgwtF_4wami5store6memory8identity5groupNtNtBa_4wami17InMemoryWamiStoreNtNtNtNtBc_6traits8identity5group10GroupStore22remove_user_from_group00Be_
FNF:23
FNH:12
DA:12,13
DA:15,13
DA:17,5
DA:19,5
DA:21,1
DA:24,1
DA:26,2
DA:30,0
DA:33,2
DA:39,4
DA:43,3
DA:46,5
DA:62,4
DA:64,4
DA:68,2
DA:71,4
DA:73,2
DA:79,2
DA:81,2
DA:83,2
DA:86,2
DA:89,0
DA:99,0
DA:101,0
DA:103,0
DA:106,0
DA:108,0
DA:114,0
DA:122,0
DA:130,0
DA:136,0
DA:140,0
DA:141,0
DA:143,0
DA:148,0
DA:150,0
DA:154,0
DA:156,0
BRF:0
BRH:0
LF:38
LH:20
end_of_record
SF:/Users/lsh/projects/crates/wami/src/store/memory/identity/identity_provider.rs
FN:103,_RNvXNtNtNtNtCs9VsQExrgwtF_4wami5store6memory8identity17identity_providerNtNtB6_4wami17InMemoryWamiStoreNtNtNtNtB8_6traits8identity17identity_provider21IdentityProviderStore17get_oidc_provider
FN:28,_RNvXNtNtNtNtCs9VsQExrgwtF_4wami5store6memory8identity17identity_providerNtNtB6_4wami17InMemoryWamiStoreNtNtNtNtB8_6traits8identity17identity_provider21IdentityProviderStore17get_saml_provider
FN:131,_RNvXNtNtNtNtCs9VsQExrgwtF_4wami5store6memory8identity17identity_providerNtNtB6_4wami17InMemoryWamiStoreNtNtNtNtB8_6traits8identity17identity_provider21IdentityProviderStore19list_oidc_providers
FN:56,_RNvXNtNtNtNtCs9VsQExrgwtF_4wami5store6memory8identity17identity_providerNtNtB6_4wami17InMemoryWamiStoreNtNtNtNtB8_6traits8identity17identity_provider21IdentityProviderStore19list_saml_providers
FN:91,_RNvXNtNtNtNtCs9VsQExrgwtF_4wami5store6memory8identity17identity_providerNtNtB6_4wami17InMemoryWamiStoreNtNtNtNtB8_6traits8identity17identity_provider21IdentityProviderStore20create_oidc_provider
FN:16,_RNvXNtNtNtNtCs9VsQExrgwtF_4wami5store6memory8identity17identity_providerNtNtB6_4wami17InMemoryWamiStoreNtNtNtNtB8_6traits8identity17identity_provider21IdentityProviderStore20create_saml_provider
FN:119,_RNvXNtNtNtNtCs9VsQExrgwtF_4wami5store6memory8identity17identity_providerNtNtB6_4wami17InMemoryWamiStoreNtNtNtNtB8_6traits8identity17identity_provider21IdentityProviderStore20delete_oidc_provider
FN:44,_RNvXNtNtNtNtCs9VsQExrgwtF_4wami5store6memory8identity17identity_providerNtNtB6_4wami17InMemoryWamiStoreNtNtNtNtB8_6traits8identity17identity_provider21IdentityProviderStore20delete_saml_provider
FN:107,_RNvXNtNtNtNtCs9VsQExrgwtF_4wami5store6memory8identity17identity_providerNtNtB6_4wami17InMemoryWamiStoreNtNtNtNtB8_6traits8identity17identity_provider21IdentityProviderStore20update_oidc_provider
FN:32,_RNvXNtNtNtNtCs9VsQExrgwtF_4wami5store6memory8identity17identity_providerNtNtB6_4wami17InMemoryWamiStoreNtNtNtNtB8_6traits8identity17identity_provider21IdentityProviderStore20update_saml_provider
FN:166,_RNvXNtNtNtNtCs9VsQExrgwtF_4wami5store6memory8identity17identity_providerNtNtB6_4wami17InMemoryWamiStoreNtNtNtNtB8_6traits8identity17identity_provider21IdentityProviderStore21tag_identity_provider
FN:208,_RNvXNtNtNtNtCs9VsQExrgwtF_4wami5store6memory8identity17identity_providerNtNtB6_4wami17InMemoryWamiStoreNtNtNtNtB8_6traits8identity17identity_provider21IdentityProviderStore23untag_identity_provider
FN:192,_RNvXNtNtNtNtCs9VsQExrgwtF_4wami5store6memory8identity17identity_providerNtNtB6_4wami17InMemoryWamiStoreNtNtNtNtB8_6traits8identity17identity_provider21IdentityProviderStore27list_identity_provider_tags
FN:142,_RNCNCNCNvXNtNtNtNtCs9VsQExrgwtF_4wami5store6memory8identity17identity_providerNtNtBc_4wami17InMemoryWamiStoreNtNtNtNtBe_6traits8identity17identity_provider21IdentityProviderStore19list_oidc_providers0s_00Bg_
FN:67,_RNCNCNCNvXNtNtNtNtCs9VsQExrgwtF_4wami5store6memory8identity17identity_providerNtNtBc_4wami17InMemoryWamiStoreNtNtNtNtBe_6traits8identity17identity_provider21IdentityProviderStore19list_saml_providers0s_00Bg_
FN:135,_RNCNCNvXNtNtNtNtCs9VsQExrgwtF_4wami5store6memory8identity17identity_providerNtNtBa_4wami17InMemoryWamiStoreNtNtNtNtBc_6traits8identity17identity_provider21IdentityProviderStore19list_oidc_providers00Be_
FN:143,_RNCNCNvXNtNtNtNtCs9VsQExrgwtF_4wami5store6memory8identity17identity_providerNtNtBa_4wami17InMemoryWamiStoreNtNtNtNtBc_6traits8identity17identity_provider21IdentityProviderStore19list_oidc_providers0s0_0Be_
FN:154,_RNCNCNvXNtNtNtNtCs9VsQExrgwtF_4wami5store6memory8identity17identity_providerNtNtBa_4wami17InMemoryWamiStoreNtNtNtNtBc_6traits8identity17identity_provider21IdentityProviderStore19list_oidc_providers0s1_0Be_
FN:142,_RNCNCNvXNtNtNtNtCs9VsQExrgwtF_4wami5store6memory8identity17identity_providerNtNtBa_4wami17InMemoryWamiStoreNtNtNtNtBc_6traits8identity17identity_provider21IdentityProviderStore19list_oidc_providers0s_0Be_
FN:60,_RNCNCNvXNtNtNtNtCs9VsQExrgwtF_4wami5store6memory8identity17identity_providerNtNtBa_4wami17InMemoryWamiStoreNtNtNtNtBc_6traits8identity17identity_provider21IdentityProviderStore19list_saml_providers00Be_
FN:68,_RNCNCNvXNtNtNtNtCs9VsQExrgwtF_4wami5store6memory8identity17identity_providerNtNtBa_4wami17InMemoryWamiStoreNtNtNtNtBc_6traits8identity17identity_provider21IdentityProviderStore19list_saml_providers0s0_0Be_
FN:79,_RNCNCNvXNtNtNtNtCs9VsQExrgwtF_4wami5store6memory8identity17identity_providerNtNtBa_4wami17InMemoryWamiStoreNtNtNtNtBc_6traits8identity17identity_provider21IdentityProviderStore19list_saml_providers0s1_0Be_
FN:67,_RNCNCNvXNtNtNtNtCs9VsQExrgwtF_4wami5store6memory8identity17identity_providerNtNtBa_4wami17InMemoryWamiStoreNtNtNtNtBc_6traits8identity17identity_provider21IdentityProviderStore19list_saml_providers0s_0Be_
FN:170,_RNCNCNvXNtNtNtNtCs9VsQExrgwtF_4wami5store6memory8identity17identity_providerNtNtBa_4wami17InMemoryWamiStoreNtNtNtNtBc_6traits8identity17identity_provider21IdentityProviderStore21tag_identity_provider00Be_
FN:180,_RNCNCNvXNtNtNtNtCs9VsQExrgwtF_4wami5store6memory8identity17identity_providerNtNtBa_4wami17InMemoryWamiStoreNtNtNtNtBc_6traits8identity17identity_provider21IdentityProviderStore21tag_identity_provider0s_0Be_
FN:211,_RNCNCNvXNtNtNtNtCs9VsQExrgwtF_4wami5store6memory8identity17identity_providerNtNtBa_4wami17InMemoryWamiStoreNtNtNtNtBc_6traits8identity17identity_provider21IdentityProviderStore23untag_identity_provider00Be_
FN:218,_RNCNCNvXNtNtNtNtCs9VsQExrgwtF_4wami5store6memory8identity17identity_providerNtNtBa_4wami17InMemoryWamiStoreNtNtNtNtBc_6traits8identity17identity_provider21IdentityProviderStore23untag_identity_provider0s_0Be_
FN:291,_RNCNvNtNtNtNtNtCs9VsQExrgwtF_4wami5store6memory8identity17identity_provider5testss_23test_oidc_provider_crud0Bd_
FN:255,_RNCNvNtNtNtNtNtCs9VsQExrgwtF_4wami5store6memory8identity17identity_provider5testss_23test_saml_provider_crud0Bd_
FN:327,_RNCNvNtNtNtNtNtCs9VsQExrgwtF_4wami5store6memory8identity17identity_provider5testss_23test_tagging_operations0Bd_
FN:236,_RNvNtNtNtNtNtCs9VsQExrgwtF_4wami5store6memory8identity17identity_provider5tests12test_context
FN:291,_RNvNtNtNtNtNtCs9VsQExrgwtF_4wami5store6memory8identity17identity_provider5testss_23test_oidc_provider_crud
FN:255,_RNvNtNtNtNtNtCs9VsQExrgwtF_4wami5store6memory8identity17identity_provider5testss_23test_saml_provider_crud
FN:327,_RNvNtNtNtNtNtCs9VsQExrgwtF_4wami5store6memory8identity17identity_provider5testss_23test_tagging_operations
FNDA:7,_RNvXNtNtNtNtCs9VsQExrgwtF_4wami5store6memory8identity17identity_providerNtNtB6_4wami17InMemoryWamiStoreNtNtNtNtB8_6traits8identity17identity_provider21IdentityProviderStore17get_oidc_provider
FNDA:5,_RNvXNtNtNtNtCs9VsQExrgwtF_4wami5store6memory8identity17identity_providerNtNtB6_4wami17InMemoryWamiStoreNtNtNtNtB8_6traits8identity17identity_provider21IdentityProviderStore17get_saml_provider
FNDA:1,_RNvXNtNtNtNtCs9VsQExrgwtF_4wami5store6memory8identity17identity_providerNtNtB6_4wami17InMemoryWamiStoreNtNtNtNtB8_6traits8identity17identity_provider21IdentityProviderStore19list_oidc_providers
FNDA:1,_RNvXNtNtNtNtCs9VsQExrgwtF_4wami5store6memory8identity17identity_providerNtNtB6_4wami17InMemoryWamiStoreNtNtNtNtB8_6traits8identity17identity_provider21IdentityProviderStore19list_saml_providers
FNDA:2,_RNvXNtNtNtNtCs9VsQExrgwtF_4wami5store6memory8identity17identity_providerNtNtB6_4wami17InMemoryWamiStoreNtNtNtNtB8_6traits8identity17identity_provider21IdentityProviderStore20create_oidc_provider
FNDA:3,_RNvXNtNtNtNtCs9VsQExrgwtF_4wami5store6memory8identity17identity_providerNtNtB6_4wami17InMemoryWamiStoreNtNtNtNtB8_6traits8identity17identity_provider21IdentityProviderStore20create_saml_provider
FNDA:2,_RNvXNtNtNtNtCs9VsQExrgwtF_4wami5store6memory8identity17identity_providerNtNtB6_4wami17InMemoryWamiStoreNtNtNtNtB8_6traits8identity17identity_provider21IdentityProviderStore20delete_oidc_provider
FNDA:2,_RNvXNtNtNtNtCs9VsQExrgwtF_4wami5store6memory8identity17identity_providerNtNtB6_4wami17InMemoryWamiStoreNtNtNtNtB8_6traits8identity17identity_provider21IdentityProviderStore20delete_saml_provider
FNDA:4,_RNvXNtNtNtNtCs9VsQExrgwtF_4wami5store6memory8identity17identity_providerNtNtB6_4wami17InMemoryWamiStoreNtNtNtNtB8_6traits8identity17identity_provider21IdentityProviderStore20update_oidc_provider
FNDA:2,_RNvXNtNtNtNtCs9VsQExrgwtF_4wami5store6memory8identity17identity_providerNtNtB6_4wami17InMemoryWamiStoreNtNtNtNtB8_6traits8identity17identity_provider21IdentityProviderStore20update_saml_provider
FNDA:1,_RNvXNtNtNtNtCs9VsQExrgwtF_4wami5store6memory8identity17identity_providerNtNtB6_4wami17InMemoryWamiStoreNtNtNtNtB8_6traits8identity17identity_provider21IdentityProviderStore21tag_identity_provider
FNDA:1,_RNvXNtNtNtNtCs9VsQExrgwtF_4wami5store6memory8identity17identity_providerNtNtB6_4wami17InMemoryWamiStoreNtNtNtNtB8_6traits8identity17identity_provider21IdentityProviderStore23untag_identity_provider
FNDA:2,_RNvXNtNtNtNtCs9VsQExrgwtF_4wami5store6memory8identity17identity_providerNtNtB6_4wami17InMemoryWamiStoreNtNtNtNtB8_6traits8identity17identity_provider21IdentityProviderStore27list_identity_provider_tags
FNDA:0,_RNCNCNCNvXNtNtNtNtCs9VsQExrgwtF_4wami5store6memory8identity17identity_providerNtNtBc_4wami17InMemoryWamiStoreNtNtNtNtBe_6traits8identity17identity_provider21IdentityProviderStore19list_oidc_providers0s_00Bg_
FNDA:0,_RNCNCNCNvXNtNtNtNtCs9VsQExrgwtF_4wami5store6memory8identity17identity_providerNtNtBc_4wami17InMemoryWamiStoreNtNtNtNtBe_6traits8identity17identity_provider21IdentityProviderStore19list_saml_providers0s_00Bg_
FNDA:0,_RNCNCNvXNtNtNtNtCs9VsQExrgwtF_4wami5store6memory8identity17identity_providerNtNtBa_4wami17InMemoryWamiStoreNtNtNtNtBc_6traits8identity17identity_provider21IdentityProviderStore19list_oidc_providers00Be_
FNDA:0,_RNCNCNvXNtNtNtNtCs9VsQExrgwtF_4wami5store6memory8identity17identity_providerNtNtBa_4wami17InMemoryWamiStoreNtNtNtNtBc_6traits8identity17identity_provider21IdentityProviderStore19list_oidc_providers0s0_0Be_
FNDA:0,_RNCNCNvXNtNtNtNtCs9VsQExrgwtF_4wami5store6memory8identity17identity_providerNtNtBa_4wami17InMemoryWamiStoreNtNtNtNtBc_6traits8identity17identity_provider21IdentityProviderStore19list_oidc_providers0s1_0Be_
FNDA:0,_RNCNCNvXNtNtNtNtCs9VsQExrgwtF_4wami5store6memory8identity17identity_providerNtNtBa_4wami17InMemoryWamiStoreNtNtNtNtBc_6traits8identity17identity_provider21IdentityProviderStore19list_oidc_providers0s_0Be_
FNDA:0,_RNCNCNvXNtNtNtNtCs9VsQExrgwtF_4wami5store6memory8identity17identity_providerNtNtBa_4wami17InMemoryWamiStoreNtNtNtNtBc_6traits8identity17identity_provider21IdentityProviderStore19list_saml_providers00Be_
FNDA:0,_RNCNCNvXNtNtNtNtCs9VsQExrgwtF_4wami5store6memory8identity17identity_providerNtNtBa_4wami17InMemoryWamiStoreNtNtNtNtBc_6traits8identity17identity_provider21IdentityProviderStore19list_saml_providers0s0_0Be_
FNDA:0,_RNCNCNvXNtNtNtNtCs9VsQExrgwtF_4wami5store6memory8identity17identity_providerNtNtBa_4wami17InMemoryWamiStoreNtNtNtNtBc_6traits8identity17identity_provider21IdentityProviderStore19list_saml_providers0s1_0Be_
FNDA:0,_RNCNCNvXNtNtNtNtCs9VsQExrgwtF_4wami5store6memory8identity17identity_providerNtNtBa_4wami17InMemoryWamiStoreNtNtNtNtBc_6traits8identity17identity_provider21IdentityProviderStore19list_saml_providers0s_0Be_
FNDA:0,_RNCNCNvXNtNtNtNtCs9VsQExrgwtF_4wami5store6memory8identity17identity_providerNtNtBa_4wami17InMemoryWamiStoreNtNtNtNtBc_6traits8identity17identity_provider21IdentityProviderStore21tag_identity_provider00Be_
FNDA:0,_RNCNCNvXNtNtNtNtCs9VsQExrgwtF_4wami5store6memory8identity17identity_providerNtNtBa_4wami17InMemoryWamiStoreNtNtNtNtBc_6traits8identity17identity_provider21IdentityProviderStore21tag_identity_provider0s_0Be_
FNDA:1,_RNCNCNvXNtNtNtNtCs9VsQExrgwtF_4wami5store6memory8identity17identity_providerNtNtBa_4wami17InMemoryWamiStoreNtNtNtNtBc_6traits8identity17identity_provider21IdentityProviderStore23untag_identity_provider00Be_
FNDA:0,_RNCNCNvXNtNtNtNtCs9VsQExrgwtF_4wami5store6memory8identity17identity_providerNtNtBa_4wami17InMemoryWamiStoreNtNtNtNtBc_6traits8identity17identity_provider21IdentityProviderStore23untag_identity_provider0s_0Be_
FNDA:1,_RNCNvNtNtNtNtNtCs9VsQExrgwtF_4wami5store6memory8identity17identity_provider5testss_23test_oidc_provider_crud0Bd_
FNDA:1,_RNCNvNtNtNtNtNtCs9VsQExrgwtF_4wami5store6memory8identity17identity_provider5testss_23test_saml_provider_crud0Bd_
FNDA:1,_RNCNvNtNtNtNtNtCs9VsQExrgwtF_4wami5store6memory8identity17identity_provider5testss_23test_tagging_operations0Bd_
FNDA:3,_RNvNtNtNtNtNtCs9VsQExrgwtF_4wami5store6memory8identity17identity_provider5tests12test_context
FNDA:1,_RNvNtNtNtNtNtCs9VsQExrgwtF_4wami5store6memory8identity17identity_provider5testss_23test_oidc_provider_crud
FNDA:1,_RNvNtNtNtNtNtCs9VsQExrgwtF_4wami5store6memory8identity17identity_provider5testss_23test_saml_provider_crud
FNDA:1,_RNvNtNtNtNtNtCs9VsQExrgwtF_4wami5store6memory8identity17identity_provider5testss_23test_tagging_operations
FNF:34
FNH:21
DA:16,3
DA:26,3
DA:28,5
DA:30,5
DA:32,2
DA:42,2
DA:44,2
DA:51,2
DA:56,1
DA:60,0
DA:67,0
DA:68,0
DA:79,0
DA:85,1
DA:91,2
DA:101,2
DA:103,7
DA:105,7
DA:107,4
DA:117,4
DA:119,2
DA:126,2
DA:131,1
DA:135,0
DA:142,0
DA:143,0
DA:154,0
DA:160,1
DA:166,1
DA:170,0
DA:180,0
DA:190,1
DA:192,2
DA:206,2
DA:208,1
DA:211,1
DA:218,0
DA:226,1
DA:236,3
DA:237,3
DA:238,3
DA:239,3
DA:240,3
DA:241,3
DA:242,3
DA:243,3
DA:244,3
DA:245,3
DA:246,3
DA:247,3
DA:249,3
DA:250,3
DA:251,3
DA:252,3
DA:255,1
DA:256,1
DA:257,1
DA:259,1
DA:260,1
DA:261,1
DA:262,1
DA:264,1
DA:267,1
DA:268,1
DA:271,1
DA:272,1
DA:273,1
DA:276,1
DA:277,1
DA:278,1
DA:279,1
DA:282,1
DA:283,1
DA:284,1
DA:285,1
DA:286,1
DA:287,1
DA:288,1
DA:291,1
DA:292,1
DA:293,1
DA:295,1
DA:296,1
DA:297,1
DA:298,1
DA:299,1
DA:301,1
DA:304,1
DA:305,1
DA:308,1
DA:309,1
DA:312,1
DA:313,1
DA:314,1
DA:315,1
DA:318,1
DA:319,1
DA:320,1
DA:321,1
DA:322,1
DA:323,1
DA:324,1
DA:327,1
DA:328,1
DA:329,1
DA:331,1
DA:332,1
DA:333,1
DA:334,1
DA:336,1
DA:338,1
DA:341,1
DA:342,1
DA:343,1
DA:344,1
DA:345,1
DA:346,1
DA:347,1
DA:348,1
DA:351,1
DA:352,1
DA:353,1
DA:354,1
DA:355,1
DA:356,1
DA:359,1
DA:360,1
DA:361,1
DA:362,1
DA:364,1
DA:365,1
DA:366,1
DA:367,1
DA:368,1
DA:369,1
BRF:0
BRH:0
LF:151
LH:138
end_of_record
SF:/Users/lsh/projects/crates/wami/src/store/memory/identity/role.rs
FN:108,_RNCNCNvXNtNtNtNtCs9VsQExrgwtF_4wami5store6memory8identity4roleNtNtBa_4wami17InMemoryWamiStoreNtNtNtNtBc_6traits8identity4role9RoleStore15get_role_policy00Be_
FN:75,_RNCNCNvXNtNtNtNtCs9VsQExrgwtF_4wami5store6memory8identity4roleNtNtBa_4wami17InMemoryWamiStoreNtNtNtNtBc_6traits8identity4role9RoleStore18detach_role_policy00Be_
FN:122,_RNCNCNvXNtNtNtNtCs9VsQExrgwtF_4wami5store6memory8identity4roleNtNtBa_4wami17InMemoryWamiStoreNtNtNtNtBc_6traits8identity4role9RoleStore18list_role_policies00Be_
FN:104,_RNvXNtNtNtNtCs9VsQExrgwtF_4wami5store6memory8identity4roleNtNtB6_4wami17InMemoryWamiStoreNtNtNtNtB8_6traits8identity4role9RoleStore15get_role_policy
FN:94,_RNvXNtNtNtNtCs9VsQExrgwtF_4wami5store6memory8identity4roleNtNtB6_4wami17InMemoryWamiStoreNtNtNtNtB8_6traits8identity4role9RoleStore15put_role_policy
FN:61,_RNvXNtNtNtNtCs9VsQExrgwtF_4wami5store6memory8identity4roleNtNtB6_4wami17InMemoryWamiStoreNtNtNtNtB8_6traits8identity4role9RoleStore18attach_role_policy
FN:111,_RNvXNtNtNtNtCs9VsQExrgwtF_4wami5store6memory8identity4roleNtNtB6_4wami17InMemoryWamiStoreNtNtNtNtB8_6traits8identity4role9RoleStore18delete_role_policy
FN:73,_RNvXNtNtNtNtCs9VsQExrgwtF_4wami5store6memory8identity4roleNtNtB6_4wami17InMemoryWamiStoreNtNtNtNtB8_6traits8identity4role9RoleStore18detach_role_policy
FN:118,_RNvXNtNtNtNtCs9VsQExrgwtF_4wami5store6memory8identity4roleNtNtB6_4wami17InMemoryWamiStoreNtNtNtNtB8_6traits8identity4role9RoleStore18list_role_policies
FN:80,_RNvXNtNtNtNtCs9VsQExrgwtF_4wami5store6memory8identity4roleNtNtB6_4wami17InMemoryWamiStoreNtNtNtNtB8_6traits8identity4role9RoleStore27list_attached_role_policies
FN:35,_RNvXNtNtNtNtCs9VsQExrgwtF_4wami5store6memory8identity4roleNtNtB6_4wami17InMemoryWamiStoreNtNtNtNtB8_6traits8identity4role9RoleStore10list_roles
FN:12,_RNvXNtNtNtNtCs9VsQExrgwtF_4wami5store6memory8identity4roleNtNtB6_4wami17InMemoryWamiStoreNtNtNtNtB8_6traits8identity4role9RoleStore11create_role
FN:26,_RNvXNtNtNtNtCs9VsQExrgwtF_4wami5store6memory8identity4roleNtNtB6_4wami17InMemoryWamiStoreNtNtNtNtB8_6traits8identity4role9RoleStore11delete_role
FN:21,_RNvXNtNtNtNtCs9VsQExrgwtF_4wami5store6memory8identity4roleNtNtB6_4wami17InMemoryWamiStoreNtNtNtNtB8_6traits8identity4role9RoleStore11update_role
FN:17,_RNvXNtNtNtNtCs9VsQExrgwtF_4wami5store6memory8identity4roleNtNtB6_4wami17InMemoryWamiStoreNtNtNtNtB8_6traits8identity4role9RoleStore8get_role
FN:39,_RNCNCNvXNtNtNtNtCs9VsQExrgwtF_4wami5store6memory8identity4roleNtNtBa_4wami17InMemoryWamiStoreNtNtNtNtBc_6traits8identity4role9RoleStore10list_roles00Be_
FN:42,_RNCNCNvXNtNtNtNtCs9VsQExrgwtF_4wami5store6memory8identity4roleNtNtBa_4wami17InMemoryWamiStoreNtNtNtNtBc_6traits8identity4role9RoleStore10list_roles0s_0Be_
FNDA:0,_RNCNCNvXNtNtNtNtCs9VsQExrgwtF_4wami5store6memory8identity4roleNtNtBa_4wami17InMemoryWamiStoreNtNtNtNtBc_6traits8identity4role9RoleStore15get_role_policy00Be_
FNDA:0,_RNCNCNvXNtNtNtNtCs9VsQExrgwtF_4wami5store6memory8identity4roleNtNtBa_4wami17InMemoryWamiStoreNtNtNtNtBc_6traits8identity4role9RoleStore18detach_role_policy00Be_
FNDA:0,_RNCNCNvXNtNtNtNtCs9VsQExrgwtF_4wami5store6memory8identity4roleNtNtBa_4wami17InMemoryWamiStoreNtNtNtNtBc_6traits8identity4role9RoleStore18list_role_policies00Be_
FNDA:0,_RNvXNtNtNtNtCs9VsQExrgwtF_4wami5store6memory8identity4roleNtNtB6_4wami17InMemoryWamiStoreNtNtNtNtB8_6traits8identity4role9RoleStore15get_role_policy
FNDA:0,_RNvXNtNtNtNtCs9VsQExrgwtF_4wami5store6memory8identity4roleNtNtB6_4wami17InMemoryWamiStoreNtNtNtNtB8_6traits8identity4role9RoleStore15put_role_policy
FNDA:0,_RNvXNtNtNtNtCs9VsQExrgwtF_4wami5store6memory8identity4roleNtNtB6_4wami17InMemoryWamiStoreNtNtNtNtB8_6traits8identity4role9RoleStore18attach_role_policy
FNDA:0,_RNvXNtNtNtNtCs9VsQExrgwtF_4wami5store6memory8identity4roleNtNtB6_4wami17InMemoryWamiStoreNtNtNtNtB8_6traits8identity4role9RoleStore18delete_role_policy
FNDA:0,_RNvXNtNtNtNtCs9VsQExrgwtF_4wami5store6memory8identity4roleNtNtB6_4wami17InMemoryWamiStoreNtNtNtNtB8_6traits8identity4role9RoleStore18detach_role_policy
FNDA:0,_RNvXNtNtNtNtCs9VsQExrgwtF_4wami5store6memory8identity4roleNtNtB6_4wami17InMemoryWamiStoreNtNtNtNtB8_6traits8identity4role9RoleStore18list_role_policies
FNDA:0,_RNvXNtNtNtNtCs9VsQExrgwtF_4wami5store6memory8identity4roleNtNtB6_4wami17InMemoryWamiStoreNtNtNtNtB8_6traits8identity4role9RoleStore27list_attached_role_policies
FNDA:9,_RNvXNtNtNtNtCs9VsQExrgwtF_4wami5store6memory8identity4roleNtNtB6_4wami17InMemoryWamiStoreNtNtNtNtB8_6traits8identity4role9RoleStore10list_roles
FNDA:23,_RNvXNtNtNtNtCs9VsQExrgwtF_4wami5store6memory8identity4roleNtNtB6_4wami17InMemoryWamiStoreNtNtNtNtB8_6traits8identity4role9RoleStore11create_role
FNDA:2,_RNvXNtNtNtNtCs9VsQExrgwtF_4wami5store6memory8identity4roleNtNtB6_4wami17InMemoryWamiStoreNtNtNtNtB8_6traits8identity4role9RoleStore11delete_role
FNDA:4,_RNvXNtNtNtNtCs9VsQExrgwtF_4wami5store6memory8identity4roleNtNtB6_4wami17InMemoryWamiStoreNtNtNtNtB8_6traits8identity4role9RoleStore11update_role
FNDA:10,_RNvXNtNtNtNtCs9VsQExrgwtF_4wami5store6memory8identity4roleNtNtB6_4wami17InMemoryWamiStoreNtNtNtNtB8_6traits8identity4role9RoleStore8get_role
FNDA:5,_RNCNCNvXNtNtNtNtCs9VsQExrgwtF_4wami5store6memory8identity4roleNtNtBa_4wami17InMemoryWamiStoreNtNtNtNtBc_6traits8identity4role9RoleStore10list_roles00Be_
FNDA:6,_RNCNCNvXNtNtNtNtCs9VsQExrgwtF_4wami5store6memory8identity4roleNtNtBa_4wami17InMemoryWamiStoreNtNtNtNtBc_6traits8identity4role9RoleStore10list_roles0s_0Be_
FNF:17
FNH:7
DA:12,23
DA:15,23
DA:17,10
DA:19,10
DA:21,4
DA:24,4
DA:26,2
DA:29,2
DA:35,9
DA:39,5
DA:42,6
DA:58,9
DA:61,0
DA:71,0
DA:73,0
DA:75,0
DA:78,0
DA:80,0
DA:86,0
DA:94,0
DA:102,0
DA:104,0
DA:108,0
DA:109,0
DA:111,0
DA:116,0
DA:118,0
DA:122,0
DA:124,0
BRF:0
BRH:0
LF:29
LH:12
end_of_record
SF:/Users/lsh/projects/crates/wami/src/store/memory/identity/service_linked_role.rs
FN:23,_RNvXNtNtNtNtCs9VsQExrgwtF_4wami5store6memory8identity19service_linked_roleNtNtB6_4wami17InMemoryWamiStoreNtNtNtNtB8_6traits8identity19service_linked_role22ServiceLinkedRoleStore37get_service_linked_role_deletion_task
FN:14,_RNvXNtNtNtNtCs9VsQExrgwtF_4wami5store6memory8identity19service_linked_roleNtNtB6_4wami17InMemoryWamiStoreNtNtNtNtB8_6traits8identity19service_linked_role22ServiceLinkedRoleStore40create_service_linked_role_deletion_task
FNDA:3,_RNvXNtNtNtNtCs9VsQExrgwtF_4wami5store6memory8identity19service_linked_roleNtNtB6_4wami17InMemoryWamiStoreNtNtNtNtB8_6traits8identity19service_linked_role22ServiceLinkedRoleStore37get_service_linked_role_deletion_task
FNDA:1,_RNvXNtNtNtNtCs9VsQExrgwtF_4wami5store6memory8identity19service_linked_roleNtNtB6_4wami17InMemoryWamiStoreNtNtNtNtB8_6traits8identity19service_linked_role22ServiceLinkedRoleStore40create_service_linked_role_deletion_task
FNF:2
FNH:2
DA:14,1
DA:18,1
DA:23,3
DA:28,3
BRF:0
BRH:0
LF:4
LH:4
end_of_record
SF:/Users/lsh/projects/crates/wami/src/store/memory/identity/tests.rs
FN:151,_RNCNCNvNtNtNtNtCs9VsQExrgwtF_4wami5store6memory8identity5testss_31test_user_list_with_path_prefix00Bd_
FN:254,_RNCNvNtNtNtNtCs9VsQExrgwtF_4wami5store6memory8identity5testss_15test_group_list0Bb_
FN:361,_RNCNvNtNtNtNtCs9VsQExrgwtF_4wami5store6memory8identity5testss_16test_role_delete0Bb_
FN:333,_RNCNvNtNtNtNtCs9VsQExrgwtF_4wami5store6memory8identity5testss_16test_role_update0Bb_
FN:80,_RNCNvNtNtNtNtCs9VsQExrgwtF_4wami5store6memory8identity5testss_16test_user_delete0Bb_
FN:59,_RNCNvNtNtNtNtCs9VsQExrgwtF_4wami5store6memory8identity5testss_16test_user_update0Bb_
FN:239,_RNCNvNtNtNtNtCs9VsQExrgwtF_4wami5store6memory8identity5testss_17test_group_delete0Bb_
FN:98,_RNCNvNtNtNtNtCs9VsQExrgwtF_4wami5store6memory8identity5testss_20test_user_list_empty0Bb_
FN:384,_RNCNvNtNtNtNtCs9VsQExrgwtF_4wami5store6memory8identity5testss_23test_role_list_multiple0Bb_
FN:109,_RNCNvNtNtNtNtCs9VsQExrgwtF_4wami5store6memory8identity5testss_23test_user_list_multiple0Bb_
FN:306,_RNCNvNtNtNtNtCs9VsQExrgwtF_4wami5store6memory8identity5testss_24test_role_create_and_get0Bb_
FN:33,_RNCNvNtNtNtNtCs9VsQExrgwtF_4wami5store6memory8identity5testss_24test_user_create_and_get0Bb_
FN:180,_RNCNvNtNtNtNtCs9VsQExrgwtF_4wami5store6memory8identity5testss_24test_user_tag_operations0Bb_
FN:223,_RNCNvNtNtNtNtCs9VsQExrgwtF_4wami5store6memory8identity5testss_25test_group_create_and_get0Bb_
FN:51,_RNCNvNtNtNtNtCs9VsQExrgwtF_4wami5store6memory8identity5testss_25test_user_get_nonexistent0Bb_
FN:271,_RNCNvNtNtNtNtCs9VsQExrgwtF_4wami5store6memory8identity5testss_26test_group_user_membership0Bb_
FN:409,_RNCNvNtNtNtNtCs9VsQExrgwtF_4wami5store6memory8identity5testss_26test_role_with_path_prefix0Bb_
FN:155,_RNCNvNtNtNtNtCs9VsQExrgwtF_4wami5store6memory8identity5testss_30test_user_list_with_pagination0Bb_
FN:130,_RNCNvNtNtNtNtCs9VsQExrgwtF_4wami5store6memory8identity5testss_31test_user_list_with_path_prefix0Bb_
FN:447,_RNCNvNtNtNtNtCs9VsQExrgwtF_4wami5store6memory8identity5testss_38test_service_linked_role_deletion_task0Bb_
FN:471,_RNCNvNtNtNtNtCs9VsQExrgwtF_4wami5store6memory8identity5testss_50test_service_linked_role_deletion_task_nonexistent0Bb_
FN:15,_RNvNtNtNtNtCs9VsQExrgwtF_4wami5store6memory8identity5tests12test_context
FN:254,_RNvNtNtNtNtCs9VsQExrgwtF_4wami5store6memory8identity5testss_15test_group_list
FN:361,_RNvNtNtNtNtCs9VsQExrgwtF_4wami5store6memory8identity5testss_16test_role_delete
FN:333,_RNvNtNtNtNtCs9VsQExrgwtF_4wami5store6memory8identity5testss_16test_role_update
FN:80,_RNvNtNtNtNtCs9VsQExrgwtF_4wami5store6memory8identity5testss_16test_user_delete
FN:59,_RNvNtNtNtNtCs9VsQExrgwtF_4wami5store6memory8identity5testss_16test_user_update
FN:239,_RNvNtNtNtNtCs9VsQExrgwtF_4wami5store6memory8identity5testss_17test_group_delete
FN:98,_RNvNtNtNtNtCs9VsQExrgwtF_4wami5store6memory8identity5testss_20test_user_list_empty
FN:384,_RNvNtNtNtNtCs9VsQExrgwtF_4wami5store6memory8identity5testss_23test_role_list_multiple
FN:109,_RNvNtNtNtNtCs9VsQExrgwtF_4wami5store6memory8identity5testss_23test_user_list_multiple
FN:306,_RNvNtNtNtNtCs9VsQExrgwtF_4wami5store6memory8identity5testss_24test_role_create_and_get
FN:33,_RNvNtNtNtNtCs9VsQExrgwtF_4wami5store6memory8identity5testss_24test_user_create_and_get
FN:180,_RNvNtNtNtNtCs9VsQExrgwtF_4wami5store6memory8identity5testss_24test_user_tag_operations
FN:223,_RNvNtNtNtNtCs9VsQExrgwtF_4wami5store6memory8identity5testss_25test_group_create_and_get
FN:51,_RNvNtNtNtNtCs9VsQExrgwtF_4wami5store6memory8identity5testss_25test_user_get_nonexistent
FN:271,_RNvNtNtNtNtCs9VsQExrgwtF_4wami5store6memory8identity5testss_26test_group_user_membership
FN:409,_RNvNtNtNtNtCs9VsQExrgwtF_4wami5store6memory8identity5testss_26test_role_with_path_prefix
FN:155,_RNvNtNtNtNtCs9VsQExrgwtF_4wami5store6memory8identity5testss_30test_user_list_with_pagination
FN:130,_RNvNtNtNtNtCs9VsQExrgwtF_4wami5store6memory8identity5testss_31test_user_list_with_path_prefix
FN:447,_RNvNtNtNtNtCs9VsQExrgwtF_4wami5store6memory8identity5testss_38test_service_linked_role_deletion_task
FN:471,_RNvNtNtNtNtCs9VsQExrgwtF_4wami5store6memory8identity5testss_50test_service_linked_role_deletion_task_nonexistent
FNDA:2,_RNCNCNvNtNtNtNtCs9VsQExrgwtF_4wami5store6memory8identity5testss_31test_user_list_with_path_prefix00Bd_
FNDA:1,_RNCNvNtNtNtNtCs9VsQExrgwtF_4wami5store6memory8identity5testss_15test_group_list0Bb_
FNDA:1,_RNCNvNtNtNtNtCs9VsQExrgwtF_4wami5store6memory8identity5testss_16test_role_delete0Bb_
FNDA:1,_RNCNvNtNtNtNtCs9VsQExrgwtF_4wami5store6memory8identity5testss_16test_role_update0Bb_
FNDA:1,_RNCNvNtNtNtNtCs9VsQExrgwtF_4wami5store6memory8identity5testss_16test_user_delete0Bb_
FNDA:1,_RNCNvNtNtNtNtCs9VsQExrgwtF_4wami5store6memory8identity5testss_16test_user_update0Bb_
FNDA:1,_RNCNvNtNtNtNtCs9VsQExrgwtF_4wami5store6memory8identity5testss_17test_group_delete0Bb_
FNDA:1,_RNCNvNtNtNtNtCs9VsQExrgwtF_4wami5store6memory8identity5testss_20test_user_list_empty0Bb_
FNDA:1,_RNCNvNtNtNtNtCs9VsQExrgwtF_4wami5store6memory8identity5testss_23test_role_list_multiple0Bb_
FNDA:1,_RNCNvNtNtNtNtCs9VsQExrgwtF_4wami5store6memory8identity5testss_23test_user_list_multiple0Bb_
FNDA:1,_RNCNvNtNtNtNtCs9VsQExrgwtF_4wami5store6memory8identity5testss_24test_role_create_and_get0Bb_
FNDA:1,_RNCNvNtNtNtNtCs9VsQExrgwtF_4wami5store6memory8identity5testss_24test_user_create_and_get0Bb_
FNDA:1,_RNCNvNtNtNtNtCs9VsQExrgwtF_4wami5store6memory8identity5testss_24test_user_tag_operations0Bb_
FNDA:1,_RNCNvNtNtNtNtCs9VsQExrgwtF_4wami5store6memory8identity5testss_25test_group_create_and_get0Bb_
FNDA:1,_RNCNvNtNtNtNtCs9VsQExrgwtF_4wami5store6memory8identity5testss_25test_user_get_nonexistent0Bb_
FNDA:1,_RNCNvNtNtNtNtCs9VsQExrgwtF_4wami5store6memory8identity5testss_26test_group_user_membership0Bb_
FNDA:1,_RNCNvNtNtNtNtCs9VsQExrgwtF_4wami5store6memory8identity5testss_26test_role_with_path_prefix0Bb_
FNDA:1,_RNCNvNtNtNtNtCs9VsQExrgwtF_4wami5store6memory8identity5testss_30test_user_list_with_pagination0Bb_
FNDA:1,_RNCNvNtNtNtNtCs9VsQExrgwtF_4wami5store6memory8identity5testss_31test_user_list_with_path_prefix0Bb_
FNDA:1,_RNCNvNtNtNtNtCs9VsQExrgwtF_4wami5store6memory8identity5testss_38test_service_linked_role_deletion_task0Bb_
FNDA:1,_RNCNvNtNtNtNtCs9VsQExrgwtF_4wami5store6memory8identity5testss_50test_service_linked_role_deletion_task_nonexistent0Bb_
FNDA:17,_RNvNtNtNtNtCs9VsQExrgwtF_4wami5store6memory8identity5tests12test_context
FNDA:1,_RNvNtNtNtNtCs9VsQExrgwtF_4wami5store6memory8identity5testss_15test_group_list
FNDA:1,_RNvNtNtNtNtCs9VsQExrgwtF_4wami5store6memory8identity5testss_16test_role_delete
FNDA:1,_RNvNtNtNtNtCs9VsQExrgwtF_4wami5store6memory8identity5testss_16test_role_update
FNDA:1,_RNvNtNtNtNtCs9VsQExrgwtF_4wami5store6memory8identity5testss_16test_user_delete
FNDA:1,_RNvNtNtNtNtCs9VsQExrgwtF_4wami5store6memory8identity5testss_16test_user_update
FNDA:1,_RNvNtNtNtNtCs9VsQExrgwtF_4wami5store6memory8identity5testss_17test_group_delete
FNDA:1,_RNvNtNtNtNtCs9VsQExrgwtF_4wami5store6memory8identity5testss_20test_user_list_empty
FNDA:1,_RNvNtNtNtNtCs9VsQExrgwtF_4wami5store6memory8identity5testss_23test_role_list_multiple
FNDA:1,_RNvNtNtNtNtCs9VsQExrgwtF_4wami5store6memory8identity5testss_23test_user_list_multiple
FNDA:1,_RNvNtNtNtNtCs9VsQExrgwtF_4wami5store6memory8identity5testss_24test_role_create_and_get
FNDA:1,_RNvNtNtNtNtCs9VsQExrgwtF_4wami5store6memory8identity5testss_24test_user_create_and_get
FNDA:1,_RNvNtNtNtNtCs9VsQExrgwtF_4wami5store6memory8identity5testss_24test_user_tag_operations
FNDA:1,_RNvNtNtNtNtCs9VsQExrgwtF_4wami5store6memory8identity5testss_25test_group_create_and_get
FNDA:1,_RNvNtNtNtNtCs9VsQExrgwtF_4wami5store6memory8identity5testss_25test_user_get_nonexistent
FNDA:1,_RNvNtNtNtNtCs9VsQExrgwtF_4wami5store6memory8identity5testss_26test_group_user_membership
FNDA:1,_RNvNtNtNtNtCs9VsQExrgwtF_4wami5store6memory8identity5testss_26test_role_with_path_prefix
FNDA:1,_RNvNtNtNtNtCs9VsQExrgwtF_4wami5store6memory8identity5testss_30test_user_list_with_pagination
FNDA:1,_RNvNtNtNtNtCs9VsQExrgwtF_4wami5store6memory8identity5testss_31test_user_list_with_path_prefix
FNDA:1,_RNvNtNtNtNtCs9VsQExrgwtF_4wami5store6memory8identity5testss_38test_service_linked_role_deletion_task
FNDA:1,_RNvNtNtNtNtCs9VsQExrgwtF_4wami5store6memory8identity5testss_50test_service_linked_role_deletion_task_nonexistent
FNF:42
FNH:42
DA:15,17
DA:16,17
DA:17,17
DA:18,17
DA:19,17
DA:20,17
DA:21,17
DA:22,17
DA:23,17
DA:24,17
DA:25,17
DA:26,17
DA:33,1
DA:34,1
DA:35,1
DA:37,1
DA:38,1
DA:41,1
DA:42,1
DA:45,1
DA:46,1
DA:47,1
DA:48,1
DA:51,1
DA:52,1
DA:54,1
DA:55,1
DA:56,1
DA:59,1
DA:60,1
DA:61,1
DA:63,1
DA:64,1
DA:66,1
DA:69,1
DA:70,1
DA:72,1
DA:75,1
DA:76,1
DA:77,1
DA:80,1
DA:81,1
DA:82,1
DA:84,1
DA:85,1
DA:87,1
DA:90,1
DA:93,1
DA:94,1
DA:95,1
DA:98,1
DA:99,1
DA:101,1
DA:103,1
DA:104,1
DA:105,1
DA:106,1
DA:109,1
DA:110,1
DA:111,1
DA:114,5
DA:115,4
DA:116,4
DA:117,4
DA:120,1
DA:122,1
DA:123,1
DA:125,1
DA:126,1
DA:127,1
DA:130,1
DA:131,1
DA:132,1
DA:134,1
DA:135,1
DA:136,1
DA:137,1
DA:138,1
DA:139,1
DA:140,1
DA:141,1
DA:142,1
DA:144,1
DA:145,1
DA:146,1
DA:148,1
DA:150,1
DA:151,2
DA:152,1
DA:155,1
DA:156,1
DA:157,1
DA:160,11
DA:161,10
DA:162,10
DA:163,10
DA:164,10
DA:167,1
DA:168,1
DA:169,1
DA:170,1
DA:172,1
DA:174,1
DA:175,1
DA:176,1
DA:177,1
DA:180,1
DA:181,1
DA:182,1
DA:184,1
DA:185,1
DA:187,1
DA:190,1
DA:191,1
DA:192,1
DA:193,1
DA:194,1
DA:195,1
DA:196,1
DA:197,1
DA:198,1
DA:201,1
DA:204,1
DA:205,1
DA:208,1
DA:209,1
DA:210,1
DA:211,1
DA:213,1
DA:214,1
DA:215,1
DA:216,1
DA:223,1
DA:224,1
DA:225,1
DA:227,1
DA:228,1
DA:230,1
DA:231,1
DA:233,1
DA:234,1
DA:235,1
DA:236,1
DA:239,1
DA:240,1
DA:241,1
DA:243,1
DA:244,1
DA:246,1
DA:247,1
DA:249,1
DA:250,1
DA:251,1
DA:254,1
DA:255,1
DA:256,1
DA:258,4
DA:259,3
DA:260,3
DA:261,3
DA:264,1
DA:266,1
DA:267,1
DA:268,1
DA:271,1
DA:272,1
DA:273,1
DA:275,1
DA:276,1
DA:277,1
DA:278,1
DA:280,1
DA:281,1
DA:284,1
DA:287,1
DA:288,1
DA:289,1
DA:292,1
DA:293,1
DA:294,1
DA:295,1
DA:297,1
DA:298,1
DA:299,1
DA:306,1
DA:307,1
DA:308,1
DA:310,1
DA:311,1
DA:312,1
DA:313,1
DA:314,1
DA:315,1
DA:316,1
DA:317,1
DA:319,1
DA:321,1
DA:322,1
DA:324,1
DA:325,1
DA:326,1
DA:327,1
DA:328,1
DA:329,1
DA:330,1
DA:333,1
DA:334,1
DA:335,1
DA:337,1
DA:338,1
DA:339,1
DA:340,1
DA:341,1
DA:342,1
DA:343,1
DA:344,1
DA:346,1
DA:348,1
DA:350,1
DA:351,1
DA:353,1
DA:354,1
DA:355,1
DA:356,1
DA:357,1
DA:358,1
DA:361,1
DA:362,1
DA:363,1
DA:365,1
DA:366,1
DA:367,1
DA:368,1
DA:369,1
DA:370,1
DA:371,1
DA:372,1
DA:374,1
DA:376,1
DA:377,1
DA:379,1
DA:380,1
DA:381,1
DA:384,1
DA:385,1
DA:386,1
DA:387,1
DA:389,4
DA:390,3
DA:391,3
DA:392,3
DA:393,3
DA:394,3
DA:395,3
DA:396,3
DA:398,3
DA:399,3
DA:402,1
DA:404,1
DA:405,1
DA:406,1
DA:409,1
DA:410,1
DA:411,1
DA:412,1
DA:414,1
DA:415,1
DA:416,1
DA:417,1
DA:418,1
DA:419,1
DA:420,1
DA:422,1
DA:423,1
DA:424,1
DA:425,1
DA:426,1
DA:427,1
DA:428,1
DA:429,1
DA:431,1
DA:433,1
DA:434,1
DA:436,1
DA:438,1
DA:439,1
DA:440,1
DA:447,1
DA:448,1
DA:449,1
DA:451,1
DA:453,1
DA:456,1
DA:457,1
DA:458,1
DA:459,1
DA:462,1
DA:463,1
DA:464,1
DA:465,1
DA:466,1
DA:467,1
DA:468,1
DA:471,1
DA:472,1
DA:474,1
DA:475,1
DA:476,1
DA:477,1
DA:478,1
DA:479,1
BRF:0
BRH:0
LF:355
LH:355
end_of_record
SF:/Users/lsh/projects/crates/wami/src/store/memory/identity/user.rs
FN:137,_RNCNCNvXNtNtNtNtCs9VsQExrgwtF_4wami5store6memory8identity4userNtNtBa_4wami17InMemoryWamiStoreNtNtNtNtBc_6traits8identity4user9UserStore15get_user_policy00Be_
FN:104,_RNCNCNvXNtNtNtNtCs9VsQExrgwtF_4wami5store6memory8identity4userNtNtBa_4wami17InMemoryWamiStoreNtNtNtNtBc_6traits8identity4user9UserStore18detach_user_policy00Be_
FN:151,_RNCNCNvXNtNtNtNtCs9VsQExrgwtF_4wami5store6memory8identity4userNtNtBa_4wami17InMemoryWamiStoreNtNtNtNtBc_6traits8identity4user9UserStore18list_user_policies00Be_
FN:133,_RNvXNtNtNtNtCs9VsQExrgwtF_4wami5store6memory8identity4userNtNtB6_4wami17InMemoryWamiStoreNtNtNtNtB8_6traits8identity4user9UserStore15get_user_policy
FN:123,_RNvXNtNtNtNtCs9VsQExrgwtF_4wami5store6memory8identity4userNtNtB6_4wami17InMemoryWamiStoreNtNtNtNtB8_6traits8identity4user9UserStore15put_user_policy
FN:90,_RNvXNtNtNtNtCs9VsQExrgwtF_4wami5store6memory8identity4userNtNtB6_4wami17InMemoryWamiStoreNtNtNtNtB8_6traits8identity4user9UserStore18attach_user_policy
FN:140,_RNvXNtNtNtNtCs9VsQExrgwtF_4wami5store6memory8identity4userNtNtB6_4wami17InMemoryWamiStoreNtNtNtNtB8_6traits8identity4user9UserStore18delete_user_policy
FN:102,_RNvXNtNtNtNtCs9VsQExrgwtF_4wami5store6memory8identity4userNtNtB6_4wami17InMemoryWamiStoreNtNtNtNtB8_6traits8identity4user9UserStore18detach_user_policy
FN:147,_RNvXNtNtNtNtCs9VsQExrgwtF_4wami5store6memory8identity4userNtNtB6_4wami17InMemoryWamiStoreNtNtNtNtB8_6traits8identity4user9UserStore18list_user_policies
FN:109,_RNvXNtNtNtNtCs9VsQExrgwtF_4wami5store6memory8identity4userNtNtB6_4wami17InMemoryWamiStoreNtNtNtNtB8_6traits8identity4user9UserStore27list_attached_user_policies
FN:39,_RNvXNtNtNtNtCs9VsQExrgwtF_4wami5store6memory8identity4userNtNtB6_4wami17InMemoryWamiStoreNtNtNtNtB8_6traits8identity4user9UserStore10list_users
FN:82,_RNvXNtNtNtNtCs9VsQExrgwtF_4wami5store6memory8identity4userNtNtB6_4wami17InMemoryWamiStoreNtNtNtNtB8_6traits8identity4user9UserStore10untag_user
FN:12,_RNvXNtNtNtNtCs9VsQExrgwtF_4wami5store6memory8identity4userNtNtB6_4wami17InMemoryWamiStoreNtNtNtNtB8_6traits8identity4user9UserStore11create_user
FN:26,_RNvXNtNtNtNtCs9VsQExrgwtF_4wami5store6memory8identity4userNtNtB6_4wami17InMemoryWamiStoreNtNtNtNtB8_6traits8identity4user9UserStore11delete_user
FN:21,_RNvXNtNtNtNtCs9VsQExrgwtF_4wami5store6memory8identity4userNtNtB6_4wami17InMemoryWamiStoreNtNtNtNtB8_6traits8identity4user9UserStore11update_user
FN:74,_RNvXNtNtNtNtCs9VsQExrgwtF_4wami5store6memory8identity4userNtNtB6_4wami17InMemoryWamiStoreNtNtNtNtB8_6traits8identity4user9UserStore14list_user_tags
FN:17,_RNvXNtNtNtNtCs9VsQExrgwtF_4wami5store6memory8identity4userNtNtB6_4wami17InMemoryWamiStoreNtNtNtNtB8_6traits8identity4user9UserStore8get_user
FN:67,_RNvXNtNtNtNtCs9VsQExrgwtF_4wami5store6memory8identity4userNtNtB6_4wami17InMemoryWamiStoreNtNtNtNtB8_6traits8identity4user9UserStore8tag_user
FN:44,_RNCNCNvXNtNtNtNtCs9VsQExrgwtF_4wami5store6memory8identity4userNtNtBa_4wami17InMemoryWamiStoreNtNtNtNtBc_6traits8identity4user9UserStore10list_users00Be_
FN:48,_RNCNCNvXNtNtNtNtCs9VsQExrgwtF_4wami5store6memory8identity4userNtNtBa_4wami17InMemoryWamiStoreNtNtNtNtBc_6traits8identity4user9UserStore10list_users0s_0Be_
FN:84,_RNCNCNvXNtNtNtNtCs9VsQExrgwtF_4wami5store6memory8identity4userNtNtBa_4wami17InMemoryWamiStoreNtNtNtNtBc_6traits8identity4user9UserStore10untag_user00Be_
FN:29,_RNCNCNvXNtNtNtNtCs9VsQExrgwtF_4wami5store6memory8identity4userNtNtBa_4wami17InMemoryWamiStoreNtNtNtNtBc_6traits8identity4user9UserStore11delete_user00Be_
FN:78,_RNCNCNvXNtNtNtNtCs9VsQExrgwtF_4wami5store6memory8identity4userNtNtBa_4wami17InMemoryWamiStoreNtNtNtNtBc_6traits8identity4user9UserStore14list_user_tags00Be_
FNDA:0,_RNCNCNvXNtNtNtNtCs9VsQExrgwtF_4wami5store6memory8identity4userNtNtBa_4wami17InMemoryWamiStoreNtNtNtNtBc_6traits8identity4user9UserStore15get_user_policy00Be_
FNDA:0,_RNCNCNvXNtNtNtNtCs9VsQExrgwtF_4wami5store6memory8identity4userNtNtBa_4wami17InMemoryWamiStoreNtNtNtNtBc_6traits8identity4user9UserStore18detach_user_policy00Be_
FNDA:0,_RNCNCNvXNtNtNtNtCs9VsQExrgwtF_4wami5store6memory8identity4userNtNtBa_4wami17InMemoryWamiStoreNtNtNtNtBc_6traits8identity4user9UserStore18list_user_policies00Be_
FNDA:0,_RNvXNtNtNtNtCs9VsQExrgwtF_4wami5store6memory8identity4userNtNtB6_4wami17InMemoryWamiStoreNtNtNtNtB8_6traits8identity4user9UserStore15get_user_policy
FNDA:0,_RNvXNtNtNtNtCs9VsQExrgwtF_4wami5store6memory8identity4userNtNtB6_4wami17InMemoryWamiStoreNtNtNtNtB8_6traits8identity4user9UserStore15put_user_policy
FNDA:0,_RNvXNtNtNtNtCs9VsQExrgwtF_4wami5store6memory8identity4userNtNtB6_4wami17InMemoryWamiStoreNtNtNtNtB8_6traits8identity4user9UserStore18attach_user_policy
FNDA:0,_RNvXNtNtNtNtCs9VsQExrgwtF_4wami5store6memory8identity4userNtNtB6_4wami17InMemoryWamiStoreNtNtNtNtB8_6traits8identity4user9UserStore18delete_user_policy
FNDA:0,_RNvXNtNtNtNtCs9VsQExrgwtF_4wami5store6memory8identity4userNtNtB6_4wami17InMemoryWamiStoreNtNtNtNtB8_6traits8identity4user9UserStore18detach_user_policy
FNDA:0,_RNvXNtNtNtNtCs9VsQExrgwtF_4wami5store6memory8identity4userNtNtB6_4wami17InMemoryWamiStoreNtNtNtNtB8_6traits8identity4user9UserStore18list_user_policies
FNDA:0,_RNvXNtNtNtNtCs9VsQExrgwtF_4wami5store6memory8identity4userNtNtB6_4wami17InMemoryWamiStoreNtNtNtNtB8_6traits8identity4user9UserStore27list_attached_user_policies
FNDA:9,_RNvXNtNtNtNtCs9VsQExrgwtF_4wami5store6memory8identity4userNtNtB6_4wami17InMemoryWamiStoreNtNtNtNtB8_6traits8identity4user9UserStore10list_users
FNDA:2,_RNvXNtNtNtNtCs9VsQExrgwtF_4wami5store6memory8identity4userNtNtB6_4wami17InMemoryWamiStoreNtNtNtNtB8_6traits8identity4user9UserStore10untag_user
FNDA:50,_RNvXNtNtNtNtCs9VsQExrgwtF_4wami5store6memory8identity4userNtNtB6_4wami17InMemoryWamiStoreNtNtNtNtB8_6traits8identity4user9UserStore11create_user
FNDA:2,_RNvXNtNtNtNtCs9VsQExrgwtF_4wami5store6memory8identity4userNtNtB6_4wami17InMemoryWamiStoreNtNtNtNtB8_6traits8identity4user9UserStore11delete_user
FNDA:2,_RNvXNtNtNtNtCs9VsQExrgwtF_4wami5store6memory8identity4userNtNtB6_4wami17InMemoryWamiStoreNtNtNtNtB8_6traits8identity4user9UserStore11update_user
FNDA:4,_RNvXNtNtNtNtCs9VsQExrgwtF_4wami5store6memory8identity4userNtNtB6_4wami17InMemoryWamiStoreNtNtNtNtB8_6traits8identity4user9UserStore14list_user_tags
FNDA:18,_RNvXNtNtNtNtCs9VsQExrgwtF_4wami5store6memory8identity4userNtNtB6_4wami17InMemoryWamiStoreNtNtNtNtB8_6traits8identity4user9UserStore8get_user
FNDA:2,_RNvXNtNtNtNtCs9VsQExrgwtF_4wami5store6memory8identity4userNtNtB6_4wami17InMemoryWamiStoreNtNtNtNtB8_6traits8identity4user9UserStore8tag_user
FNDA:6,_RNCNCNvXNtNtNtNtCs9VsQExrgwtF_4wami5store6memory8identity4userNtNtBa_4wami17InMemoryWamiStoreNtNtNtNtBc_6traits8identity4user9UserStore10list_users00Be_
FNDA:37,_RNCNCNvXNtNtNtNtCs9VsQExrgwtF_4wami5store6memory8identity4userNtNtBa_4wami17InMemoryWamiStoreNtNtNtNtBc_6traits8identity4user9UserStore10list_users0s_0Be_
FNDA:3,_RNCNCNvXNtNtNtNtCs9VsQExrgwtF_4wami5store6memory8identity4userNtNtBa_4wami17InMemoryWamiStoreNtNtNtNtBc_6traits8identity4user9UserStore10untag_user00Be_
FNDA:0,_RNCNCNvXNtNtNtNtCs9VsQExrgwtF_4wami5store6memory8identity4userNtNtBa_4wami17InMemoryWamiStoreNtNtNtNtBc_6traits8identity4user9UserStore11delete_user00Be_
FNDA:4,_RNCNCNvXNtNtNtNtCs9VsQExrgwtF_4wami5store6memory8identity4userNtNtBa_4wami17InMemoryWamiStoreNtNtNtNtBc_6traits8identity4user9UserStore14list_user_tags00Be_
FNF:23
FNH:12
DA:12,50
DA:15,50
DA:17,18
DA:19,18
DA:21,2
DA:24,2
DA:26,2
DA:29,0
DA:33,2
DA:39,9
DA:44,6
DA:48,37
DA:65,9
DA:67,2
DA:72,2
DA:74,4
DA:78,4
DA:80,4
DA:82,2
DA:84,3
DA:87,2
DA:90,0
DA:100,0
DA:102,0
DA:104,0
DA:107,0
DA:109,0
DA:115,0
DA:123,0
DA:131,0
DA:133,0
DA:137,0
DA:138,0
DA:140,0
DA:145,0
DA:147,0
DA:151,0
DA:153,0
BRF:0
BRH:0
LF:38
LH:20
end_of_record
SF:/Users/lsh/projects/crates/wami/src/store/memory/policies/policy.rs
FN:17,_RNvXNtNtNtNtCs9VsQExrgwtF_4wami5store6memory8policies6policyNtNtB6_4wami17InMemoryWamiStoreNtNtNtNtB8_6traits8policies6policy11PolicyStore10get_policy
FN:12,_RNvXNtNtNtNtCs9VsQExrgwtF_4wami5store6memory8policies6policyNtNtB6_4wami17InMemoryWamiStoreNtNtNtNtB8_6traits8policies6policy11PolicyStore13create_policy
FN:26,_RNvXNtNtNtNtCs9VsQExrgwtF_4wami5store6memory8policies6policyNtNtB6_4wami17InMemoryWamiStoreNtNtNtNtB8_6traits8policies6policy11PolicyStore13delete_policy
FN:35,_RNvXNtNtNtNtCs9VsQExrgwtF_4wami5store6memory8policies6policyNtNtB6_4wami17InMemoryWamiStoreNtNtNtNtB8_6traits8policies6policy11PolicyStore13list_policies
FN:21,_RNvXNtNtNtNtCs9VsQExrgwtF_4wami5store6memory8policies6policyNtNtB6_4wami17InMemoryWamiStoreNtNtNtNtB8_6traits8policies6policy11PolicyStore13update_policy
FN:39,_RNCNCNvXNtNtNtNtCs9VsQExrgwtF_4wami5store6memory8policies6policyNtNtBa_4wami17InMemoryWamiStoreNtNtNtNtBc_6traits8policies6policy11PolicyStore13list_policies00Be_
FN:55,_RNCNCNvXNtNtNtNtCs9VsQExrgwtF_4wami5store6memory8policies6policyNtNtBa_4wami17InMemoryWamiStoreNtNtNtNtBc_6traits8policies6policy11PolicyStore13list_policies0s0_0Be_
FN:64,_RNCNCNvXNtNtNtNtCs9VsQExrgwtF_4wami5store6memory8policies6policyNtNtBa_4wami17InMemoryWamiStoreNtNtNtNtBc_6traits8policies6policy11PolicyStore13list_policies0s1_0Be_
FN:50,_RNCNCNvXNtNtNtNtCs9VsQExrgwtF_4wami5store6memory8policies6policyNtNtBa_4wami17InMemoryWamiStoreNtNtNtNtBc_6traits8policies6policy11PolicyStore13list_policies0s_0Be_
FNDA:11,_RNvXNtNtNtNtCs9VsQExrgwtF_4wami5store6memory8policies6policyNtNtB6_4wami17InMemoryWamiStoreNtNtNtNtB8_6traits8policies6policy11PolicyStore10get_policy
FNDA:22,_RNvXNtNtNtNtCs9VsQExrgwtF_4wami5store6memory8policies6policyNtNtB6_4wami17InMemoryWamiStoreNtNtNtNtB8_6traits8policies6policy11PolicyStore13create_policy
FNDA:2,_RNvXNtNtNtNtCs9VsQExrgwtF_4wami5store6memory8policies6policyNtNtB6_4wami17InMemoryWamiStoreNtNtNtNtB8_6traits8policies6policy11PolicyStore13delete_policy
FNDA:7,_RNvXNtNtNtNtCs9VsQExrgwtF_4wami5store6memory8policies6policyNtNtB6_4wami17InMemoryWamiStoreNtNtNtNtB8_6traits8policies6policy11PolicyStore13list_policies
FNDA:2,_RNvXNtNtNtNtCs9VsQExrgwtF_4wami5store6memory8policies6policyNtNtB6_4wami17InMemoryWamiStoreNtNtNtNtB8_6traits8policies6policy11PolicyStore13update_policy
FNDA:13,_RNCNCNvXNtNtNtNtCs9VsQExrgwtF_4wami5store6memory8policies6policyNtNtBa_4wami17InMemoryWamiStoreNtNtNtNtBc_6traits8policies6policy11PolicyStore13list_policies00Be_
FNDA:0,_RNCNCNvXNtNtNtNtCs9VsQExrgwtF_4wami5store6memory8policies6policyNtNtBa_4wami17InMemoryWamiStoreNtNtNtNtBc_6traits8policies6policy11PolicyStore13list_policies0s0_0Be_
FNDA:1,_RNCNCNvXNtNtNtNtCs9VsQExrgwtF_4wami5store6memory8policies6policyNtNtBa_4wami17InMemoryWamiStoreNtNtNtNtBc_6traits8policies6policy11PolicyStore13list_policies0s1_0Be_
FNDA:14,_RNCNCNvXNtNtNtNtCs9VsQExrgwtF_4wami5store6memory8policies6policyNtNtBa_4wami17InMemoryWamiStoreNtNtNtNtBc_6traits8policies6policy11PolicyStore13list_policies0s_0Be_
FNF:9
FNH:8
DA:12,22
DA:15,22
DA:17,11
DA:19,11
DA:21,2
DA:24,2
DA:26,2
DA:29,2
DA:35,7
DA:39,13
DA:40,13
DA:41,2
DA:43,11
DA:45,13
DA:50,14
DA:55,0
DA:64,1
DA:74,7
BRF:0
BRH:0
LF:18
LH:17
end_of_record
SF:/Users/lsh/projects/crates/wami/src/store/memory/policies/tests.rs
FN:95,_RNCNvNtNtNtNtCs9VsQExrgwtF_4wami5store6memory8policies5testss_18test_policy_delete0Bb_
FN:63,_RNCNvNtNtNtNtCs9VsQExrgwtF_4wami5store6memory8policies5testss_18test_policy_update0Bb_
FN:122,_RNCNvNtNtNtNtCs9VsQExrgwtF_4wami5store6memory8policies5testss_22test_policy_list_empty0Bb_
FN:133,_RNCNvNtNtNtNtCs9VsQExrgwtF_4wami5store6memory8policies5testss_25test_policy_list_multiple0Bb_
FN:24,_RNCNvNtNtNtNtCs9VsQExrgwtF_4wami5store6memory8policies5testss_26test_policy_create_and_get0Bb_
FN:52,_RNCNvNtNtNtNtCs9VsQExrgwtF_4wami5store6memory8policies5testss_27test_policy_get_nonexistent0Bb_
FN:192,_RNCNvNtNtNtNtCs9VsQExrgwtF_4wami5store6memory8policies5testss_32test_policy_list_with_pagination0Bb_
FN:158,_RNCNvNtNtNtNtCs9VsQExrgwtF_4wami5store6memory8policies5testss_33test_policy_list_with_path_prefix0Bb_
FN:10,_RNvNtNtNtNtCs9VsQExrgwtF_4wami5store6memory8policies5tests12test_context
FN:95,_RNvNtNtNtNtCs9VsQExrgwtF_4wami5store6memory8policies5testss_18test_policy_delete
FN:63,_RNvNtNtNtNtCs9VsQExrgwtF_4wami5store6memory8policies5testss_18test_policy_update
FN:122,_RNvNtNtNtNtCs9VsQExrgwtF_4wami5store6memory8policies5testss_22test_policy_list_empty
FN:133,_RNvNtNtNtNtCs9VsQExrgwtF_4wami5store6memory8policies5testss_25test_policy_list_multiple
FN:24,_RNvNtNtNtNtCs9VsQExrgwtF_4wami5store6memory8policies5testss_26test_policy_create_and_get
FN:52,_RNvNtNtNtNtCs9VsQExrgwtF_4wami5store6memory8policies5testss_27test_policy_get_nonexistent
FN:192,_RNvNtNtNtNtCs9VsQExrgwtF_4wami5store6memory8policies5testss_32test_policy_list_with_pagination
FN:158,_RNvNtNtNtNtCs9VsQExrgwtF_4wami5store6memory8policies5testss_33test_policy_list_with_path_prefix
FNDA:1,_RNCNvNtNtNtNtCs9VsQExrgwtF_4wami5store6memory8policies5testss_18test_policy_delete0Bb_
FNDA:1,_RNCNvNtNtNtNtCs9VsQExrgwtF_4wami5store6memory8policies5testss_18test_policy_update0Bb_
FNDA:1,_RNCNvNtNtNtNtCs9VsQExrgwtF_4wami5store6memory8policies5testss_22test_policy_list_empty0Bb_
FNDA:1,_RNCNvNtNtNtNtCs9VsQExrgwtF_4wami5store6memory8policies5testss_25test_policy_list_multiple0Bb_
FNDA:1,_RNCNvNtNtNtNtCs9VsQExrgwtF_4wami5store6memory8policies5testss_26test_policy_create_and_get0Bb_
FNDA:1,_RNCNvNtNtNtNtCs9VsQExrgwtF_4wami5store6memory8policies5testss_27test_policy_get_nonexistent0Bb_
FNDA:1,_RNCNvNtNtNtNtCs9VsQExrgwtF_4wami5store6memory8policies5testss_32test_policy_list_with_pagination0Bb_
FNDA:1,_RNCNvNtNtNtNtCs9VsQExrgwtF_4wami5store6memory8policies5testss_33test_policy_list_with_path_prefix0Bb_
FNDA:6,_RNvNtNtNtNtCs9VsQExrgwtF_4wami5store6memory8policies5tests12test_context
FNDA:1,_RNvNtNtNtNtCs9VsQExrgwtF_4wami5store6memory8policies5testss_18test_policy_delete
FNDA:1,_RNvNtNtNtNtCs9VsQExrgwtF_4wami5store6memory8policies5testss_18test_policy_update
FNDA:1,_RNvNtNtNtNtCs9VsQExrgwtF_4wami5store6memory8policies5testss_22test_policy_list_empty
FNDA:1,_RNvNtNtNtNtCs9VsQExrgwtF_4wami5store6memory8policies5testss_25test_policy_list_multiple
FNDA:1,_RNvNtNtNtNtCs9VsQExrgwtF_4wami5store6memory8policies5testss_26test_policy_create_and_get
FNDA:1,_RNvNtNtNtNtCs9VsQExrgwtF_4wami5store6memory8policies5testss_27test_policy_get_nonexistent
FNDA:1,_RNvNtNtNtNtCs9VsQExrgwtF_4wami5store6memory8policies5testss_32test_policy_list_with_pagination
FNDA:1,_RNvNtNtNtNtCs9VsQExrgwtF_4wami5store6memory8policies5testss_33test_policy_list_with_path_prefix
FNF:17
FNH:17
DA:10,6
DA:11,6
DA:12,6
DA:13,6
DA:14,6
DA:15,6
DA:16,6
DA:17,6
DA:18,6
DA:19,6
DA:20,6
DA:21,6
DA:24,1
DA:25,1
DA:26,1
DA:28,1
DA:29,1
DA:30,1
DA:31,1
DA:32,1
DA:33,1
DA:34,1
DA:35,1
DA:37,1
DA:39,1
DA:42,1
DA:43,1
DA:46,1
DA:47,1
DA:48,1
DA:49,1
DA:52,1
DA:53,1
DA:55,1
DA:56,1
DA:57,1
DA:58,1
DA:59,1
DA:60,1
DA:63,1
DA:64,1
DA:65,1
DA:67,1
DA:68,1
DA:69,1
DA:70,1
DA:71,1
DA:72,1
DA:73,1
DA:74,1
DA:76,1
DA:78,1
DA:79,1
DA:82,1
DA:83,1
DA:84,1
DA:87,1
DA:88,1
DA:89,1
DA:90,1
DA:91,1
DA:92,1
DA:95,1
DA:96,1
DA:97,1
DA:99,1
DA:100,1
DA:101,1
DA:102,1
DA:103,1
DA:104,1
DA:105,1
DA:106,1
DA:108,1
DA:110,1
DA:111,1
DA:114,1
DA:117,1
DA:118,1
DA:119,1
DA:122,1
DA:123,1
DA:125,1
DA:127,1
DA:128,1
DA:129,1
DA:130,1
DA:133,1
DA:134,1
DA:135,1
DA:136,1
DA:138,4
DA:139,3
DA:140,3
DA:141,3
DA:142,3
DA:143,3
DA:144,3
DA:145,3
DA:147,3
DA:148,3
DA:151,1
DA:153,1
DA:154,1
DA:155,1
DA:158,1
DA:159,1
DA:160,1
DA:161,1
DA:163,1
DA:164,1
DA:165,1
DA:166,1
DA:167,1
DA:168,1
DA:169,1
DA:171,1
DA:172,1
DA:173,1
DA:174,1
DA:175,1
DA:176,1
DA:177,1
DA:178,1
DA:180,1
DA:182,1
DA:183,1
DA:185,1
DA:187,1
DA:188,1
DA:189,1
DA:192,1
DA:193,1
DA:194,1
DA:195,1
DA:198,6
DA:199,5
DA:200,5
DA:201,5
DA:202,5
DA:203,5
DA:204,5
DA:205,5
DA:207,5
DA:208,5
DA:211,1
DA:212,1
DA:213,1
DA:214,1
DA:216,1
DA:217,1
DA:219,1
DA:220,1
DA:221,1
DA:222,1
BRF:0
BRH:0
LF:172
LH:172
end_of_record
SF:/Users/lsh/projects/crates/wami/src/store/memory/reports/credential_report.rs
FN:16,_RNvXNtNtNtNtCs9VsQExrgwtF_4wami5store6memory7reports17credential_reportNtNtB6_4wami17InMemoryWamiStoreNtNtNtNtB8_6traits7reports17credential_report21CredentialReportStore21get_credential_report
FN:11,_RNvXNtNtNtNtCs9VsQExrgwtF_4wami5store6memory7reports17credential_reportNtNtB6_4wami17InMemoryWamiStoreNtNtNtNtB8_6traits7reports17credential_report21CredentialReportStore23store_credential_report
FNDA:8,_RNvXNtNtNtNtCs9VsQExrgwtF_4wami5store6memory7reports17credential_reportNtNtB6_4wami17InMemoryWamiStoreNtNtNtNtB8_6traits7reports17credential_report21CredentialReportStore21get_credential_report
FNDA:7,_RNvXNtNtNtNtCs9VsQExrgwtF_4wami5store6memory7reports17credential_reportNtNtB6_4wami17InMemoryWamiStoreNtNtNtNtB8_6traits7reports17credential_report21CredentialReportStore23store_credential_report
FNF:2
FNH:2
DA:11,7
DA:14,7
DA:16,8
DA:18,8
BRF:0
BRH:0
LF:4
LH:4
end_of_record
SF:/Users/lsh/projects/crates/wami/src/store/memory/reports/tests.rs
FN:32,_RNvNtNtNtNtCs9VsQExrgwtF_4wami5store6memory7reports5testss_30test_credential_report_replace
FN:24,_RNvNtNtNtNtCs9VsQExrgwtF_4wami5store6memory7reports5testss_32test_credential_report_get_empty
FN:8,_RNvNtNtNtNtCs9VsQExrgwtF_4wami5store6memory7reports5testss_36test_credential_report_store_and_get
FN:49,_RNvNtNtNtNtCs9VsQExrgwtF_4wami5store6memory7reports5testss_41test_credential_report_complete_lifecycle
FN:32,_RNCNvNtNtNtNtCs9VsQExrgwtF_4wami5store6memory7reports5testss_30test_credential_report_replace0Bb_
FN:24,_RNCNvNtNtNtNtCs9VsQExrgwtF_4wami5store6memory7reports5testss_32test_credential_report_get_empty0Bb_
FN:8,_RNCNvNtNtNtNtCs9VsQExrgwtF_4wami5store6memory7reports5testss_36test_credential_report_store_and_get0Bb_
FN:49,_RNCNvNtNtNtNtCs9VsQExrgwtF_4wami5store6memory7reports5testss_41test_credential_report_complete_lifecycle0Bb_
FNDA:1,_RNvNtNtNtNtCs9VsQExrgwtF_4wami5store6memory7reports5testss_30test_credential_report_replace
FNDA:1,_RNvNtNtNtNtCs9VsQExrgwtF_4wami5store6memory7reports5testss_32test_credential_report_get_empty
FNDA:1,_RNvNtNtNtNtCs9VsQExrgwtF_4wami5store6memory7reports5testss_36test_credential_report_store_and_get
FNDA:1,_RNvNtNtNtNtCs9VsQExrgwtF_4wami5store6memory7reports5testss_41test_credential_report_complete_lifecycle
FNDA:1,_RNCNvNtNtNtNtCs9VsQExrgwtF_4wami5store6memory7reports5testss_30test_credential_report_replace0Bb_
FNDA:1,_RNCNvNtNtNtNtCs9VsQExrgwtF_4wami5store6memory7reports5testss_32test_credential_report_get_empty0Bb_
FNDA:1,_RNCNvNtNtNtNtCs9VsQExrgwtF_4wami5store6memory7reports5testss_36test_credential_report_store_and_get0Bb_
FNDA:1,_RNCNvNtNtNtNtCs9VsQExrgwtF_4wami5store6memory7reports5testss_41test_credential_report_complete_lifecycle0Bb_
FNF:8
FNH:8
DA:8,1
DA:9,1
DA:11,1
DA:12,1
DA:15,1
DA:18,1
DA:19,1
DA:20,1
DA:21,1
DA:24,1
DA:25,1
DA:27,1
DA:28,1
DA:29,1
DA:32,1
DA:33,1
DA:35,1
DA:36,1
DA:39,1
DA:40,1
DA:41,1
DA:44,1
DA:45,1
DA:46,1
DA:49,1
DA:50,1
DA:53,1
DA:56,1
DA:57,1
DA:58,1
DA:61,1
DA:62,1
DA:63,1
DA:66,1
DA:67,1
DA:68,1
DA:71,1
DA:72,1
DA:73,1
DA:74,1
BRF:0
BRH:0
LF:48
LH:48
end_of_record
SF:/Users/lsh/projects/crates/wami/src/store/memory/sso_admin/account_assignment.rs
FN:44,_RNCNCNvXNtNtNtNtCs9VsQExrgwtF_4wami5store6memory9sso_admin18account_assignmentNtB8_21InMemorySsoAdminStoreNtNtNtNtBc_6traits9sso_admin18account_assignment22AccountAssignmentStore24list_account_assignments00Be_
FN:27,_RNvXNtNtNtNtCs9VsQExrgwtF_4wami5store6memory9sso_admin18account_assignmentNtB4_21InMemorySsoAdminStoreNtNtNtNtB8_6traits9sso_admin18account_assignment22AccountAssignmentStore22get_account_assignment
FN:40,_RNvXNtNtNtNtCs9VsQExrgwtF_4wami5store6memory9sso_admin18account_assignmentNtB4_21InMemorySsoAdminStoreNtNtNtNtB8_6traits9sso_admin18account_assignment22AccountAssignmentStore24list_account_assignments
FN:14,_RNvXNtNtNtNtCs9VsQExrgwtF_4wami5store6memory9sso_admin18account_assignmentNtB4_21InMemorySsoAdminStoreNtNtNtNtB8_6traits9sso_admin18account_assignment22AccountAssignmentStore25create_account_assignment
FN:31,_RNvXNtNtNtNtCs9VsQExrgwtF_4wami5store6memory9sso_admin18account_assignmentNtB4_21InMemorySsoAdminStoreNtNtNtNtB8_6traits9sso_admin18account_assignment22AccountAssignmentStore25delete_account_assignment
FN:69,_RNvXs_NtNtNtNtCs9VsQExrgwtF_4wami5store6memory9sso_admin18account_assignmentNtNtB8_4wami17InMemoryWamiStoreNtNtNtNtBa_6traits9sso_admin18account_assignment22AccountAssignmentStore22get_account_assignment
FN:82,_RNvXs_NtNtNtNtCs9VsQExrgwtF_4wami5store6memory9sso_admin18account_assignmentNtNtB8_4wami17InMemoryWamiStoreNtNtNtNtBa_6traits9sso_admin18account_assignment22AccountAssignmentStore24list_account_assignments
FN:60,_RNvXs_NtNtNtNtCs9VsQExrgwtF_4wami5store6memory9sso_admin18account_assignmentNtNtB8_4wami17InMemoryWamiStoreNtNtNtNtBa_6traits9sso_admin18account_assignment22AccountAssignmentStore25create_account_assignment
FN:73,_RNvXs_NtNtNtNtCs9VsQExrgwtF_4wami5store6memory9sso_admin18account_assignmentNtNtB8_4wami17InMemoryWamiStoreNtNtNtNtBa_6traits9sso_admin18account_assignment22AccountAssignmentStore25delete_account_assignment
FN:86,_RNCNCNvXs_NtNtNtNtCs9VsQExrgwtF_4wami5store6memory9sso_admin18account_assignmentNtNtBc_4wami17InMemoryWamiStoreNtNtNtNtBe_6traits9sso_admin18account_assignment22AccountAssignmentStore24list_account_assignments00Bg_
FNDA:0,_RNCNCNvXNtNtNtNtCs9VsQExrgwtF_4wami5store6memory9sso_admin18account_assignmentNtB8_21InMemorySsoAdminStoreNtNtNtNtBc_6traits9sso_admin18account_assignment22AccountAssignmentStore24list_account_assignments00Be_
FNDA:0,_RNvXNtNtNtNtCs9VsQExrgwtF_4wami5store6memory9sso_admin18account_assignmentNtB4_21InMemorySsoAdminStoreNtNtNtNtB8_6traits9sso_admin18account_assignment22AccountAssignmentStore22get_account_assignment
FNDA:0,_RNvXNtNtNtNtCs9VsQExrgwtF_4wami5store6memory9sso_admin18account_assignmentNtB4_21InMemorySsoAdminStoreNtNtNtNtB8_6traits9sso_admin18account_assignment22AccountAssignmentStore24list_account_assignments
FNDA:0,_RNvXNtNtNtNtCs9VsQExrgwtF_4wami5store6memory9sso_admin18account_assignmentNtB4_21InMemorySsoAdminStoreNtNtNtNtB8_6traits9sso_admin18account_assignment22AccountAssignmentStore25create_account_assignment
FNDA:0,_RNvXNtNtNtNtCs9VsQExrgwtF_4wami5store6memory9sso_admin18account_assignmentNtB4_21InMemorySsoAdminStoreNtNtNtNtB8_6traits9sso_admin18account_assignment22AccountAssignmentStore25delete_account_assignment
FNDA:2,_RNvXs_NtNtNtNtCs9VsQExrgwtF_4wami5store6memory9sso_admin18account_assignmentNtNtB8_4wami17InMemoryWamiStoreNtNtNtNtBa_6traits9sso_admin18account_assignment22AccountAssignmentStore22get_account_assignment
FNDA:1,_RNvXs_NtNtNtNtCs9VsQExrgwtF_4wami5store6memory9sso_admin18account_assignmentNtNtB8_4wami17InMemoryWamiStoreNtNtNtNtBa_6traits9sso_admin18account_assignment22AccountAssignmentStore24list_account_assignments
FNDA:4,_RNvXs_NtNtNtNtCs9VsQExrgwtF_4wami5store6memory9sso_admin18account_assignmentNtNtB8_4wami17InMemoryWamiStoreNtNtNtNtBa_6traits9sso_admin18account_assignment22AccountAssignmentStore25create_account_assignment
FNDA:1,_RNvXs_NtNtNtNtCs9VsQExrgwtF_4wami5store6memory9sso_admin18account_assignmentNtNtB8_4wami17InMemoryWamiStoreNtNtNtNtBa_6traits9sso_admin18account_assignment22AccountAssignmentStore25delete_account_assignment
FNDA:2,_RNCNCNvXs_NtNtNtNtCs9VsQExrgwtF_4wami5store6memory9sso_admin18account_assignmentNtNtBc_4wami17InMemoryWamiStoreNtNtNtNtBe_6traits9sso_admin18account_assignment22AccountAssignmentStore24list_account_assignments00Bg_
FNF:10
FNH:5
DA:14,0
DA:22,0
DA:27,0
DA:29,0
DA:31,0
DA:34,0
DA:40,0
DA:44,0
DA:45,0
DA:46,0
DA:47,0
DA:51,0
DA:60,4
DA:64,4
DA:69,2
DA:71,2
DA:73,1
DA:76,1
DA:82,1
DA:86,2
DA:89,1
BRF:0
BRH:0
LF:21
LH:9
end_of_record
SF:/Users/lsh/projects/crates/wami/src/store/memory/sso_admin/application.rs
FN:17,_RNvXNtNtNtNtCs9VsQExrgwtF_4wami5store6memory9sso_admin11applicationNtB4_21InMemorySsoAdminStoreNtNtNtNtB8_6traits9sso_admin11application16ApplicationStore15get_application
FN:21,_RNvXNtNtNtNtCs9VsQExrgwtF_4wami5store6memory9sso_admin11applicationNtB4_21InMemorySsoAdminStoreNtNtNtNtB8_6traits9sso_admin11application16ApplicationStore17list_applications
FN:11,_RNvXNtNtNtNtCs9VsQExrgwtF_4wami5store6memory9sso_admin11applicationNtB4_21InMemorySsoAdminStoreNtNtNtNtB8_6traits9sso_admin11application16ApplicationStore18create_application
FN:35,_RNvXs_NtNtNtNtCs9VsQExrgwtF_4wami5store6memory9sso_admin11applicationNtNtB8_4wami17InMemoryWamiStoreNtNtNtNtBa_6traits9sso_admin11application16ApplicationStore15get_application
FN:39,_RNvXs_NtNtNtNtCs9VsQExrgwtF_4wami5store6memory9sso_admin11applicationNtNtB8_4wami17InMemoryWamiStoreNtNtNtNtBa_6traits9sso_admin11application16ApplicationStore17list_applications
FN:29,_RNvXs_NtNtNtNtCs9VsQExrgwtF_4wami5store6memory9sso_admin11applicationNtNtB8_4wami17InMemoryWamiStoreNtNtNtNtBa_6traits9sso_admin11application16ApplicationStore18create_application
FN:43,_RNCNCNvXs_NtNtNtNtCs9VsQExrgwtF_4wami5store6memory9sso_admin11applicationNtNtBc_4wami17InMemoryWamiStoreNtNtNtNtBe_6traits9sso_admin11application16ApplicationStore17list_applications00Bg_
FNDA:0,_RNvXNtNtNtNtCs9VsQExrgwtF_4wami5store6memory9sso_admin11applicationNtB4_21InMemorySsoAdminStoreNtNtNtNtB8_6traits9sso_admin11application16ApplicationStore15get_application
FNDA:0,_RNvXNtNtNtNtCs9VsQExrgwtF_4wami5store6memory9sso_admin11applicationNtB4_21InMemorySsoAdminStoreNtNtNtNtB8_6traits9sso_admin11application16ApplicationStore17list_applications
FNDA:0,_RNvXNtNtNtNtCs9VsQExrgwtF_4wami5store6memory9sso_admin11applicationNtB4_21InMemorySsoAdminStoreNtNtNtNtB8_6traits9sso_admin11application16ApplicationStore18create_application
FNDA:1,_RNvXs_NtNtNtNtCs9VsQExrgwtF_4wami5store6memory9sso_admin11applicationNtNtB8_4wami17InMemoryWamiStoreNtNtNtNtBa_6traits9sso_admin11application16ApplicationStore15get_application
FNDA:1,_RNvXs_NtNtNtNtCs9VsQExrgwtF_4wami5store6memory9sso_admin11applicationNtNtB8_4wami17InMemoryWamiStoreNtNtNtNtBa_6traits9sso_admin11application16ApplicationStore17list_applications
FNDA:3,_RNvXs_NtNtNtNtCs9VsQExrgwtF_4wami5store6memory9sso_admin11applicationNtNtB8_4wami17InMemoryWamiStoreNtNtNtNtBa_6traits9sso_admin11application16ApplicationStore18create_application
FNDA:2,_RNCNCNvXs_NtNtNtNtCs9VsQExrgwtF_4wami5store6memory9sso_admin11applicationNtNtBc_4wami17InMemoryWamiStoreNtNtNtNtBe_6traits9sso_admin11application16ApplicationStore17list_applications00Bg_
FNF:7
FNH:4
DA:11,0
DA:15,0
DA:17,0
DA:19,0
DA:21,0
DA:23,0
DA:29,3
DA:33,3
DA:35,1
DA:37,1
DA:39,1
DA:43,2
DA:46,1
BRF:0
BRH:0
LF:13
LH:7
end_of_record
SF:/Users/lsh/projects/crates/wami/src/store/memory/sso_admin/instance.rs
FN:17,_RNvXNtNtNtNtCs9VsQExrgwtF_4wami5store6memory9sso_admin8instanceNtB4_21InMemorySsoAdminStoreNtNtNtNtB8_6traits9sso_admin8instance16SsoInstanceStore12get_instance
FN:21,_RNvXNtNtNtNtCs9VsQExrgwtF_4wami5store6memory9sso_admin8instanceNtB4_21InMemorySsoAdminStoreNtNtNtNtB8_6traits9sso_admin8instance16SsoInstanceStore14list_instances
FN:11,_RNvXNtNtNtNtCs9VsQExrgwtF_4wami5store6memory9sso_admin8instanceNtB4_21InMemorySsoAdminStoreNtNtNtNtB8_6traits9sso_admin8instance16SsoInstanceStore15create_instance
FN:35,_RNvXs_NtNtNtNtCs9VsQExrgwtF_4wami5store6memory9sso_admin8instanceNtNtB8_4wami17InMemoryWamiStoreNtNtNtNtBa_6traits9sso_admin8instance16SsoInstanceStore12get_instance
FN:39,_RNvXs_NtNtNtNtCs9VsQExrgwtF_4wami5store6memory9sso_admin8instanceNtNtB8_4wami17InMemoryWamiStoreNtNtNtNtBa_6traits9sso_admin8instance16SsoInstanceStore14list_instances
FN:29,_RNvXs_NtNtNtNtCs9VsQExrgwtF_4wami5store6memory9sso_admin8instanceNtNtB8_4wami17InMemoryWamiStoreNtNtNtNtBa_6traits9sso_admin8instance16SsoInstanceStore15create_instance
FNDA:0,_RNvXNtNtNtNtCs9VsQExrgwtF_4wami5store6memory9sso_admin8instanceNtB4_21InMemorySsoAdminStoreNtNtNtNtB8_6traits9sso_admin8instance16SsoInstanceStore12get_instance
FNDA:0,_RNvXNtNtNtNtCs9VsQExrgwtF_4wami5store6memory9sso_admin8instanceNtB4_21InMemorySsoAdminStoreNtNtNtNtB8_6traits9sso_admin8instance16SsoInstanceStore14list_instances
FNDA:0,_RNvXNtNtNtNtCs9VsQExrgwtF_4wami5store6memory9sso_admin8instanceNtB4_21InMemorySsoAdminStoreNtNtNtNtB8_6traits9sso_admin8instance16SsoInstanceStore15create_instance
FNDA:1,_RNvXs_NtNtNtNtCs9VsQExrgwtF_4wami5store6memory9sso_admin8instanceNtNtB8_4wami17InMemoryWamiStoreNtNtNtNtBa_6traits9sso_admin8instance16SsoInstanceStore12get_instance
FNDA:1,_RNvXs_NtNtNtNtCs9VsQExrgwtF_4wami5store6memory9sso_admin8instanceNtNtB8_4wami17InMemoryWamiStoreNtNtNtNtBa_6traits9sso_admin8instance16SsoInstanceStore14list_instances
FNDA:3,_RNvXs_NtNtNtNtCs9VsQExrgwtF_4wami5store6memory9sso_admin8instanceNtNtB8_4wami17InMemoryWamiStoreNtNtNtNtBa_6traits9sso_admin8instance16SsoInstanceStore15create_instance
FNF:6
FNH:3
DA:11,0
DA:15,0
DA:17,0
DA:19,0
DA:21,0
DA:23,0
DA:29,3
DA:33,3
DA:35,1
DA:37,1
DA:39,1
DA:41,1
BRF:0
BRH:0
LF:12
LH:6
end_of_record
SF:/Users/lsh/projects/crates/wami/src/store/memory/sso_admin/permission_set.rs
FN:85,_RNCNCNvXs_NtNtNtNtCs9VsQExrgwtF_4wami5store6memory9sso_admin14permission_setNtNtBc_4wami17InMemoryWamiStoreNtNtNtNtBe_6traits9sso_admin14permission_set18PermissionSetStore20list_permission_sets00Bg_
FN:22,_RNvXNtNtNtNtCs9VsQExrgwtF_4wami5store6memory9sso_admin14permission_setNtB4_21InMemorySsoAdminStoreNtNtNtNtB8_6traits9sso_admin14permission_set18PermissionSetStore18get_permission_set
FN:42,_RNvXNtNtNtNtCs9VsQExrgwtF_4wami5store6memory9sso_admin14permission_setNtB4_21InMemorySsoAdminStoreNtNtNtNtB8_6traits9sso_admin14permission_set18PermissionSetStore20list_permission_sets
FN:14,_RNvXNtNtNtNtCs9VsQExrgwtF_4wami5store6memory9sso_admin14permission_setNtB4_21InMemorySsoAdminStoreNtNtNtNtB8_6traits9sso_admin14permission_set18PermissionSetStore21create_permission_set
FN:37,_RNvXNtNtNtNtCs9VsQExrgwtF_4wami5store6memory9sso_admin14permission_setNtB4_21InMemorySsoAdminStoreNtNtNtNtB8_6traits9sso_admin14permission_set18PermissionSetStore21delete_permission_set
FN:29,_RNvXNtNtNtNtCs9VsQExrgwtF_4wami5store6memory9sso_admin14permission_setNtB4_21InMemorySsoAdminStoreNtNtNtNtB8_6traits9sso_admin14permission_set18PermissionSetStore21update_permission_set
FN:61,_RNvXs_NtNtNtNtCs9VsQExrgwtF_4wami5store6memory9sso_admin14permission_setNtNtB8_4wami17InMemoryWamiStoreNtNtNtNtBa_6traits9sso_admin14permission_set18PermissionSetStore18get_permission_set
FN:81,_RNvXs_NtNtNtNtCs9VsQExrgwtF_4wami5store6memory9sso_admin14permission_setNtNtB8_4wami17InMemoryWamiStoreNtNtNtNtBa_6traits9sso_admin14permission_set18PermissionSetStore20list_permission_sets
FN:53,_RNvXs_NtNtNtNtCs9VsQExrgwtF_4wami5store6memory9sso_admin14permission_setNtNtB8_4wami17InMemoryWamiStoreNtNtNtNtBa_6traits9sso_admin14permission_set18PermissionSetStore21create_permission_set
FN:76,_RNvXs_NtNtNtNtCs9VsQExrgwtF_4wami5store6memory9sso_admin14permission_setNtNtB8_4wami17InMemoryWamiStoreNtNtNtNtBa_6traits9sso_admin14permission_set18PermissionSetStore21delete_permission_set
FN:68,_RNvXs_NtNtNtNtCs9VsQExrgwtF_4wami5store6memory9sso_admin14permission_setNtNtB8_4wami17InMemoryWamiStoreNtNtNtNtBa_6traits9sso_admin14permission_set18PermissionSetStore21update_permission_set
FNDA:2,_RNCNCNvXs_NtNtNtNtCs9VsQExrgwtF_4wami5store6memory9sso_admin14permission_setNtNtBc_4wami17InMemoryWamiStoreNtNtNtNtBe_6traits9sso_admin14permission_set18PermissionSetStore20list_permission_sets00Bg_
FNDA:0,_RNvXNtNtNtNtCs9VsQExrgwtF_4wami5store6memory9sso_admin14permission_setNtB4_21InMemorySsoAdminStoreNtNtNtNtB8_6traits9sso_admin14permission_set18PermissionSetStore18get_permission_set
FNDA:0,_RNvXNtNtNtNtCs9VsQExrgwtF_4wami5store6memory9sso_admin14permission_setNtB4_21InMemorySsoAdminStoreNtNtNtNtB8_6traits9sso_admin14permission_set18PermissionSetStore20list_permission_sets
FNDA:0,_RNvXNtNtNtNtCs9VsQExrgwtF_4wami5store6memory9sso_admin14permission_setNtB4_21InMemorySsoAdminStoreNtNtNtNtB8_6traits9sso_admin14permission_set18PermissionSetStore21create_permission_set
FNDA:0,_RNvXNtNtNtNtCs9VsQExrgwtF_4wami5store6memory9sso_admin14permission_setNtB4_21InMemorySsoAdminStoreNtNtNtNtB8_6traits9sso_admin14permission_set18PermissionSetStore21delete_permission_set
FNDA:0,_RNvXNtNtNtNtCs9VsQExrgwtF_4wami5store6memory9sso_admin14permission_setNtB4_21InMemorySsoAdminStoreNtNtNtNtB8_6traits9sso_admin14permission_set18PermissionSetStore21update_permission_set
FNDA:2,_RNvXs_NtNtNtNtCs9VsQExrgwtF_4wami5store6memory9sso_admin14permission_setNtNtB8_4wami17InMemoryWamiStoreNtNtNtNtBa_6traits9sso_admin14permission_set18PermissionSetStore18get_permission_set
FNDA:1,_RNvXs_NtNtNtNtCs9VsQExrgwtF_4wami5store6memory9sso_admin14permission_setNtNtB8_4wami17InMemoryWamiStoreNtNtNtNtBa_6traits9sso_admin14permission_set18PermissionSetStore20list_permission_sets
FNDA:5,_RNvXs_NtNtNtNtCs9VsQExrgwtF_4wami5store6memory9sso_admin14permission_setNtNtB8_4wami17InMemoryWamiStoreNtNtNtNtBa_6traits9sso_admin14permission_set18PermissionSetStore21create_permission_set
FNDA:1,_RNvXs_NtNtNtNtCs9VsQExrgwtF_4wami5store6memory9sso_admin14permission_setNtNtB8_4wami17InMemoryWamiStoreNtNtNtNtBa_6traits9sso_admin14permission_set18PermissionSetStore21delete_permission_set
FNDA:1,_RNvXs_NtNtNtNtCs9VsQExrgwtF_4wami5store6memory9sso_admin14permission_setNtNtB8_4wami17InMemoryWamiStoreNtNtNtNtBa_6traits9sso_admin14permission_set18PermissionSetStore21update_permission_set
FNF:11
FNH:6
DA:14,0
DA:20,0
DA:22,0
DA:24,0
DA:29,0
DA:35,0
DA:37,0
DA:40,0
DA:42,0
DA:44,0
DA:53,5
DA:59,5
DA:61,2
DA:63,2
DA:68,1
DA:74,1
DA:76,1
DA:79,1
DA:81,1
DA:85,2
DA:88,1
BRF:0
BRH:0
LF:21
LH:11
end_of_record
SF:/Users/lsh/projects/crates/wami/src/store/memory/sso_admin/trusted_token_issuer.rs
FN:23,_RNvXNtNtNtNtCs9VsQExrgwtF_4wami5store6memory9sso_admin20trusted_token_issuerNtB4_21InMemorySsoAdminStoreNtNtNtNtB8_6traits9sso_admin20trusted_token_issuer23TrustedTokenIssuerStore24get_trusted_token_issuer
FN:35,_RNvXNtNtNtNtCs9VsQExrgwtF_4wami5store6memory9sso_admin20trusted_token_issuerNtB4_21InMemorySsoAdminStoreNtNtNtNtB8_6traits9sso_admin20trusted_token_issuer23TrustedTokenIssuerStore26list_trusted_token_issuers
FN:14,_RNvXNtNtNtNtCs9VsQExrgwtF_4wami5store6memory9sso_admin20trusted_token_issuerNtB4_21InMemorySsoAdminStoreNtNtNtNtB8_6traits9sso_admin20trusted_token_issuer23TrustedTokenIssuerStore27create_trusted_token_issuer
FN:27,_RNvXNtNtNtNtCs9VsQExrgwtF_4wami5store6memory9sso_admin20trusted_token_issuerNtB4_21InMemorySsoAdminStoreNtNtNtNtB8_6traits9sso_admin20trusted_token_issuer23TrustedTokenIssuerStore27delete_trusted_token_issuer
FN:55,_RNvXs_NtNtNtNtCs9VsQExrgwtF_4wami5store6memory9sso_admin20trusted_token_issuerNtNtB8_4wami17InMemoryWamiStoreNtNtNtNtBa_6traits9sso_admin20trusted_token_issuer23TrustedTokenIssuerStore24get_trusted_token_issuer
FN:67,_RNvXs_NtNtNtNtCs9VsQExrgwtF_4wami5store6memory9sso_admin20trusted_token_issuerNtNtB8_4wami17InMemoryWamiStoreNtNtNtNtBa_6traits9sso_admin20trusted_token_issuer23TrustedTokenIssuerStore26list_trusted_token_issuers
FN:46,_RNvXs_NtNtNtNtCs9VsQExrgwtF_4wami5store6memory9sso_admin20trusted_token_issuerNtNtB8_4wami17InMemoryWamiStoreNtNtNtNtBa_6traits9sso_admin20trusted_token_issuer23TrustedTokenIssuerStore27create_trusted_token_issuer
FN:59,_RNvXs_NtNtNtNtCs9VsQExrgwtF_4wami5store6memory9sso_admin20trusted_token_issuerNtNtB8_4wami17InMemoryWamiStoreNtNtNtNtBa_6traits9sso_admin20trusted_token_issuer23TrustedTokenIssuerStore27delete_trusted_token_issuer
FN:71,_RNCNCNvXs_NtNtNtNtCs9VsQExrgwtF_4wami5store6memory9sso_admin20trusted_token_issuerNtNtBc_4wami17InMemoryWamiStoreNtNtNtNtBe_6traits9sso_admin20trusted_token_issuer23TrustedTokenIssuerStore26list_trusted_token_issuers00Bg_
FNDA:0,_RNvXNtNtNtNtCs9VsQExrgwtF_4wami5store6memory9sso_admin20trusted_token_issuerNtB4_21InMemorySsoAdminStoreNtNtNtNtB8_6traits9sso_admin20trusted_token_issuer23TrustedTokenIssuerStore24get_trusted_token_issuer
FNDA:0,_RNvXNtNtNtNtCs9VsQExrgwtF_4wami5store6memory9sso_admin20trusted_token_issuerNtB4_21InMemorySsoAdminStoreNtNtNtNtB8_6traits9sso_admin20trusted_token_issuer23TrustedTokenIssuerStore26list_trusted_token_issuers
FNDA:0,_RNvXNtNtNtNtCs9VsQExrgwtF_4wami5store6memory9sso_admin20trusted_token_issuerNtB4_21InMemorySsoAdminStoreNtNtNtNtB8_6traits9sso_admin20trusted_token_issuer23TrustedTokenIssuerStore27create_trusted_token_issuer
FNDA:0,_RNvXNtNtNtNtCs9VsQExrgwtF_4wami5store6memory9sso_admin20trusted_token_issuerNtB4_21InMemorySsoAdminStoreNtNtNtNtB8_6traits9sso_admin20trusted_token_issuer23TrustedTokenIssuerStore27delete_trusted_token_issuer
FNDA:2,_RNvXs_NtNtNtNtCs9VsQExrgwtF_4wami5store6memory9sso_admin20trusted_token_issuerNtNtB8_4wami17InMemoryWamiStoreNtNtNtNtBa_6traits9sso_admin20trusted_token_issuer23TrustedTokenIssuerStore24get_trusted_token_issuer
FNDA:1,_RNvXs_NtNtNtNtCs9VsQExrgwtF_4wami5store6memory9sso_admin20trusted_token_issuerNtNtB8_4wami17InMemoryWamiStoreNtNtNtNtBa_6traits9sso_admin20trusted_token_issuer23TrustedTokenIssuerStore26list_trusted_token_issuers
FNDA:4,_RNvXs_NtNtNtNtCs9VsQExrgwtF_4wami5store6memory9sso_admin20trusted_token_issuerNtNtB8_4wami17InMemoryWamiStoreNtNtNtNtBa_6traits9sso_admin20trusted_token_issuer23TrustedTokenIssuerStore27create_trusted_token_issuer
FNDA:1,_RNvXs_NtNtNtNtCs9VsQExrgwtF_4wami5store6memory9sso_admin20trusted_token_issuerNtNtB8_4wami17InMemoryWamiStoreNtNtNtNtBa_6traits9sso_admin20trusted_token_issuer23TrustedTokenIssuerStore27delete_trusted_token_issuer
FNDA:2,_RNCNCNvXs_NtNtNtNtCs9VsQExrgwtF_4wami5store6memory9sso_admin20trusted_token_issuerNtNtBc_4wami17InMemoryWamiStoreNtNtNtNtBe_6traits9sso_admin20trusted_token_issuer23TrustedTokenIssuerStore26list_trusted_token_issuers00Bg_
FNF:9
FNH:5
DA:14,0
DA:18,0
DA:23,0
DA:25,0
DA:27,0
DA:30,0
DA:35,0
DA:37,0
DA:46,4
DA:50,4
DA:55,2
DA:57,2
DA:59,1
DA:62,1
DA:67,1
DA:71,2
DA:74,1
BRF:0
BRH:0
LF:17
LH:9
end_of_record
SF:/Users/lsh/projects/crates/wami/src/store/memory/sts/identity.rs
FN:35,_RNvXs_NtNtNtNtCs9VsQExrgwtF_4wami5store6memory3sts8identityNtNtB8_4wami17InMemoryWamiStoreNtNtNtNtBa_6traits3sts8identity13IdentityStore12get_identity
FN:29,_RNvXs_NtNtNtNtCs9VsQExrgwtF_4wami5store6memory3sts8identityNtNtB8_4wami17InMemoryWamiStoreNtNtNtNtBa_6traits3sts8identity13IdentityStore15create_identity
FN:39,_RNvXs_NtNtNtNtCs9VsQExrgwtF_4wami5store6memory3sts8identityNtNtB8_4wami17InMemoryWamiStoreNtNtNtNtBa_6traits3sts8identity13IdentityStore15list_identities
FN:18,_RNvXNtNtNtNtCs9VsQExrgwtF_4wami5store6memory3sts8identityNtB4_16InMemoryStsStoreNtNtNtNtB8_6traits3sts8identity13IdentityStore12get_identity
FN:12,_RNvXNtNtNtNtCs9VsQExrgwtF_4wami5store6memory3sts8identityNtB4_16InMemoryStsStoreNtNtNtNtB8_6traits3sts8identity13IdentityStore15create_identity
FN:22,_RNvXNtNtNtNtCs9VsQExrgwtF_4wami5store6memory3sts8identityNtB4_16InMemoryStsStoreNtNtNtNtB8_6traits3sts8identity13IdentityStore15list_identities
FNDA:4,_RNvXs_NtNtNtNtCs9VsQExrgwtF_4wami5store6memory3sts8identityNtNtB8_4wami17InMemoryWamiStoreNtNtNtNtBa_6traits3sts8identity13IdentityStore12get_identity
FNDA:4,_RNvXs_NtNtNtNtCs9VsQExrgwtF_4wami5store6memory3sts8identityNtNtB8_4wami17InMemoryWamiStoreNtNtNtNtBa_6traits3sts8identity13IdentityStore15create_identity
FNDA:1,_RNvXs_NtNtNtNtCs9VsQExrgwtF_4wami5store6memory3sts8identityNtNtB8_4wami17InMemoryWamiStoreNtNtNtNtBa_6traits3sts8identity13IdentityStore15list_identities
FNDA:4,_RNvXNtNtNtNtCs9VsQExrgwtF_4wami5store6memory3sts8identityNtB4_16InMemoryStsStoreNtNtNtNtB8_6traits3sts8identity13IdentityStore12get_identity
FNDA:7,_RNvXNtNtNtNtCs9VsQExrgwtF_4wami5store6memory3sts8identityNtB4_16InMemoryStsStoreNtNtNtNtB8_6traits3sts8identity13IdentityStore15create_identity
FNDA:2,_RNvXNtNtNtNtCs9VsQExrgwtF_4wami5store6memory3sts8identityNtB4_16InMemoryStsStoreNtNtNtNtB8_6traits3sts8identity13IdentityStore15list_identities
FNF:6
FNH:6
DA:12,7
DA:16,7
DA:18,4
DA:20,4
DA:22,2
DA:24,2
DA:29,4
DA:33,4
DA:35,4
DA:37,4
DA:39,1
DA:41,1
BRF:0
BRH:0
LF:12
LH:12
end_of_record
SF:/Users/lsh/projects/crates/wami/src/store/memory/sts/mod.rs
FN:34,_RNvMNtNtNtCs9VsQExrgwtF_4wami5store6memory3stsNtB2_16InMemoryStsStore3new
FNDA:0,_RNvMNtNtNtCs9VsQExrgwtF_4wami5store6memory3stsNtB2_16InMemoryStsStore3new
FNF:1
FNH:0
DA:34,0
DA:35,0
DA:36,0
BRF:0
BRH:0
LF:3
LH:0
end_of_record
SF:/Users/lsh/projects/crates/wami/src/store/memory/sts/session.rs
FN:41,_RNvXs_NtNtNtNtCs9VsQExrgwtF_4wami5store6memory3sts7sessionNtNtB8_4wami17InMemoryWamiStoreNtNtNtNtBa_6traits3sts7session12SessionStore11get_session
FN:50,_RNvXs_NtNtNtNtCs9VsQExrgwtF_4wami5store6memory3sts7sessionNtNtB8_4wami17InMemoryWamiStoreNtNtNtNtBa_6traits3sts7session12SessionStore13list_sessions
FN:35,_RNvXs_NtNtNtNtCs9VsQExrgwtF_4wami5store6memory3sts7sessionNtNtB8_4wami17InMemoryWamiStoreNtNtNtNtBa_6traits3sts7session12SessionStore14create_session
FN:45,_RNvXs_NtNtNtNtCs9VsQExrgwtF_4wami5store6memory3sts7sessionNtNtB8_4wami17InMemoryWamiStoreNtNtNtNtBa_6traits3sts7session12SessionStore14delete_session
FN:18,_RNvXNtNtNtNtCs9VsQExrgwtF_4wami5store6memory3sts7sessionNtB4_16InMemoryStsStoreNtNtNtNtB8_6traits3sts7session12SessionStore11get_session
FN:27,_RNvXNtNtNtNtCs9VsQExrgwtF_4wami5store6memory3sts7sessionNtB4_16InMemoryStsStoreNtNtNtNtB8_6traits3sts7session12SessionStore13list_sessions
FN:12,_RNvXNtNtNtNtCs9VsQExrgwtF_4wami5store6memory3sts7sessionNtB4_16InMemoryStsStoreNtNtNtNtB8_6traits3sts7session12SessionStore14create_session
FN:22,_RNvXNtNtNtNtCs9VsQExrgwtF_4wami5store6memory3sts7sessionNtB4_16InMemoryStsStoreNtNtNtNtB8_6traits3sts7session12SessionStore14delete_session
FNDA:2,_RNvXs_NtNtNtNtCs9VsQExrgwtF_4wami5store6memory3sts7sessionNtNtB8_4wami17InMemoryWamiStoreNtNtNtNtBa_6traits3sts7session12SessionStore11get_session
FNDA:4,_RNvXs_NtNtNtNtCs9VsQExrgwtF_4wami5store6memory3sts7sessionNtNtB8_4wami17InMemoryWamiStoreNtNtNtNtBa_6traits3sts7session12SessionStore13list_sessions
FNDA:15,_RNvXs_NtNtNtNtCs9VsQExrgwtF_4wami5store6memory3sts7sessionNtNtB8_4wami17InMemoryWamiStoreNtNtNtNtBa_6traits3sts7session12SessionStore14create_session
FNDA:1,_RNvXs_NtNtNtNtCs9VsQExrgwtF_4wami5store6memory3sts7sessionNtNtB8_4wami17InMemoryWamiStoreNtNtNtNtBa_6traits3sts7session12SessionStore14delete_session
FNDA:5,_RNvXNtNtNtNtCs9VsQExrgwtF_4wami5store6memory3sts7sessionNtB4_16InMemoryStsStoreNtNtNtNtB8_6traits3sts7session12SessionStore11get_session
FNDA:2,_RNvXNtNtNtNtCs9VsQExrgwtF_4wami5store6memory3sts7sessionNtB4_16InMemoryStsStoreNtNtNtNtB8_6traits3sts7session12SessionStore13list_sessions
FNDA:7,_RNvXNtNtNtNtCs9VsQExrgwtF_4wami5store6memory3sts7sessionNtB4_16InMemoryStsStoreNtNtNtNtB8_6traits3sts7session12SessionStore14create_session
FNDA:1,_RNvXNtNtNtNtCs9VsQExrgwtF_4wami5store6memory3sts7sessionNtB4_16InMemoryStsStoreNtNtNtNtB8_6traits3sts7session12SessionStore14delete_session
FNF:8
FNH:8
DA:12,7
DA:16,7
DA:18,5
DA:20,5
DA:22,1
DA:25,1
DA:27,2
DA:30,2
DA:35,15
DA:39,15
DA:41,2
DA:43,2
DA:45,1
DA:48,1
DA:50,4
DA:53,4
BRF:0
BRH:0
LF:16
LH:16
end_of_record
SF:/Users/lsh/projects/crates/wami/src/store/memory/sts/tests.rs
FN:58,_RNCNvNtNtNtNtCs9VsQExrgwtF_4wami5store6memory3sts5testss_19test_session_delete0Bb_
FN:301,_RNCNvNtNtNtNtCs9VsQExrgwtF_4wami5store6memory3sts5testss_20test_identity_update0Bb_
FN:130,_RNCNvNtNtNtNtCs9VsQExrgwtF_4wami5store6memory3sts5testss_22test_session_with_role0Bb_
FN:91,_RNCNvNtNtNtNtCs9VsQExrgwtF_4wami5store6memory3sts5testss_23test_session_list_empty0Bb_
FN:244,_RNCNvNtNtNtNtCs9VsQExrgwtF_4wami5store6memory3sts5testss_24test_identity_list_empty0Bb_
FN:99,_RNCNvNtNtNtNtCs9VsQExrgwtF_4wami5store6memory3sts5testss_26test_session_list_multiple0Bb_
FN:252,_RNCNvNtNtNtNtCs9VsQExrgwtF_4wami5store6memory3sts5testss_27test_identity_list_multiple0Bb_
FN:17,_RNCNvNtNtNtNtCs9VsQExrgwtF_4wami5store6memory3sts5testss_27test_session_create_and_get0Bb_
FN:163,_RNCNvNtNtNtNtCs9VsQExrgwtF_4wami5store6memory3sts5testss_27test_session_with_providers0Bb_
FN:209,_RNCNvNtNtNtNtCs9VsQExrgwtF_4wami5store6memory3sts5testss_28test_identity_create_and_get0Bb_
FN:274,_RNCNvNtNtNtNtCs9VsQExrgwtF_4wami5store6memory3sts5testss_28test_identity_with_providers0Bb_
FN:50,_RNCNvNtNtNtNtCs9VsQExrgwtF_4wami5store6memory3sts5testss_28test_session_get_nonexistent0Bb_
FN:233,_RNCNvNtNtNtNtCs9VsQExrgwtF_4wami5store6memory3sts5testss_29test_identity_get_nonexistent0Bb_
FN:58,_RNvNtNtNtNtCs9VsQExrgwtF_4wami5store6memory3sts5testss_19test_session_delete
FN:301,_RNvNtNtNtNtCs9VsQExrgwtF_4wami5store6memory3sts5testss_20test_identity_update
FN:130,_RNvNtNtNtNtCs9VsQExrgwtF_4wami5store6memory3sts5testss_22test_session_with_role
FN:91,_RNvNtNtNtNtCs9VsQExrgwtF_4wami5store6memory3sts5testss_23test_session_list_empty
FN:244,_RNvNtNtNtNtCs9VsQExrgwtF_4wami5store6memory3sts5testss_24test_identity_list_empty
FN:99,_RNvNtNtNtNtCs9VsQExrgwtF_4wami5store6memory3sts5testss_26test_session_list_multiple
FN:252,_RNvNtNtNtNtCs9VsQExrgwtF_4wami5store6memory3sts5testss_27test_identity_list_multiple
FN:17,_RNvNtNtNtNtCs9VsQExrgwtF_4wami5store6memory3sts5testss_27test_session_create_and_get
FN:163,_RNvNtNtNtNtCs9VsQExrgwtF_4wami5store6memory3sts5testss_27test_session_with_providers
FN:209,_RNvNtNtNtNtCs9VsQExrgwtF_4wami5store6memory3sts5testss_28test_identity_create_and_get
FN:274,_RNvNtNtNtNtCs9VsQExrgwtF_4wami5store6memory3sts5testss_28test_identity_with_providers
FN:50,_RNvNtNtNtNtCs9VsQExrgwtF_4wami5store6memory3sts5testss_28test_session_get_nonexistent
FN:233,_RNvNtNtNtNtCs9VsQExrgwtF_4wami5store6memory3sts5testss_29test_identity_get_nonexistent
FNDA:1,_RNCNvNtNtNtNtCs9VsQExrgwtF_4wami5store6memory3sts5testss_19test_session_delete0Bb_
FNDA:1,_RNCNvNtNtNtNtCs9VsQExrgwtF_4wami5store6memory3sts5testss_20test_identity_update0Bb_
FNDA:1,_RNCNvNtNtNtNtCs9VsQExrgwtF_4wami5store6memory3sts5testss_22test_session_with_role0Bb_
FNDA:1,_RNCNvNtNtNtNtCs9VsQExrgwtF_4wami5store6memory3sts5testss_23test_session_list_empty0Bb_
FNDA:1,_RNCNvNtNtNtNtCs9VsQExrgwtF_4wami5store6memory3sts5testss_24test_identity_list_empty0Bb_
FNDA:1,_RNCNvNtNtNtNtCs9VsQExrgwtF_4wami5store6memory3sts5testss_26test_session_list_multiple0Bb_
FNDA:1,_RNCNvNtNtNtNtCs9VsQExrgwtF_4wami5store6memory3sts5testss_27test_identity_list_multiple0Bb_
FNDA:1,_RNCNvNtNtNtNtCs9VsQExrgwtF_4wami5store6memory3sts5testss_27test_session_create_and_get0Bb_
FNDA:1,_RNCNvNtNtNtNtCs9VsQExrgwtF_4wami5store6memory3sts5testss_27test_session_with_providers0Bb_
FNDA:1,_RNCNvNtNtNtNtCs9VsQExrgwtF_4wami5store6memory3sts5testss_28test_identity_create_and_get0Bb_
FNDA:1,_RNCNvNtNtNtNtCs9VsQExrgwtF_4wami5store6memory3sts5testss_28test_identity_with_providers0Bb_
FNDA:1,_RNCNvNtNtNtNtCs9VsQExrgwtF_4wami5store6memory3sts5testss_28test_session_get_nonexistent0Bb_
FNDA:1,_RNCNvNtNtNtNtCs9VsQExrgwtF_4wami5store6memory3sts5testss_29test_identity_get_nonexistent0Bb_
FNDA:1,_RNvNtNtNtNtCs9VsQExrgwtF_4wami5store6memory3sts5testss_19test_session_delete
FNDA:1,_RNvNtNtNtNtCs9VsQExrgwtF_4wami5store6memory3sts5testss_20test_identity_update
FNDA:1,_RNvNtNtNtNtCs9VsQExrgwtF_4wami5store6memory3sts5testss_22test_session_with_role
FNDA:1,_RNvNtNtNtNtCs9VsQExrgwtF_4wami5store6memory3sts5testss_23test_session_list_empty
FNDA:1,_RNvNtNtNtNtCs9VsQExrgwtF_4wami5store6memory3sts5testss_24test_identity_list_empty
FNDA:1,_RNvNtNtNtNtCs9VsQExrgwtF_4wami5store6memory3sts5testss_26test_session_list_multiple
FNDA:1,_RNvNtNtNtNtCs9VsQExrgwtF_4wami5store6memory3sts5testss_27test_identity_list_multiple
FNDA:1,_RNvNtNtNtNtCs9VsQExrgwtF_4wami5store6memory3sts5testss_27test_session_create_and_get
FNDA:1,_RNvNtNtNtNtCs9VsQExrgwtF_4wami5store6memory3sts5testss_27test_session_with_providers
FNDA:1,_RNvNtNtNtNtCs9VsQExrgwtF_4wami5store6memory3sts5testss_28test_identity_create_and_get
FNDA:1,_RNvNtNtNtNtCs9VsQExrgwtF_4wami5store6memory3sts5testss_28test_identity_with_providers
FNDA:1,_RNvNtNtNtNtCs9VsQExrgwtF_4wami5store6memory3sts5testss_28test_session_get_nonexistent
FNDA:1,_RNvNtNtNtNtCs9VsQExrgwtF_4wami5store6memory3sts5testss_29test_identity_get_nonexistent
FNF:26
FNH:26
DA:17,1
DA:18,1
DA:20,1
DA:21,1
DA:22,1
DA:23,1
DA:24,1
DA:25,1
DA:26,1
DA:27,1
DA:28,1
DA:29,1
DA:30,1
DA:31,1
DA:32,1
DA:33,1
DA:34,1
DA:35,1
DA:36,1
DA:37,1
DA:40,1
DA:41,1
DA:44,1
DA:45,1
DA:46,1
DA:47,1
DA:50,1
DA:51,1
DA:53,1
DA:54,1
DA:55,1
DA:58,1
DA:59,1
DA:61,1
DA:62,1
DA:63,1
DA:64,1
DA:65,1
DA:66,1
DA:67,1
DA:68,1
DA:69,1
DA:70,1
DA:71,1
DA:72,1
DA:73,1
DA:74,1
DA:75,1
DA:76,1
DA:77,1
DA:78,1
DA:80,1
DA:83,1
DA:86,1
DA:87,1
DA:88,1
DA:91,1
DA:92,1
DA:94,1
DA:95,1
DA:96,1
DA:99,1
DA:100,1
DA:103,4
DA:104,3
DA:105,3
DA:106,3
DA:107,3
DA:108,3
DA:109,3
DA:110,3
DA:111,3
DA:112,3
DA:113,3
DA:114,3
DA:115,3
DA:116,3
DA:117,3
DA:118,3
DA:119,3
DA:120,3
DA:121,3
DA:122,3
DA:125,1
DA:126,1
DA:127,1
DA:130,1
DA:131,1
DA:133,1
DA:134,1
DA:135,1
DA:136,1
DA:137,1
DA:138,1
DA:139,1
DA:140,1
DA:141,1
DA:142,1
DA:143,1
DA:144,1
DA:145,1
DA:146,1
DA:147,1
DA:148,1
DA:149,1
DA:150,1
DA:152,1
DA:154,1
DA:155,1
DA:156,1
DA:157,1
DA:158,1
DA:159,1
DA:160,1
DA:163,1
DA:164,1
DA:166,1
DA:167,1
DA:168,1
DA:169,1
DA:170,1
DA:171,1
DA:172,1
DA:174,1
DA:175,1
DA:176,1
DA:177,1
DA:178,1
DA:179,1
DA:180,1
DA:181,1
DA:182,1
DA:183,1
DA:184,1
DA:185,1
DA:186,1
DA:187,1
DA:188,1
DA:189,1
DA:190,1
DA:191,1
DA:193,1
DA:195,1
DA:196,1
DA:197,1
DA:198,1
DA:199,1
DA:200,1
DA:201,1
DA:202,1
DA:209,1
DA:210,1
DA:212,1
DA:213,1
DA:214,1
DA:215,1
DA:216,1
DA:217,1
DA:218,1
DA:220,1
DA:223,1
DA:224,1
DA:227,1
DA:228,1
DA:229,1
DA:230,1
DA:233,1
DA:234,1
DA:236,1
DA:237,1
DA:238,1
DA:239,1
DA:240,1
DA:241,1
DA:244,1
DA:245,1
DA:247,1
DA:248,1
DA:249,1
DA:252,1
DA:253,1
DA:256,4
DA:257,3
DA:258,3
DA:259,3
DA:260,3
DA:261,3
DA:262,3
DA:263,3
DA:264,3
DA:265,3
DA:266,3
DA:269,1
DA:270,1
DA:271,1
DA:274,1
DA:275,1
DA:277,1
DA:278,1
DA:279,1
DA:280,1
DA:281,1
DA:282,1
DA:283,1
DA:285,1
DA:286,1
DA:287,1
DA:288,1
DA:289,1
DA:290,1
DA:291,1
DA:293,1
DA:295,1
DA:296,1
DA:297,1
DA:298,1
DA:301,1
DA:302,1
DA:304,1
DA:305,1
DA:306,1
DA:307,1
DA:308,1
DA:309,1
DA:310,1
DA:312,1
DA:315,1
DA:316,1
DA:317,1
DA:318,1
DA:319,1
DA:320,1
DA:321,1
DA:323,1
DA:325,1
DA:326,1
DA:327,1
BRF:0
BRH:0
LF:264
LH:264
end_of_record
SF:/Users/lsh/projects/crates/wami/src/store/memory/tenant/mod.rs
FN:20,_RNvMNtNtNtCs9VsQExrgwtF_4wami5store6memory6tenantNtB2_19InMemoryTenantStore3new
FN:40,_RNvXs2_NtNtNtCs9VsQExrgwtF_4wami5store6memory6tenantNtB5_19InMemoryTenantStoreNtNtNtB9_6traits6tenant11TenantStore10get_tenant
FN:64,_RNvXs2_NtNtNtCs9VsQExrgwtF_4wami5store6memory6tenantNtB5_19InMemoryTenantStoreNtNtNtB9_6traits6tenant11TenantStore12list_tenants
FN:29,_RNvXs2_NtNtNtCs9VsQExrgwtF_4wami5store6memory6tenantNtB5_19InMemoryTenantStoreNtNtNtB9_6traits6tenant11TenantStore13create_tenant
FN:55,_RNvXs2_NtNtNtCs9VsQExrgwtF_4wami5store6memory6tenantNtB5_19InMemoryTenantStoreNtNtNtB9_6traits6tenant11TenantStore13delete_tenant
FN:82,_RNvXs2_NtNtNtCs9VsQExrgwtF_4wami5store6memory6tenantNtB5_19InMemoryTenantStoreNtNtNtB9_6traits6tenant11TenantStore13get_ancestors
FN:44,_RNvXs2_NtNtNtCs9VsQExrgwtF_4wami5store6memory6tenantNtB5_19InMemoryTenantStoreNtNtNtB9_6traits6tenant11TenantStore13update_tenant
FN:96,_RNvXs2_NtNtNtCs9VsQExrgwtF_4wami5store6memory6tenantNtB5_19InMemoryTenantStoreNtNtNtB9_6traits6tenant11TenantStore15get_descendants
FN:119,_RNvXs2_NtNtNtCs9VsQExrgwtF_4wami5store6memory6tenantNtB5_19InMemoryTenantStoreNtNtNtB9_6traits6tenant11TenantStore16get_tenant_usage
FN:68,_RNvXs2_NtNtNtCs9VsQExrgwtF_4wami5store6memory6tenantNtB5_19InMemoryTenantStoreNtNtNtB9_6traits6tenant11TenantStore18list_child_tenants
FN:108,_RNvXs2_NtNtNtCs9VsQExrgwtF_4wami5store6memory6tenantNtB5_19InMemoryTenantStoreNtNtNtB9_6traits6tenant11TenantStore20get_effective_quotas
FN:75,_RNCNCNCNvXs2_NtNtNtCs9VsQExrgwtF_4wami5store6memory6tenantNtBb_19InMemoryTenantStoreNtNtNtBf_6traits6tenant11TenantStore18list_child_tenants000Bh_
FN:183,_RNCNCNCNvXs3_NtNtNtCs9VsQExrgwtF_4wami5store6memory6tenantNtNtBd_4wami17InMemoryWamiStoreNtNtNtBf_6traits6tenant11TenantStore18list_child_tenants000Bh_
FN:59,_RNCNCNvXs2_NtNtNtCs9VsQExrgwtF_4wami5store6memory6tenantNtB9_19InMemoryTenantStoreNtNtNtBd_6traits6tenant11TenantStore13delete_tenant00Bf_
FN:87,_RNCNCNvXs2_NtNtNtCs9VsQExrgwtF_4wami5store6memory6tenantNtB9_19InMemoryTenantStoreNtNtNtBd_6traits6tenant11TenantStore13get_ancestors00Bf_
FN:72,_RNCNCNvXs2_NtNtNtCs9VsQExrgwtF_4wami5store6memory6tenantNtB9_19InMemoryTenantStoreNtNtNtBd_6traits6tenant11TenantStore18list_child_tenants00Bf_
FN:113,_RNCNCNvXs2_NtNtNtCs9VsQExrgwtF_4wami5store6memory6tenantNtB9_19InMemoryTenantStoreNtNtNtBd_6traits6tenant11TenantStore20get_effective_quotas00Bf_
FN:167,_RNCNCNvXs3_NtNtNtCs9VsQExrgwtF_4wami5store6memory6tenantNtNtBb_4wami17InMemoryWamiStoreNtNtNtBd_6traits6tenant11TenantStore13delete_tenant00Bf_
FN:195,_RNCNCNvXs3_NtNtNtCs9VsQExrgwtF_4wami5store6memory6tenantNtNtBb_4wami17InMemoryWamiStoreNtNtNtBd_6traits6tenant11TenantStore13get_ancestors00Bf_
FN:180,_RNCNCNvXs3_NtNtNtCs9VsQExrgwtF_4wami5store6memory6tenantNtNtBb_4wami17InMemoryWamiStoreNtNtNtBd_6traits6tenant11TenantStore18list_child_tenants00Bf_
FN:221,_RNCNCNvXs3_NtNtNtCs9VsQExrgwtF_4wami5store6memory6tenantNtNtBb_4wami17InMemoryWamiStoreNtNtNtBd_6traits6tenant11TenantStore20get_effective_quotas00Bf_
FN:228,_RNvXs3_NtNtNtCs9VsQExrgwtF_4wami5store6memory6tenantNtNtB7_4wami17InMemoryWamiStoreNtNtNtB9_6traits6tenant11TenantStore16get_tenant_usage
FN:216,_RNvXs3_NtNtNtCs9VsQExrgwtF_4wami5store6memory6tenantNtNtB7_4wami17InMemoryWamiStoreNtNtNtB9_6traits6tenant11TenantStore20get_effective_quotas
FN:148,_RNvXs3_NtNtNtCs9VsQExrgwtF_4wami5store6memory6tenantNtNtB7_4wami17InMemoryWamiStoreNtNtNtB9_6traits6tenant11TenantStore10get_tenant
FN:172,_RNvXs3_NtNtNtCs9VsQExrgwtF_4wami5store6memory6tenantNtNtB7_4wami17InMemoryWamiStoreNtNtNtB9_6traits6tenant11TenantStore12list_tenants
FN:137,_RNvXs3_NtNtNtCs9VsQExrgwtF_4wami5store6memory6tenantNtNtB7_4wami17InMemoryWamiStoreNtNtNtB9_6traits6tenant11TenantStore13create_tenant
FN:163,_RNvXs3_NtNtNtCs9VsQExrgwtF_4wami5store6memory6tenantNtNtB7_4wami17InMemoryWamiStoreNtNtNtB9_6traits6tenant11TenantStore13delete_tenant
FN:190,_RNvXs3_NtNtNtCs9VsQExrgwtF_4wami5store6memory6tenantNtNtB7_4wami17InMemoryWamiStoreNtNtNtB9_6traits6tenant11TenantStore13get_ancestors
FN:152,_RNvXs3_NtNtNtCs9VsQExrgwtF_4wami5store6memory6tenantNtNtB7_4wami17InMemoryWamiStoreNtNtNtB9_6traits6tenant11TenantStore13update_tenant
FN:204,_RNvXs3_NtNtNtCs9VsQExrgwtF_4wami5store6memory6tenantNtNtB7_4wami17InMemoryWamiStoreNtNtNtB9_6traits6tenant11TenantStore15get_descendants
FN:176,_RNvXs3_NtNtNtCs9VsQExrgwtF_4wami5store6memory6tenantNtNtB7_4wami17InMemoryWamiStoreNtNtNtB9_6traits6tenant11TenantStore18list_child_tenants
FNDA:20,_RNvMNtNtNtCs9VsQExrgwtF_4wami5store6memory6tenantNtB2_19InMemoryTenantStore3new
FNDA:8,_RNvXs2_NtNtNtCs9VsQExrgwtF_4wami5store6memory6tenantNtB5_19InMemoryTenantStoreNtNtNtB9_6traits6tenant11TenantStore10get_tenant
FNDA:2,_RNvXs2_NtNtNtCs9VsQExrgwtF_4wami5store6memory6tenantNtB5_19InMemoryTenantStoreNtNtNtB9_6traits6tenant11TenantStore12list_tenants
FNDA:29,_RNvXs2_NtNtNtCs9VsQExrgwtF_4wami5store6memory6tenantNtB5_19InMemoryTenantStoreNtNtNtB9_6traits6tenant11TenantStore13create_tenant
FNDA:2,_RNvXs2_NtNtNtCs9VsQExrgwtF_4wami5store6memory6tenantNtB5_19InMemoryTenantStoreNtNtNtB9_6traits6tenant11TenantStore13delete_tenant
FNDA:2,_RNvXs2_NtNtNtCs9VsQExrgwtF_4wami5store6memory6tenantNtB5_19InMemoryTenantStoreNtNtNtB9_6traits6tenant11TenantStore13get_ancestors
FNDA:2,_RNvXs2_NtNtNtCs9VsQExrgwtF_4wami5store6memory6tenantNtB5_19InMemoryTenantStoreNtNtNtB9_6traits6tenant11TenantStore13update_tenant
FNDA:2,_RNvXs2_NtNtNtCs9VsQExrgwtF_4wami5store6memory6tenantNtB5_19InMemoryTenantStoreNtNtNtB9_6traits6tenant11TenantStore15get_descendants
FNDA:1,_RNvXs2_NtNtNtCs9VsQExrgwtF_4wami5store6memory6tenantNtB5_19InMemoryTenantStoreNtNtNtB9_6traits6tenant11TenantStore16get_tenant_usage
FNDA:3,_RNvXs2_NtNtNtCs9VsQExrgwtF_4wami5store6memory6tenantNtB5_19InMemoryTenantStoreNtNtNtB9_6traits6tenant11TenantStore18list_child_tenants
FNDA:2,_RNvXs2_NtNtNtCs9VsQExrgwtF_4wami5store6memory6tenantNtB5_19InMemoryTenantStoreNtNtNtB9_6traits6tenant11TenantStore20get_effective_quotas
FNDA:4,_RNCNCNCNvXs2_NtNtNtCs9VsQExrgwtF_4wami5store6memory6tenantNtBb_19InMemoryTenantStoreNtNtNtBf_6traits6tenant11TenantStore18list_child_tenants000Bh_
FNDA:1,_RNCNCNCNvXs3_NtNtNtCs9VsQExrgwtF_4wami5store6memory6tenantNtNtBd_4wami17InMemoryWamiStoreNtNtNtBf_6traits6tenant11TenantStore18list_child_tenants000Bh_
FNDA:1,_RNCNCNvXs2_NtNtNtCs9VsQExrgwtF_4wami5store6memory6tenantNtB9_19InMemoryTenantStoreNtNtNtBd_6traits6tenant11TenantStore13delete_tenant00Bf_
FNDA:4,_RNCNCNvXs2_NtNtNtCs9VsQExrgwtF_4wami5store6memory6tenantNtB9_19InMemoryTenantStoreNtNtNtBd_6traits6tenant11TenantStore13get_ancestors00Bf_
FNDA:7,_RNCNCNvXs2_NtNtNtCs9VsQExrgwtF_4wami5store6memory6tenantNtB9_19InMemoryTenantStoreNtNtNtBd_6traits6tenant11TenantStore18list_child_tenants00Bf_
FNDA:1,_RNCNCNvXs2_NtNtNtCs9VsQExrgwtF_4wami5store6memory6tenantNtB9_19InMemoryTenantStoreNtNtNtBd_6traits6tenant11TenantStore20get_effective_quotas00Bf_
FNDA:0,_RNCNCNvXs3_NtNtNtCs9VsQExrgwtF_4wami5store6memory6tenantNtNtBb_4wami17InMemoryWamiStoreNtNtNtBd_6traits6tenant11TenantStore13delete_tenant00Bf_
FNDA:2,_RNCNCNvXs3_NtNtNtCs9VsQExrgwtF_4wami5store6memory6tenantNtNtBb_4wami17InMemoryWamiStoreNtNtNtBd_6traits6tenant11TenantStore13get_ancestors00Bf_
FNDA:2,_RNCNCNvXs3_NtNtNtCs9VsQExrgwtF_4wami5store6memory6tenantNtNtBb_4wami17InMemoryWamiStoreNtNtNtBd_6traits6tenant11TenantStore18list_child_tenants00Bf_
FNDA:0,_RNCNCNvXs3_NtNtNtCs9VsQExrgwtF_4wami5store6memory6tenantNtNtBb_4wami17InMemoryWamiStoreNtNtNtBd_6traits6tenant11TenantStore20get_effective_quotas00Bf_
FNDA:0,_RNvXs3_NtNtNtCs9VsQExrgwtF_4wami5store6memory6tenantNtNtB7_4wami17InMemoryWamiStoreNtNtNtB9_6traits6tenant11TenantStore16get_tenant_usage
FNDA:0,_RNvXs3_NtNtNtCs9VsQExrgwtF_4wami5store6memory6tenantNtNtB7_4wami17InMemoryWamiStoreNtNtNtB9_6traits6tenant11TenantStore20get_effective_quotas
FNDA:2,_RNvXs3_NtNtNtCs9VsQExrgwtF_4wami5store6memory6tenantNtNtB7_4wami17InMemoryWamiStoreNtNtNtB9_6traits6tenant11TenantStore10get_tenant
FNDA:1,_RNvXs3_NtNtNtCs9VsQExrgwtF_4wami5store6memory6tenantNtNtB7_4wami17InMemoryWamiStoreNtNtNtB9_6traits6tenant11TenantStore12list_tenants
FNDA:12,_RNvXs3_NtNtNtCs9VsQExrgwtF_4wami5store6memory6tenantNtNtB7_4wami17InMemoryWamiStoreNtNtNtB9_6traits6tenant11TenantStore13create_tenant
FNDA:1,_RNvXs3_NtNtNtCs9VsQExrgwtF_4wami5store6memory6tenantNtNtB7_4wami17InMemoryWamiStoreNtNtNtB9_6traits6tenant11TenantStore13delete_tenant
FNDA:1,_RNvXs3_NtNtNtCs9VsQExrgwtF_4wami5store6memory6tenantNtNtB7_4wami17InMemoryWamiStoreNtNtNtB9_6traits6tenant11TenantStore13get_ancestors
FNDA:1,_RNvXs3_NtNtNtCs9VsQExrgwtF_4wami5store6memory6tenantNtNtB7_4wami17InMemoryWamiStoreNtNtNtB9_6traits6tenant11TenantStore13update_tenant
FNDA:1,_RNvXs3_NtNtNtCs9VsQExrgwtF_4wami5store6memory6tenantNtNtB7_4wami17InMemoryWamiStoreNtNtNtB9_6traits6tenant11TenantStore15get_descendants
FNDA:1,_RNvXs3_NtNtNtCs9VsQExrgwtF_4wami5store6memory6tenantNtNtB7_4wami17InMemoryWamiStoreNtNtNtB9_6traits6tenant11TenantStore18list_child_tenants
FNF:31
FNH:27
DA:20,20
DA:21,20
DA:22,20
DA:23,20
DA:24,20
DA:29,29
DA:38,29
DA:40,8
DA:42,8
DA:44,2
DA:53,2
DA:55,2
DA:59,1
DA:60,1
DA:62,2
DA:64,2
DA:66,2
DA:68,3
DA:72,7
DA:73,7
DA:74,7
DA:75,7
DA:76,7
DA:77,7
DA:80,3
DA:82,2
DA:87,4
DA:94,2
DA:96,2
DA:106,2
DA:108,2
DA:113,1
DA:114,1
DA:117,2
DA:119,1
DA:131,1
DA:137,12
DA:146,12
DA:148,2
DA:150,2
DA:152,1
DA:161,1
DA:163,1
DA:167,0
DA:168,0
DA:170,1
DA:172,1
DA:174,1
DA:176,1
DA:180,2
DA:181,2
DA:182,2
DA:183,2
DA:184,2
DA:185,2
DA:188,1
DA:190,1
DA:195,2
DA:202,1
DA:204,1
DA:214,1
DA:216,0
DA:221,0
DA:222,0
DA:226,0
DA:228,0
DA:248,0
BRF:0
BRH:0
LF:69
LH:61
end_of_record
SF:/Users/lsh/projects/crates/wami/src/store/memory/tenant/tests.rs
FN:110,_RNCNvNtNtNtNtCs9VsQExrgwtF_4wami5store6memory6tenant5testss_18test_tenant_delete0Bb_
FN:77,_RNCNvNtNtNtNtCs9VsQExrgwtF_4wami5store6memory6tenant5testss_18test_tenant_update0Bb_
FN:313,_RNCNvNtNtNtNtCs9VsQExrgwtF_4wami5store6memory6tenant5testss_21test_tenant_get_usage0Bb_
FN:161,_RNCNvNtNtNtNtCs9VsQExrgwtF_4wami5store6memory6tenant5testss_21test_tenant_hierarchy0Bb_
FN:139,_RNCNvNtNtNtNtCs9VsQExrgwtF_4wami5store6memory6tenant5testss_22test_tenant_list_empty0Bb_
FN:193,_RNCNvNtNtNtNtCs9VsQExrgwtF_4wami5store6memory6tenant5testss_25test_tenant_get_ancestors0Bb_
FN:147,_RNCNvNtNtNtNtCs9VsQExrgwtF_4wami5store6memory6tenant5testss_25test_tenant_list_multiple0Bb_
FN:32,_RNCNvNtNtNtNtCs9VsQExrgwtF_4wami5store6memory6tenant5testss_26test_tenant_create_and_get0Bb_
FN:357,_RNCNvNtNtNtNtCs9VsQExrgwtF_4wami5store6memory6tenant5testss_27test_tenant_different_types0Bb_
FN:232,_RNCNvNtNtNtNtCs9VsQExrgwtF_4wami5store6memory6tenant5testss_27test_tenant_get_descendants0Bb_
FN:49,_RNCNvNtNtNtNtCs9VsQExrgwtF_4wami5store6memory6tenant5testss_27test_tenant_get_nonexistent0Bb_
FN:332,_RNCNvNtNtNtNtCs9VsQExrgwtF_4wami5store6memory6tenant5testss_30test_tenant_different_statuses0Bb_
FN:218,_RNCNvNtNtNtNtCs9VsQExrgwtF_4wami5store6memory6tenant5testss_30test_tenant_get_ancestors_root0Bb_
FN:262,_RNCNvNtNtNtNtCs9VsQExrgwtF_4wami5store6memory6tenant5testss_32test_tenant_get_descendants_leaf0Bb_
FN:275,_RNCNvNtNtNtNtCs9VsQExrgwtF_4wami5store6memory6tenant5testss_32test_tenant_get_effective_quotas0Bb_
FN:60,_RNCNvNtNtNtNtCs9VsQExrgwtF_4wami5store6memory6tenant5testss_34test_tenant_create_duplicate_fails0Bb_
FN:127,_RNCNvNtNtNtNtCs9VsQExrgwtF_4wami5store6memory6tenant5testss_36test_tenant_delete_nonexistent_fails0Bb_
FN:181,_RNCNvNtNtNtNtCs9VsQExrgwtF_4wami5store6memory6tenant5testss_36test_tenant_list_child_tenants_empty0Bb_
FN:96,_RNCNvNtNtNtNtCs9VsQExrgwtF_4wami5store6memory6tenant5testss_36test_tenant_update_nonexistent_fails0Bb_
FN:299,_RNCNvNtNtNtNtCs9VsQExrgwtF_4wami5store6memory6tenant5testss_44test_tenant_get_effective_quotas_nonexistent0Bb_
FN:8,_RNvNtNtNtNtCs9VsQExrgwtF_4wami5store6memory6tenant5tests17build_test_tenant
FN:110,_RNvNtNtNtNtCs9VsQExrgwtF_4wami5store6memory6tenant5testss_18test_tenant_delete
FN:77,_RNvNtNtNtNtCs9VsQExrgwtF_4wami5store6memory6tenant5testss_18test_tenant_update
FN:313,_RNvNtNtNtNtCs9VsQExrgwtF_4wami5store6memory6tenant5testss_21test_tenant_get_usage
FN:161,_RNvNtNtNtNtCs9VsQExrgwtF_4wami5store6memory6tenant5testss_21test_tenant_hierarchy
FN:139,_RNvNtNtNtNtCs9VsQExrgwtF_4wami5store6memory6tenant5testss_22test_tenant_list_empty
FN:193,_RNvNtNtNtNtCs9VsQExrgwtF_4wami5store6memory6tenant5testss_25test_tenant_get_ancestors
FN:147,_RNvNtNtNtNtCs9VsQExrgwtF_4wami5store6memory6tenant5testss_25test_tenant_list_multiple
FN:32,_RNvNtNtNtNtCs9VsQExrgwtF_4wami5store6memory6tenant5testss_26test_tenant_create_and_get
FN:357,_RNvNtNtNtNtCs9VsQExrgwtF_4wami5store6memory6tenant5testss_27test_tenant_different_types
FN:232,_RNvNtNtNtNtCs9VsQExrgwtF_4wami5store6memory6tenant5testss_27test_tenant_get_descendants
FN:49,_RNvNtNtNtNtCs9VsQExrgwtF_4wami5store6memory6tenant5testss_27test_tenant_get_nonexistent
FN:332,_RNvNtNtNtNtCs9VsQExrgwtF_4wami5store6memory6tenant5testss_30test_tenant_different_statuses
FN:218,_RNvNtNtNtNtCs9VsQExrgwtF_4wami5store6memory6tenant5testss_30test_tenant_get_ancestors_root
FN:262,_RNvNtNtNtNtCs9VsQExrgwtF_4wami5store6memory6tenant5testss_32test_tenant_get_descendants_leaf
FN:275,_RNvNtNtNtNtCs9VsQExrgwtF_4wami5store6memory6tenant5testss_32test_tenant_get_effective_quotas
FN:60,_RNvNtNtNtNtCs9VsQExrgwtF_4wami5store6memory6tenant5testss_34test_tenant_create_duplicate_fails
FN:127,_RNvNtNtNtNtCs9VsQExrgwtF_4wami5store6memory6tenant5testss_36test_tenant_delete_nonexistent_fails
FN:181,_RNvNtNtNtNtCs9VsQExrgwtF_4wami5store6memory6tenant5testss_36test_tenant_list_child_tenants_empty
FN:96,_RNvNtNtNtNtCs9VsQExrgwtF_4wami5store6memory6tenant5testss_36test_tenant_update_nonexistent_fails
FN:299,_RNvNtNtNtNtCs9VsQExrgwtF_4wami5store6memory6tenant5testss_44test_tenant_get_effective_quotas_nonexistent
FNDA:1,_RNCNvNtNtNtNtCs9VsQExrgwtF_4wami5store6memory6tenant5testss_18test_tenant_delete0Bb_
FNDA:1,_RNCNvNtNtNtNtCs9VsQExrgwtF_4wami5store6memory6tenant5testss_18test_tenant_update0Bb_
FNDA:1,_RNCNvNtNtNtNtCs9VsQExrgwtF_4wami5store6memory6tenant5testss_21test_tenant_get_usage0Bb_
FNDA:1,_RNCNvNtNtNtNtCs9VsQExrgwtF_4wami5store6memory6tenant5testss_21test_tenant_hierarchy0Bb_
FNDA:1,_RNCNvNtNtNtNtCs9VsQExrgwtF_4wami5store6memory6tenant5testss_22test_tenant_list_empty0Bb_
FNDA:1,_RNCNvNtNtNtNtCs9VsQExrgwtF_4wami5store6memory6tenant5testss_25test_tenant_get_ancestors0Bb_
FNDA:1,_RNCNvNtNtNtNtCs9VsQExrgwtF_4wami5store6memory6tenant5testss_25test_tenant_list_multiple0Bb_
FNDA:1,_RNCNvNtNtNtNtCs9VsQExrgwtF_4wami5store6memory6tenant5testss_26test_tenant_create_and_get0Bb_
FNDA:1,_RNCNvNtNtNtNtCs9VsQExrgwtF_4wami5store6memory6tenant5testss_27test_tenant_different_types0Bb_
FNDA:1,_RNCNvNtNtNtNtCs9VsQExrgwtF_4wami5store6memory6tenant5testss_27test_tenant_get_descendants0Bb_
FNDA:1,_RNCNvNtNtNtNtCs9VsQExrgwtF_4wami5store6memory6tenant5testss_27test_tenant_get_nonexistent0Bb_
FNDA:1,_RNCNvNtNtNtNtCs9VsQExrgwtF_4wami5store6memory6tenant5testss_30test_tenant_different_statuses0Bb_
FNDA:1,_RNCNvNtNtNtNtCs9VsQExrgwtF_4wami5store6memory6tenant5testss_30test_tenant_get_ancestors_root0Bb_
FNDA:1,_RNCNvNtNtNtNtCs9VsQExrgwtF_4wami5store6memory6tenant5testss_32test_tenant_get_descendants_leaf0Bb_
FNDA:1,_RNCNvNtNtNtNtCs9VsQExrgwtF_4wami5store6memory6tenant5testss_32test_tenant_get_effective_quotas0Bb_
FNDA:1,_RNCNvNtNtNtNtCs9VsQExrgwtF_4wami5store6memory6tenant5testss_34test_tenant_create_duplicate_fails0Bb_
FNDA:1,_RNCNvNtNtNtNtCs9VsQExrgwtF_4wami5store6memory6tenant5testss_36test_tenant_delete_nonexistent_fails0Bb_
FNDA:1,_RNCNvNtNtNtNtCs9VsQExrgwtF_4wami5store6memory6tenant5testss_36test_tenant_list_child_tenants_empty0Bb_
FNDA:1,_RNCNvNtNtNtNtCs9VsQExrgwtF_4wami5store6memory6tenant5testss_36test_tenant_update_nonexistent_fails0Bb_
FNDA:1,_RNCNvNtNtNtNtCs9VsQExrgwtF_4wami5store6memory6tenant5testss_44test_tenant_get_effective_quotas_nonexistent0Bb_
FNDA:29,_RNvNtNtNtNtCs9VsQExrgwtF_4wami5store6memory6tenant5tests17build_test_tenant
FNDA:1,_RNvNtNtNtNtCs9VsQExrgwtF_4wami5store6memory6tenant5testss_18test_tenant_delete
FNDA:1,_RNvNtNtNtNtCs9VsQExrgwtF_4wami5store6memory6tenant5testss_18test_tenant_update
FNDA:1,_RNvNtNtNtNtCs9VsQExrgwtF_4wami5store6memory6tenant5testss_21test_tenant_get_usage
FNDA:1,_RNvNtNtNtNtCs9VsQExrgwtF_4wami5store6memory6tenant5testss_21test_tenant_hierarchy
FNDA:1,_RNvNtNtNtNtCs9VsQExrgwtF_4wami5store6memory6tenant5testss_22test_tenant_list_empty
FNDA:1,_RNvNtNtNtNtCs9VsQExrgwtF_4wami5store6memory6tenant5testss_25test_tenant_get_ancestors
FNDA:1,_RNvNtNtNtNtCs9VsQExrgwtF_4wami5store6memory6tenant5testss_25test_tenant_list_multiple
FNDA:1,_RNvNtNtNtNtCs9VsQExrgwtF_4wami5store6memory6tenant5testss_26test_tenant_create_and_get
FNDA:1,_RNvNtNtNtNtCs9VsQExrgwtF_4wami5store6memory6tenant5testss_27test_tenant_different_types
FNDA:1,_RNvNtNtNtNtCs9VsQExrgwtF_4wami5store6memory6tenant5testss_27test_tenant_get_descendants
FNDA:1,_RNvNtNtNtNtCs9VsQExrgwtF_4wami5store6memory6tenant5testss_27test_tenant_get_nonexistent
FNDA:1,_RNvNtNtNtNtCs9VsQExrgwtF_4wami5store6memory6tenant5testss_30test_tenant_different_statuses
FNDA:1,_RNvNtNtNtNtCs9VsQExrgwtF_4wami5store6memory6tenant5testss_30test_tenant_get_ancestors_root
FNDA:1,_RNvNtNtNtNtCs9VsQExrgwtF_4wami5store6memory6tenant5testss_32test_tenant_get_descendants_leaf
FNDA:1,_RNvNtNtNtNtCs9VsQExrgwtF_4wami5store6memory6tenant5testss_32test_tenant_get_effective_quotas
FNDA:1,_RNvNtNtNtNtCs9VsQExrgwtF_4wami5store6memory6tenant5testss_34test_tenant_create_duplicate_fails
FNDA:1,_RNvNtNtNtNtCs9VsQExrgwtF_4wami5store6memory6tenant5testss_36test_tenant_delete_nonexistent_fails
FNDA:1,_RNvNtNtNtNtCs9VsQExrgwtF_4wami5store6memory6tenant5testss_36test_tenant_list_child_tenants_empty
FNDA:1,_RNvNtNtNtNtCs9VsQExrgwtF_4wami5store6memory6tenant5testss_36test_tenant_update_nonexistent_fails
FNDA:1,_RNvNtNtNtNtCs9VsQExrgwtF_4wami5store6memory6tenant5testss_44test_tenant_get_effective_quotas_nonexistent
FNF:41
FNH:41
DA:8,29
DA:9,29
DA:10,29
DA:11,29
DA:12,29
DA:13,29
DA:14,29
DA:15,29
DA:16,29
DA:17,29
DA:18,29
DA:19,29
DA:20,29
DA:21,29
DA:22,29
DA:23,29
DA:24,29
DA:25,29
DA:26,29
DA:27,29
DA:28,29
DA:29,29
DA:32,1
DA:33,1
DA:35,1
DA:36,1
DA:39,1
DA:40,1
DA:43,1
DA:44,1
DA:45,1
DA:46,1
DA:49,1
DA:50,1
DA:52,1
DA:53,1
DA:54,1
DA:55,1
DA:56,1
DA:57,1
DA:60,1
DA:61,1
DA:63,1
DA:65,1
DA:68,1
DA:69,1
DA:70,1
DA:71,1
DA:72,1
DA:73,1
DA:74,1
DA:77,1
DA:78,1
DA:80,1
DA:81,1
DA:83,1
DA:86,1
DA:87,1
DA:88,1
DA:91,1
DA:92,1
DA:93,1
DA:96,1
DA:97,1
DA:99,1
DA:101,1
DA:102,1
DA:103,1
DA:104,1
DA:105,1
DA:106,1
DA:107,1
DA:110,1
DA:111,1
DA:113,1
DA:114,1
DA:116,1
DA:119,1
DA:122,1
DA:123,1
DA:124,1
DA:127,1
DA:128,1
DA:130,1
DA:131,1
DA:132,1
DA:133,1
DA:134,1
DA:135,1
DA:136,1
DA:139,1
DA:140,1
DA:142,1
DA:143,1
DA:144,1
DA:147,1
DA:148,1
DA:151,4
DA:152,3
DA:153,3
DA:156,1
DA:157,1
DA:158,1
DA:161,1
DA:162,1
DA:165,1
DA:166,1
DA:167,1
DA:170,1
DA:171,1
DA:172,1
DA:173,1
DA:176,1
DA:177,1
DA:178,1
DA:181,1
DA:182,1
DA:184,1
DA:185,1
DA:186,1
DA:188,1
DA:189,1
DA:190,1
DA:193,1
DA:194,1
DA:197,1
DA:198,1
DA:199,1
DA:200,1
DA:202,1
DA:203,1
DA:204,1
DA:205,1
DA:207,1
DA:208,1
DA:209,1
DA:210,1
DA:213,1
DA:214,1
DA:215,1
DA:218,1
DA:219,1
DA:221,1
DA:222,1
DA:223,1
DA:224,1
DA:227,1
DA:228,1
DA:229,1
DA:232,1
DA:233,1
DA:236,1
DA:237,1
DA:238,1
DA:239,1
DA:241,1
DA:242,1
DA:243,1
DA:244,1
DA:246,1
DA:247,1
DA:248,1
DA:249,1
DA:251,1
DA:252,1
DA:253,1
DA:254,1
DA:257,1
DA:258,1
DA:259,1
DA:262,1
DA:263,1
DA:265,1
DA:266,1
DA:267,1
DA:270,1
DA:271,1
DA:272,1
DA:275,1
DA:276,1
DA:278,1
DA:279,1
DA:280,1
DA:281,1
DA:282,1
DA:283,1
DA:284,1
DA:285,1
DA:286,1
DA:287,1
DA:288,1
DA:290,1
DA:291,1
DA:293,1
DA:294,1
DA:295,1
DA:296,1
DA:299,1
DA:300,1
DA:302,1
DA:303,1
DA:304,1
DA:305,1
DA:306,1
DA:307,1
DA:308,1
DA:309,1
DA:310,1
DA:313,1
DA:314,1
DA:316,1
DA:317,1
DA:318,1
DA:321,1
DA:322,1
DA:323,1
DA:324,1
DA:326,1
DA:327,1
DA:328,1
DA:329,1
DA:332,1
DA:333,1
DA:335,1
DA:336,1
DA:337,1
DA:338,1
DA:340,1
DA:341,1
DA:342,1
DA:343,1
DA:346,1
DA:347,1
DA:349,1
DA:350,1
DA:352,1
DA:353,1
DA:354,1
DA:357,1
DA:358,1
DA:360,1
DA:361,1
DA:362,1
DA:363,1
DA:365,1
DA:366,1
DA:367,1
DA:368,1
DA:371,1
DA:372,1
DA:374,1
DA:375,1
DA:377,1
DA:378,1
DA:379,1
BRF:0
BRH:0
LF:299
LH:299
end_of_record
SF:/Users/lsh/projects/crates/wami/src/store/memory/unified.rs
FN:27,_RNvMNtNtNtCs9VsQExrgwtF_4wami5store6memory7unifiedNtB2_13InMemoryStore3new
FN:39,_RNvXs2_NtNtNtCs9VsQExrgwtF_4wami5store6memory7unifiedNtB5_13InMemoryStoreNtB9_5Store10wami_store
FN:51,_RNvXs2_NtNtNtCs9VsQExrgwtF_4wami5store6memory7unifiedNtB5_13InMemoryStoreNtB9_5Store12tenant_store
FN:47,_RNvXs2_NtNtNtCs9VsQExrgwtF_4wami5store6memory7unifiedNtB5_13InMemoryStoreNtB9_5Store15sso_admin_store
FN:43,_RNvXs2_NtNtNtCs9VsQExrgwtF_4wami5store6memory7unifiedNtB5_13InMemoryStoreNtB9_5Store9sts_store
FNDA:0,_RNvMNtNtNtCs9VsQExrgwtF_4wami5store6memory7unifiedNtB2_13InMemoryStore3new
FNDA:0,_RNvXs2_NtNtNtCs9VsQExrgwtF_4wami5store6memory7unifiedNtB5_13InMemoryStoreNtB9_5Store10wami_store
FNDA:0,_RNvXs2_NtNtNtCs9VsQExrgwtF_4wami5store6memory7unifiedNtB5_13InMemoryStoreNtB9_5Store12tenant_store
FNDA:0,_RNvXs2_NtNtNtCs9VsQExrgwtF_4wami5store6memory7unifiedNtB5_13InMemoryStoreNtB9_5Store15sso_admin_store
FNDA:0,_RNvXs2_NtNtNtCs9VsQExrgwtF_4wami5store6memory7unifiedNtB5_13InMemoryStoreNtB9_5Store9sts_store
FNF:5
FNH:0
DA:27,0
DA:28,0
DA:29,0
DA:39,0
DA:41,0
DA:43,0
DA:45,0
DA:47,0
DA:49,0
DA:51,0
DA:53,0
BRF:0
BRH:0
LF:11
LH:0
end_of_record
SF:/Users/lsh/projects/crates/wami/src/store/memory/wami/mod.rs
FN:85,_RNvMNtNtNtCs9VsQExrgwtF_4wami5store6memory4wamiNtB2_17InMemoryWamiStore3new
FNDA:57,_RNvMNtNtNtCs9VsQExrgwtF_4wami5store6memory4wamiNtB2_17InMemoryWamiStore3new
FNF:1
FNH:1
DA:85,57
DA:86,57
DA:87,57
BRF:0
BRH:0
LF:3
LH:3
end_of_record
SF:/Users/lsh/projects/crates/wami/src/store/resource.rs
FN:246,_RNvMNtNtCs9VsQExrgwtF_4wami5store8resourceNtB2_8Resource11into_tenant
FN:237,_RNvMNtNtCs9VsQExrgwtF_4wami5store8resourceNtB2_8Resource16into_credentials
FN:228,_RNvMNtNtCs9VsQExrgwtF_4wami5store8resourceNtB2_8Resource16into_sts_session
FN:219,_RNvMNtNtCs9VsQExrgwtF_4wami5store8resourceNtB2_8Resource10into_group
FN:210,_RNvMNtNtCs9VsQExrgwtF_4wami5store8resourceNtB2_8Resource11into_policy
FN:110,_RNvMNtNtCs9VsQExrgwtF_4wami5store8resourceNtB2_8Resource13resource_type
FN:174,_RNvMNtNtCs9VsQExrgwtF_4wami5store8resourceNtB2_8Resource14as_credentials
FN:165,_RNvMNtNtCs9VsQExrgwtF_4wami5store8resourceNtB2_8Resource14as_sts_session
FN:91,_RNvMNtNtCs9VsQExrgwtF_4wami5store8resourceNtB2_8Resource3arn
FN:138,_RNvMNtNtCs9VsQExrgwtF_4wami5store8resourceNtB2_8Resource7as_role
FN:129,_RNvMNtNtCs9VsQExrgwtF_4wami5store8resourceNtB2_8Resource7as_user
FN:156,_RNvMNtNtCs9VsQExrgwtF_4wami5store8resourceNtB2_8Resource8as_group
FN:147,_RNvMNtNtCs9VsQExrgwtF_4wami5store8resourceNtB2_8Resource9as_policy
FN:183,_RNvMNtNtCs9VsQExrgwtF_4wami5store8resourceNtB2_8Resource9as_tenant
FN:201,_RNvMNtNtCs9VsQExrgwtF_4wami5store8resourceNtB2_8Resource9into_role
FN:192,_RNvMNtNtCs9VsQExrgwtF_4wami5store8resourceNtB2_8Resource9into_user
FN:266,_RNvNtNtNtCs9VsQExrgwtF_4wami5store8resource5tests12test_context
FN:375,_RNvNtNtNtCs9VsQExrgwtF_4wami5store8resource5testss_21test_resource_as_role
FN:359,_RNvNtNtNtCs9VsQExrgwtF_4wami5store8resource5testss_21test_resource_as_user
FN:423,_RNvNtNtNtCs9VsQExrgwtF_4wami5store8resource5testss_22test_resource_as_group
FN:292,_RNvNtNtNtCs9VsQExrgwtF_4wami5store8resource5testss_22test_resource_role_arn
FN:280,_RNvNtNtNtCs9VsQExrgwtF_4wami5store8resource5testss_22test_resource_user_arn
FN:399,_RNvNtNtNtCs9VsQExrgwtF_4wami5store8resource5testss_23test_resource_as_policy
FN:312,_RNvNtNtNtCs9VsQExrgwtF_4wami5store8resource5testss_23test_resource_group_arn
FN:449,_RNvNtNtNtCs9VsQExrgwtF_4wami5store8resource5testss_23test_resource_into_role
FN:437,_RNvNtNtNtCs9VsQExrgwtF_4wami5store8resource5testss_23test_resource_into_user
FN:489,_RNvNtNtNtCs9VsQExrgwtF_4wami5store8resource5testss_24test_resource_into_group
FN:325,_RNvNtNtNtCs9VsQExrgwtF_4wami5store8resource5testss_24test_resource_policy_arn
FN:523,_RNvNtNtNtCs9VsQExrgwtF_4wami5store8resource5testss_24test_resource_type_names
FN:469,_RNvNtNtNtCs9VsQExrgwtF_4wami5store8resource5testss_25test_resource_into_policy
FN:345,_RNvNtNtNtCs9VsQExrgwtF_4wami5store8resource5testss_28test_resource_access_key_arn
FN:503,_RNvNtNtNtCs9VsQExrgwtF_4wami5store8resource5testss_36test_resource_into_wrong_type_panics
FN:566,_RNvNtNtNtCs9VsQExrgwtF_4wami5store8resource5testss_39test_resource_all_downcast_combinations
FNDA:0,_RNvMNtNtCs9VsQExrgwtF_4wami5store8resourceNtB2_8Resource11into_tenant
FNDA:0,_RNvMNtNtCs9VsQExrgwtF_4wami5store8resourceNtB2_8Resource16into_credentials
FNDA:0,_RNvMNtNtCs9VsQExrgwtF_4wami5store8resourceNtB2_8Resource16into_sts_session
FNDA:1,_RNvMNtNtCs9VsQExrgwtF_4wami5store8resourceNtB2_8Resource10into_group
FNDA:1,_RNvMNtNtCs9VsQExrgwtF_4wami5store8resourceNtB2_8Resource11into_policy
FNDA:11,_RNvMNtNtCs9VsQExrgwtF_4wami5store8resourceNtB2_8Resource13resource_type
FNDA:1,_RNvMNtNtCs9VsQExrgwtF_4wami5store8resourceNtB2_8Resource14as_credentials
FNDA:1,_RNvMNtNtCs9VsQExrgwtF_4wami5store8resourceNtB2_8Resource14as_sts_session
FNDA:5,_RNvMNtNtCs9VsQExrgwtF_4wami5store8resourceNtB2_8Resource3arn
FNDA:3,_RNvMNtNtCs9VsQExrgwtF_4wami5store8resourceNtB2_8Resource7as_role
FNDA:3,_RNvMNtNtCs9VsQExrgwtF_4wami5store8resourceNtB2_8Resource7as_user
FNDA:3,_RNvMNtNtCs9VsQExrgwtF_4wami5store8resourceNtB2_8Resource8as_group
FNDA:2,_RNvMNtNtCs9VsQExrgwtF_4wami5store8resourceNtB2_8Resource9as_policy
FNDA:1,_RNvMNtNtCs9VsQExrgwtF_4wami5store8resourceNtB2_8Resource9as_tenant
FNDA:1,_RNvMNtNtCs9VsQExrgwtF_4wami5store8resourceNtB2_8Resource9into_role
FNDA:2,_RNvMNtNtCs9VsQExrgwtF_4wami5store8resourceNtB2_8Resource9into_user
FNDA:16,_RNvNtNtNtCs9VsQExrgwtF_4wami5store8resource5tests12test_context
FNDA:1,_RNvNtNtNtCs9VsQExrgwtF_4wami5store8resource5testss_21test_resource_as_role
FNDA:1,_RNvNtNtNtCs9VsQExrgwtF_4wami5store8resource5testss_21test_resource_as_user
FNDA:1,_RNvNtNtNtCs9VsQExrgwtF_4wami5store8resource5testss_22test_resource_as_group
FNDA:1,_RNvNtNtNtCs9VsQExrgwtF_4wami5store8resource5testss_22test_resource_role_arn
FNDA:1,_RNvNtNtNtCs9VsQExrgwtF_4wami5store8resource5testss_22test_resource_user_arn
FNDA:1,_RNvNtNtNtCs9VsQExrgwtF_4wami5store8resource5testss_23test_resource_as_policy
FNDA:1,_RNvNtNtNtCs9VsQExrgwtF_4wami5store8resource5testss_23test_resource_group_arn
FNDA:1,_RNvNtNtNtCs9VsQExrgwtF_4wami5store8resource5testss_23test_resource_into_role
FNDA:1,_RNvNtNtNtCs9VsQExrgwtF_4wami5store8resource5testss_23test_resource_into_user
FNDA:1,_RNvNtNtNtCs9VsQExrgwtF_4wami5store8resource5testss_24test_resource_into_group
FNDA:1,_RNvNtNtNtCs9VsQExrgwtF_4wami5store8resource5testss_24test_resource_policy_arn
FNDA:1,_RNvNtNtNtCs9VsQExrgwtF_4wami5store8resource5testss_24test_resource_type_names
FNDA:1,_RNvNtNtNtCs9VsQExrgwtF_4wami5store8resource5testss_25test_resource_into_policy
FNDA:1,_RNvNtNtNtCs9VsQExrgwtF_4wami5store8resource5testss_28test_resource_access_key_arn
FNDA:1,_RNvNtNtNtCs9VsQExrgwtF_4wami5store8resource5testss_36test_resource_into_wrong_type_panics
FNDA:1,_RNvNtNtNtCs9VsQExrgwtF_4wami5store8resource5testss_39test_resource_all_downcast_combinations
FNF:33
FNH:30
DA:91,5
DA:92,5
DA:93,1
DA:94,1
DA:95,1
DA:96,1
DA:97,1
DA:98,0
DA:99,0
DA:100,0
DA:101,0
DA:102,0
DA:103,0
DA:104,0
DA:105,0
DA:107,5
DA:110,11
DA:111,11
DA:112,2
DA:113,3
DA:114,2
DA:115,2
DA:116,2
DA:117,0
DA:118,0
DA:119,0
DA:120,0
DA:121,0
DA:122,0
DA:123,0
DA:124,0
DA:126,11
DA:129,3
DA:130,3
DA:131,2
DA:133,1
DA:135,3
DA:138,3
DA:139,3
DA:140,1
DA:142,2
DA:144,3
DA:147,2
DA:148,2
DA:149,1
DA:151,1
DA:153,2
DA:156,3
DA:157,3
DA:158,1
DA:160,2
DA:162,3
DA:165,1
DA:166,1
DA:167,0
DA:169,1
DA:171,1
DA:174,1
DA:175,1
DA:176,0
DA:178,1
DA:180,1
DA:183,1
DA:184,1
DA:185,0
DA:187,1
DA:189,1
DA:192,2
DA:193,2
DA:194,1
DA:196,1
DA:198,1
DA:201,1
DA:202,1
DA:203,1
DA:205,0
DA:207,1
DA:210,1
DA:211,1
DA:212,1
DA:214,0
DA:216,1
DA:219,1
DA:220,1
DA:221,1
DA:223,0
DA:225,1
DA:228,0
DA:229,0
DA:230,0
DA:232,0
DA:234,0
DA:237,0
DA:238,0
DA:239,0
DA:241,0
DA:243,0
DA:246,0
DA:247,0
DA:248,0
DA:250,0
DA:252,0
DA:266,16
DA:267,16
DA:268,16
DA:269,16
DA:270,16
DA:271,16
DA:272,16
DA:273,16
DA:274,16
DA:275,16
DA:276,16
DA:277,16
DA:280,1
DA:281,1
DA:282,1
DA:283,1
DA:285,1
DA:287,1
DA:288,1
DA:289,1
DA:292,1
DA:293,1
DA:294,1
DA:295,1
DA:296,1
DA:297,1
DA:298,1
DA:299,1
DA:300,1
DA:301,1
DA:303,1
DA:305,1
DA:307,1
DA:308,1
DA:309,1
DA:312,1
DA:313,1
DA:314,1
DA:315,1
DA:316,1
DA:318,1
DA:320,1
DA:321,1
DA:322,1
DA:325,1
DA:326,1
DA:327,1
DA:328,1
DA:329,1
DA:330,1
DA:331,1
DA:332,1
DA:333,1
DA:334,1
DA:336,1
DA:338,1
DA:340,1
DA:341,1
DA:342,1
DA:345,1
DA:346,1
DA:347,1
DA:348,1
DA:350,1
DA:352,1
DA:353,1
DA:354,1
DA:359,1
DA:360,1
DA:361,1
DA:362,1
DA:364,1
DA:366,1
DA:367,1
DA:368,1
DA:371,1
DA:372,1
DA:375,1
DA:376,1
DA:377,1
DA:378,1
DA:379,1
DA:380,1
DA:381,1
DA:382,1
DA:383,1
DA:384,1
DA:386,1
DA:388,1
DA:390,1
DA:391,1
DA:392,1
DA:395,1
DA:396,1
DA:399,1
DA:400,1
DA:401,1
DA:402,1
DA:403,1
DA:404,1
DA:405,1
DA:406,1
DA:407,1
DA:408,1
DA:410,1
DA:412,1
DA:414,1
DA:415,1
DA:416,1
DA:419,1
DA:420,1
DA:423,1
DA:424,1
DA:425,1
DA:426,1
DA:427,1
DA:429,1
DA:431,1
DA:432,1
DA:433,1
DA:434,1
DA:437,1
DA:438,1
DA:439,1
DA:440,1
DA:442,1
DA:443,1
DA:445,1
DA:446,1
DA:449,1
DA:450,1
DA:451,1
DA:452,1
DA:453,1
DA:454,1
DA:455,1
DA:456,1
DA:457,1
DA:458,1
DA:460,1
DA:462,1
DA:463,1
DA:465,1
DA:466,1
DA:469,1
DA:470,1
DA:471,1
DA:472,1
DA:473,1
DA:474,1
DA:475,1
DA:476,1
DA:477,1
DA:478,1
DA:480,1
DA:482,1
DA:483,1
DA:485,1
DA:486,1
DA:489,1
DA:490,1
DA:491,1
DA:492,1
DA:493,1
DA:495,1
DA:496,1
DA:498,1
DA:499,1
DA:503,1
DA:504,1
DA:505,1
DA:506,1
DA:507,1
DA:508,1
DA:509,1
DA:510,1
DA:511,1
DA:512,1
DA:514,1
DA:516,1
DA:519,1
DA:520,1
DA:523,1
DA:524,1
DA:527,1
DA:528,1
DA:529,1
DA:532,1
DA:533,1
DA:534,1
DA:535,1
DA:536,1
DA:537,1
DA:538,1
DA:540,1
DA:541,1
DA:544,1
DA:545,1
DA:546,1
DA:547,1
DA:548,1
DA:549,1
DA:550,1
DA:552,1
DA:553,1
DA:556,1
DA:557,1
DA:558,1
DA:561,1
DA:562,1
DA:563,1
DA:566,1
DA:567,1
DA:568,1
DA:569,1
DA:570,1
DA:573,1
DA:574,1
DA:575,1
DA:576,1
DA:577,1
DA:578,1
DA:579,1
DA:580,1
BRF:0
BRH:0
LF:326
LH:289
end_of_record
SF:/Users/lsh/projects/crates/wami/src/types.rs
FN:111,_RINvNtCs9VsQExrgwtF_4wami5types13string_or_vecQINtNtCs3rsZH23P4dn_10serde_json2de12DeserializerNtNtBO_4read7StrReadEEB4_
FN:120,_RNCINvNtCs9VsQExrgwtF_4wami5types13string_or_vecQINtNtCs3rsZH23P4dn_10serde_json2de12DeserializerNtNtBQ_4read7StrReadEE0B6_
FN:123,_RNCNCINvNtCs9VsQExrgwtF_4wami5types13string_or_vecQINtNtCs3rsZH23P4dn_10serde_json2de12DeserializerNtNtBS_4read7StrReadEE00B8_
FN:21,_RNvMNtCs9VsQExrgwtF_4wami5typesINtB2_11AmiResponsepE5errorB4_
FN:13,_RNvMNtCs9VsQExrgwtF_4wami5typesINtB2_11AmiResponsepE7successB4_
FN:66,_RNvMs0_NtCs9VsQExrgwtF_4wami5typesNtB5_9AwsConfig15with_account_id
FN:50,_RNvMs0_NtCs9VsQExrgwtF_4wami5typesNtB5_9AwsConfig19generate_account_id
FN:39,_RNvXs_NtCs9VsQExrgwtF_4wami5typesNtB4_9AwsConfigNtNtCs2CqrNpCrSUr_4core7default7Default7default
FNDA:20,_RINvNtCs9VsQExrgwtF_4wami5types13string_or_vecQINtNtCs3rsZH23P4dn_10serde_json2de12DeserializerNtNtBO_4read7StrReadEEB4_
FNDA:0,_RNCINvNtCs9VsQExrgwtF_4wami5types13string_or_vecQINtNtCs3rsZH23P4dn_10serde_json2de12DeserializerNtNtBQ_4read7StrReadEE0B6_
FNDA:0,_RNCNCINvNtCs9VsQExrgwtF_4wami5types13string_or_vecQINtNtCs3rsZH23P4dn_10serde_json2de12DeserializerNtNtBS_4read7StrReadEE00B8_
FNDA:0,_RNvMNtCs9VsQExrgwtF_4wami5typesINtB2_11AmiResponsepE5errorB4_
FNDA:0,_RNvMNtCs9VsQExrgwtF_4wami5typesINtB2_11AmiResponsepE7successB4_
FNDA:0,_RNvMs0_NtCs9VsQExrgwtF_4wami5typesNtB5_9AwsConfig15with_account_id
FNDA:0,_RNvMs0_NtCs9VsQExrgwtF_4wami5typesNtB5_9AwsConfig19generate_account_id
FNDA:0,_RNvXs_NtCs9VsQExrgwtF_4wami5typesNtB4_9AwsConfigNtNtCs2CqrNpCrSUr_4core7default7Default7default
FNF:8
FNH:1
DA:13,0
DA:14,0
DA:15,0
DA:16,0
DA:17,0
DA:18,0
DA:19,0
DA:21,0
DA:22,0
DA:23,0
DA:24,0
DA:25,0
DA:26,0
DA:27,0
DA:39,0
DA:40,0
DA:41,0
DA:42,0
DA:43,0
DA:44,0
DA:45,0
DA:50,0
DA:54,0
DA:55,0
DA:56,0
DA:57,0
DA:58,0
DA:59,0
DA:62,0
DA:63,0
DA:66,0
DA:67,0
DA:68,0
DA:69,0
DA:70,0
DA:71,0
DA:72,0
DA:111,20
DA:112,20
DA:113,20
DA:115,20
DA:116,20
DA:117,20
DA:118,0
DA:119,0
DA:120,0
DA:121,0
DA:122,0
DA:123,0
DA:124,0
DA:125,0
DA:126,0
DA:127,0
DA:128,0
DA:130,20
BRF:0
BRH:0
LF:57
LH:7
end_of_record
SF:/Users/lsh/projects/crates/wami/src/wami/credentials/access_key/builder.rs
FN:41,_RNvNtNtNtNtCs9VsQExrgwtF_4wami4wami11credentials10access_key7builder24update_access_key_status
FN:47,_RNvNtNtNtNtCs9VsQExrgwtF_4wami4wami11credentials10access_key7builder26add_provider_to_access_key
FN:12,_RNvNtNtNtNtCs9VsQExrgwtF_4wami4wami11credentials10access_key7builder16build_access_key
FNDA:0,_RNvNtNtNtNtCs9VsQExrgwtF_4wami4wami11credentials10access_key7builder24update_access_key_status
FNDA:0,_RNvNtNtNtNtCs9VsQExrgwtF_4wami4wami11credentials10access_key7builder26add_provider_to_access_key
FNDA:19,_RNvNtNtNtNtCs9VsQExrgwtF_4wami4wami11credentials10access_key7builder16build_access_key
FNF:3
FNH:1
DA:12,19
DA:14,19
DA:15,19
DA:18,19
DA:19,19
DA:20,19
DA:21,19
DA:22,19
DA:23,19
DA:26,19
DA:27,19
DA:29,19
DA:30,19
DA:31,19
DA:32,19
DA:33,19
DA:34,19
DA:35,19
DA:36,19
DA:37,19
DA:38,19
DA:41,0
DA:42,0
DA:43,0
DA:44,0
DA:47,0
DA:48,0
DA:49,0
DA:50,0
BRF:0
BRH:0
LF:29
LH:21
end_of_record
SF:/Users/lsh/projects/crates/wami/src/wami/credentials/login_profile/builder.rs
FN:45,_RNvNtNtNtNtCs9VsQExrgwtF_4wami4wami11credentials13login_profile7builder29add_provider_to_login_profile
FN:11,_RNvNtNtNtNtCs9VsQExrgwtF_4wami4wami11credentials13login_profile7builder19build_login_profile
FN:34,_RNvNtNtNtNtCs9VsQExrgwtF_4wami4wami11credentials13login_profile7builder20update_login_profile
FNDA:0,_RNvNtNtNtNtCs9VsQExrgwtF_4wami4wami11credentials13login_profile7builder29add_provider_to_login_profile
FNDA:9,_RNvNtNtNtNtCs9VsQExrgwtF_4wami4wami11credentials13login_profile7builder19build_login_profile
FNDA:2,_RNvNtNtNtNtCs9VsQExrgwtF_4wami4wami11credentials13login_profile7builder20update_login_profile
FNF:3
FNH:2
DA:11,9
DA:12,9
DA:13,9
DA:14,9
DA:15,9
DA:17,9
DA:18,9
DA:19,9
DA:20,9
DA:21,9
DA:22,9
DA:24,9
DA:25,9
DA:26,9
DA:27,9
DA:28,9
DA:29,9
DA:30,9
DA:31,9
DA:34,2
DA:35,2
DA:36,2
DA:37,2
DA:38,2
DA:39,2
DA:40,2
DA:41,2
DA:42,2
DA:45,0
DA:46,0
DA:47,0
DA:48,0
DA:49,0
DA:50,0
DA:51,0
BRF:0
BRH:0
LF:35
LH:28
end_of_record
SF:/Users/lsh/projects/crates/wami/src/wami/credentials/mfa_device/builder.rs
FN:34,_RNvNtNtNtNtCs9VsQExrgwtF_4wami4wami11credentials10mfa_device7builder26add_provider_to_mfa_device
FN:11,_RNvNtNtNtNtCs9VsQExrgwtF_4wami4wami11credentials10mfa_device7builder16build_mfa_device
FNDA:0,_RNvNtNtNtNtCs9VsQExrgwtF_4wami4wami11credentials10mfa_device7builder26add_provider_to_mfa_device
FNDA:10,_RNvNtNtNtNtCs9VsQExrgwtF_4wami4wami11credentials10mfa_device7builder16build_mfa_device
FNF:2
FNH:1
DA:11,10
DA:12,10
DA:13,10
DA:14,10
DA:15,10
DA:17,10
DA:18,10
DA:19,10
DA:20,10
DA:21,10
DA:22,10
DA:24,10
DA:25,10
DA:26,10
DA:27,10
DA:28,10
DA:29,10
DA:30,10
DA:31,10
DA:34,0
DA:35,0
DA:36,0
DA:37,0
BRF:0
BRH:0
LF:23
LH:19
end_of_record
SF:/Users/lsh/projects/crates/wami/src/wami/credentials/server_certificate/builder.rs
FN:12,_RNvNtNtNtNtCs9VsQExrgwtF_4wami4wami11credentials18server_certificate7builder24build_server_certificate
FNDA:5,_RNvNtNtNtNtCs9VsQExrgwtF_4wami4wami11credentials18server_certificate7builder24build_server_certificate
FNF:1
FNH:1
DA:12,5
DA:13,5
DA:14,5
DA:15,5
DA:16,5
DA:17,5
DA:18,5
DA:19,5
DA:20,5
DA:23,5
DA:24,5
DA:25,5
DA:26,5
DA:27,5
DA:28,5
DA:31,5
DA:32,5
DA:33,5
DA:34,5
DA:38,5
DA:39,5
DA:40,5
DA:41,5
DA:42,5
DA:43,5
DA:44,5
DA:45,5
DA:47,5
DA:48,5
DA:49,5
DA:50,5
DA:51,5
DA:52,5
DA:53,5
DA:54,5
DA:55,5
BRF:0
BRH:0
LF:36
LH:36
end_of_record
SF:/Users/lsh/projects/crates/wami/src/wami/credentials/service_credential/builder.rs
FN:12,_RNvNtNtNtNtCs9VsQExrgwtF_4wami4wami11credentials18service_credential7builder24build_service_credential
FNDA:6,_RNvNtNtNtNtCs9VsQExrgwtF_4wami4wami11credentials18service_credential7builder24build_service_credential
FNF:1
FNH:1
DA:12,6
DA:13,6
DA:14,6
DA:15,6
DA:16,6
DA:17,6
DA:20,6
DA:21,6
DA:22,6
DA:23,6
DA:24,6
DA:25,6
DA:28,6
DA:30,6
DA:32,6
DA:33,6
DA:34,6
DA:35,6
DA:36,6
DA:37,6
DA:38,6
DA:39,6
DA:40,6
DA:41,6
DA:42,6
DA:43,6
BRF:0
BRH:0
LF:26
LH:26
end_of_record
SF:/Users/lsh/projects/crates/wami/src/wami/credentials/signing_certificate/builder.rs
FN:12,_RNvNtNtNtNtCs9VsQExrgwtF_4wami4wami11credentials19signing_certificate7builder25build_signing_certificate
FNDA:6,_RNvNtNtNtNtCs9VsQExrgwtF_4wami4wami11credentials19signing_certificate7builder25build_signing_certificate
FNF:1
FNH:1
DA:12,6
DA:13,6
DA:14,6
DA:15,6
DA:16,6
DA:17,6
DA:20,6
DA:21,6
DA:22,6
DA:23,6
DA:24,6
DA:25,6
DA:27,6
DA:28,6
DA:29,6
DA:30,6
DA:31,6
DA:32,6
DA:33,6
DA:34,6
DA:35,6
DA:36,6
BRF:0
BRH:0
LF:22
LH:22
end_of_record
SF:/Users/lsh/projects/crates/wami/src/wami/identity/group/builder.rs
FN:126,_RNvNtNtNtNtNtCs9VsQExrgwtF_4wami4wami8identity5group7builder5tests12test_context
FN:140,_RNvNtNtNtNtNtCs9VsQExrgwtF_4wami4wami8identity5group7builder5testss_16test_build_group
FN:198,_RNvNtNtNtNtNtCs9VsQExrgwtF_4wami4wami8identity5group7builder5testss_17test_add_provider
FN:188,_RNvNtNtNtNtNtCs9VsQExrgwtF_4wami4wami8identity5group7builder5testss_18test_set_tenant_id
FN:170,_RNvNtNtNtNtNtCs9VsQExrgwtF_4wami4wami8identity5group7builder5testss_22test_update_group_name
FN:179,_RNvNtNtNtNtNtCs9VsQExrgwtF_4wami4wami8identity5group7builder5testss_22test_update_group_path
FN:235,_RNvNtNtNtNtNtCs9VsQExrgwtF_4wami4wami8identity5group7builder5testss_26test_build_group_immutable
FN:156,_RNvNtNtNtNtNtCs9VsQExrgwtF_4wami4wami8identity5group7builder5testss_26test_build_group_with_path
FN:216,_RNvNtNtNtNtNtCs9VsQExrgwtF_4wami4wami8identity5group7builder5testss_31test_add_provider_no_duplicates
FN:59,_RNCNvNtNtNtNtCs9VsQExrgwtF_4wami4wami8identity5group7builder18build_group_legacy0Bb_
FN:66,_RNCNvNtNtNtNtCs9VsQExrgwtF_4wami4wami8identity5group7builder18build_group_legacys_0Bb_
FN:52,_RNvNtNtNtNtCs9VsQExrgwtF_4wami4wami8identity5group7builder18build_group_legacy
FN:13,_RNvNtNtNtNtCs9VsQExrgwtF_4wami4wami8identity5group7builder11build_group
FN:109,_RNvNtNtNtNtCs9VsQExrgwtF_4wami4wami8identity5group7builder12add_provider
FN:103,_RNvNtNtNtNtCs9VsQExrgwtF_4wami4wami8identity5group7builder13set_tenant_id
FN:91,_RNvNtNtNtNtCs9VsQExrgwtF_4wami4wami8identity5group7builder17update_group_name
FN:97,_RNvNtNtNtNtCs9VsQExrgwtF_4wami4wami8identity5group7builder17update_group_path
FN:19,_RNCNvNtNtNtNtCs9VsQExrgwtF_4wami4wami8identity5group7builder11build_group0Bb_
FN:113,_RNCNvNtNtNtNtCs9VsQExrgwtF_4wami4wami8identity5group7builder12add_provider0Bb_
FNDA:8,_RNvNtNtNtNtNtCs9VsQExrgwtF_4wami4wami8identity5group7builder5tests12test_context
FNDA:1,_RNvNtNtNtNtNtCs9VsQExrgwtF_4wami4wami8identity5group7builder5testss_16test_build_group
FNDA:1,_RNvNtNtNtNtNtCs9VsQExrgwtF_4wami4wami8identity5group7builder5testss_17test_add_provider
FNDA:1,_RNvNtNtNtNtNtCs9VsQExrgwtF_4wami4wami8identity5group7builder5testss_18test_set_tenant_id
FNDA:1,_RNvNtNtNtNtNtCs9VsQExrgwtF_4wami4wami8identity5group7builder5testss_22test_update_group_name
FNDA:1,_RNvNtNtNtNtNtCs9VsQExrgwtF_4wami4wami8identity5group7builder5testss_22test_update_group_path
FNDA:1,_RNvNtNtNtNtNtCs9VsQExrgwtF_4wami4wami8identity5group7builder5testss_26test_build_group_immutable
FNDA:1,_RNvNtNtNtNtNtCs9VsQExrgwtF_4wami4wami8identity5group7builder5testss_26test_build_group_with_path
FNDA:1,_RNvNtNtNtNtNtCs9VsQExrgwtF_4wami4wami8identity5group7builder5testss_31test_add_provider_no_duplicates
FNDA:0,_RNCNvNtNtNtNtCs9VsQExrgwtF_4wami4wami8identity5group7builder18build_group_legacy0Bb_
FNDA:0,_RNCNvNtNtNtNtCs9VsQExrgwtF_4wami4wami8identity5group7builder18build_group_legacys_0Bb_
FNDA:0,_RNvNtNtNtNtCs9VsQExrgwtF_4wami4wami8identity5group7builder18build_group_legacy
FNDA:25,_RNvNtNtNtNtCs9VsQExrgwtF_4wami4wami8identity5group7builder11build_group
FNDA:3,_RNvNtNtNtNtCs9VsQExrgwtF_4wami4wami8identity5group7builder12add_provider
FNDA:1,_RNvNtNtNtNtCs9VsQExrgwtF_4wami4wami8identity5group7builder13set_tenant_id
FNDA:3,_RNvNtNtNtNtCs9VsQExrgwtF_4wami4wami8identity5group7builder17update_group_name
FNDA:2,_RNvNtNtNtNtCs9VsQExrgwtF_4wami4wami8identity5group7builder17update_group_path
FNDA:9,_RNCNvNtNtNtNtCs9VsQExrgwtF_4wami4wami8identity5group7builder11build_group0Bb_
FNDA:1,_RNCNvNtNtNtNtCs9VsQExrgwtF_4wami4wami8identity5group7builder12add_provider0Bb_
FNF:19
FNH:16
DA:13,25
DA:14,25
DA:15,25
DA:16,25
DA:17,25
DA:18,25
DA:19,25
DA:22,25
DA:23,25
DA:24,25
DA:25,25
DA:26,25
DA:27,25
DA:30,25
DA:31,25
DA:32,25
DA:33,25
DA:37,25
DA:38,25
DA:39,25
DA:40,25
DA:41,25
DA:42,25
DA:43,25
DA:44,25
DA:45,25
DA:46,25
DA:47,25
DA:48,25
DA:52,0
DA:53,0
DA:54,0
DA:55,0
DA:56,0
DA:57,0
DA:58,0
DA:59,0
DA:60,0
DA:61,0
DA:62,0
DA:63,0
DA:66,0
DA:68,0
DA:69,0
DA:70,0
DA:71,0
DA:72,0
DA:73,0
DA:74,0
DA:75,0
DA:77,0
DA:78,0
DA:79,0
DA:80,0
DA:81,0
DA:82,0
DA:83,0
DA:84,0
DA:85,0
DA:86,0
DA:87,0
DA:88,0
DA:91,3
DA:92,3
DA:93,3
DA:94,3
DA:97,2
DA:98,2
DA:99,2
DA:100,2
DA:103,1
DA:104,1
DA:105,1
DA:106,1
DA:109,3
DA:110,3
DA:111,3
DA:112,3
DA:113,3
DA:114,2
DA:115,2
DA:116,2
DA:117,3
DA:118,3
DA:126,8
DA:127,8
DA:128,8
DA:129,8
DA:130,8
DA:131,8
DA:132,8
DA:133,8
DA:134,8
DA:135,8
DA:136,8
DA:137,8
DA:140,1
DA:141,1
DA:142,1
DA:144,1
DA:145,1
DA:146,1
DA:147,1
DA:149,1
DA:150,1
DA:151,1
DA:152,1
DA:153,1
DA:156,1
DA:157,1
DA:158,1
DA:159,1
DA:160,1
DA:161,1
DA:163,1
DA:165,1
DA:166,1
DA:167,1
DA:170,1
DA:171,1
DA:172,1
DA:173,1
DA:175,1
DA:176,1
DA:179,1
DA:180,1
DA:181,1
DA:182,1
DA:184,1
DA:185,1
DA:188,1
DA:189,1
DA:190,1
DA:191,1
DA:193,1
DA:194,1
DA:195,1
DA:198,1
DA:199,1
DA:200,1
DA:202,1
DA:203,1
DA:204,1
DA:205,1
DA:206,1
DA:207,1
DA:208,1
DA:210,1
DA:211,1
DA:212,1
DA:213,1
DA:216,1
DA:217,1
DA:218,1
DA:220,1
DA:221,1
DA:222,1
DA:223,1
DA:224,1
DA:225,1
DA:226,1
DA:228,1
DA:229,1
DA:231,1
DA:232,1
DA:235,1
DA:236,1
DA:237,1
DA:238,1
DA:240,1
DA:243,1
DA:244,1
BRF:0
BRH:0
LF:176
LH:141
end_of_record
SF:/Users/lsh/projects/crates/wami/src/wami/identity/identity_provider/builder.rs
FN:148,_RNCNvNtNtNtNtCs9VsQExrgwtF_4wami4wami8identity17identity_provider7builder13add_oidc_tags0Bb_
FN:138,_RNCNvNtNtNtNtCs9VsQExrgwtF_4wami4wami8identity17identity_provider7builder13add_saml_tags0Bb_
FN:121,_RNCNvNtNtNtNtCs9VsQExrgwtF_4wami4wami8identity17identity_provider7builder16remove_client_id0Bb_
FN:188,_RNvNtNtNtNtCs9VsQExrgwtF_4wami4wami8identity17identity_provider7builder15set_oidc_tenant
FN:179,_RNvNtNtNtNtCs9VsQExrgwtF_4wami4wami8identity17identity_provider7builder15set_saml_tenant
FN:173,_RNvNtNtNtNtCs9VsQExrgwtF_4wami4wami8identity17identity_provider7builder20decrement_oidc_usage
FN:167,_RNvNtNtNtNtCs9VsQExrgwtF_4wami4wami8identity17identity_provider7builder20increment_oidc_usage
FN:201,_RNvNtNtNtNtNtCs9VsQExrgwtF_4wami4wami8identity17identity_provider7builder5tests12test_context
FN:284,_RNvNtNtNtNtNtCs9VsQExrgwtF_4wami4wami8identity17identity_provider7builder5testss_19test_usage_tracking
FN:299,_RNvNtNtNtNtNtCs9VsQExrgwtF_4wami4wami8identity17identity_provider7builder5testss_23test_update_thumbprints
FN:237,_RNvNtNtNtNtNtCs9VsQExrgwtF_4wami4wami8identity17identity_provider7builder5testss_24test_build_oidc_provider
FN:220,_RNvNtNtNtNtNtCs9VsQExrgwtF_4wami4wami8identity17identity_provider7builder5testss_24test_build_saml_provider
FN:265,_RNvNtNtNtNtNtCs9VsQExrgwtF_4wami4wami8identity17identity_provider7builder5testss_25test_add_remove_client_id
FN:256,_RNvNtNtNtNtNtCs9VsQExrgwtF_4wami4wami8identity17identity_provider7builder5testss_25test_update_saml_metadata
FN:112,_RNvNtNtNtNtCs9VsQExrgwtF_4wami4wami8identity17identity_provider7builder13add_client_id
FN:145,_RNvNtNtNtNtCs9VsQExrgwtF_4wami4wami8identity17identity_provider7builder13add_oidc_tags
FN:135,_RNvNtNtNtNtCs9VsQExrgwtF_4wami4wami8identity17identity_provider7builder13add_saml_tags
FN:120,_RNvNtNtNtNtCs9VsQExrgwtF_4wami4wami8identity17identity_provider7builder16remove_client_id
FN:126,_RNvNtNtNtNtCs9VsQExrgwtF_4wami4wami8identity17identity_provider7builder18update_thumbprints
FN:54,_RNvNtNtNtNtCs9VsQExrgwtF_4wami4wami8identity17identity_provider7builder19build_oidc_provider
FN:16,_RNvNtNtNtNtCs9VsQExrgwtF_4wami4wami8identity17identity_provider7builder19build_saml_provider
FN:161,_RNvNtNtNtNtCs9VsQExrgwtF_4wami4wami8identity17identity_provider7builder20decrement_saml_usage
FN:155,_RNvNtNtNtNtCs9VsQExrgwtF_4wami4wami8identity17identity_provider7builder20increment_saml_usage
FN:103,_RNvNtNtNtNtCs9VsQExrgwtF_4wami4wami8identity17identity_provider7builder20set_saml_valid_until
FN:94,_RNvNtNtNtNtCs9VsQExrgwtF_4wami4wami8identity17identity_provider7builder20update_saml_metadata
FNDA:0,_RNCNvNtNtNtNtCs9VsQExrgwtF_4wami4wami8identity17identity_provider7builder13add_oidc_tags0Bb_
FNDA:0,_RNCNvNtNtNtNtCs9VsQExrgwtF_4wami4wami8identity17identity_provider7builder13add_saml_tags0Bb_
FNDA:4,_RNCNvNtNtNtNtCs9VsQExrgwtF_4wami4wami8identity17identity_provider7builder16remove_client_id0Bb_
FNDA:0,_RNvNtNtNtNtCs9VsQExrgwtF_4wami4wami8identity17identity_provider7builder15set_oidc_tenant
FNDA:0,_RNvNtNtNtNtCs9VsQExrgwtF_4wami4wami8identity17identity_provider7builder15set_saml_tenant
FNDA:0,_RNvNtNtNtNtCs9VsQExrgwtF_4wami4wami8identity17identity_provider7builder20decrement_oidc_usage
FNDA:0,_RNvNtNtNtNtCs9VsQExrgwtF_4wami4wami8identity17identity_provider7builder20increment_oidc_usage
FNDA:6,_RNvNtNtNtNtNtCs9VsQExrgwtF_4wami4wami8identity17identity_provider7builder5tests12test_context
FNDA:1,_RNvNtNtNtNtNtCs9VsQExrgwtF_4wami4wami8identity17identity_provider7builder5testss_19test_usage_tracking
FNDA:1,_RNvNtNtNtNtNtCs9VsQExrgwtF_4wami4wami8identity17identity_provider7builder5testss_23test_update_thumbprints
FNDA:1,_RNvNtNtNtNtNtCs9VsQExrgwtF_4wami4wami8identity17identity_provider7builder5testss_24test_build_oidc_provider
FNDA:1,_RNvNtNtNtNtNtCs9VsQExrgwtF_4wami4wami8identity17identity_provider7builder5testss_24test_build_saml_provider
FNDA:1,_RNvNtNtNtNtNtCs9VsQExrgwtF_4wami4wami8identity17identity_provider7builder5testss_25test_add_remove_client_id
FNDA:1,_RNvNtNtNtNtNtCs9VsQExrgwtF_4wami4wami8identity17identity_provider7builder5testss_25test_update_saml_metadata
FNDA:2,_RNvNtNtNtNtCs9VsQExrgwtF_4wami4wami8identity17identity_provider7builder13add_client_id
FNDA:0,_RNvNtNtNtNtCs9VsQExrgwtF_4wami4wami8identity17identity_provider7builder13add_oidc_tags
FNDA:0,_RNvNtNtNtNtCs9VsQExrgwtF_4wami4wami8identity17identity_provider7builder13add_saml_tags
FNDA:2,_RNvNtNtNtNtCs9VsQExrgwtF_4wami4wami8identity17identity_provider7builder16remove_client_id
FNDA:2,_RNvNtNtNtNtCs9VsQExrgwtF_4wami4wami8identity17identity_provider7builder18update_thumbprints
FNDA:5,_RNvNtNtNtNtCs9VsQExrgwtF_4wami4wami8identity17identity_provider7builder19build_oidc_provider
FNDA:6,_RNvNtNtNtNtCs9VsQExrgwtF_4wami4wami8identity17identity_provider7builder19build_saml_provider
FNDA:1,_RNvNtNtNtNtCs9VsQExrgwtF_4wami4wami8identity17identity_provider7builder20decrement_saml_usage
FNDA:2,_RNvNtNtNtNtCs9VsQExrgwtF_4wami4wami8identity17identity_provider7builder20increment_saml_usage
FNDA:0,_RNvNtNtNtNtCs9VsQExrgwtF_4wami4wami8identity17identity_provider7builder20set_saml_valid_until
FNDA:2,_RNvNtNtNtNtCs9VsQExrgwtF_4wami4wami8identity17identity_provider7builder20update_saml_metadata
FNF:25
FNH:16
DA:16,6
DA:17,6
DA:18,6
DA:19,6
DA:20,6
DA:22,6
DA:23,6
DA:24,6
DA:29,6
DA:30,6
DA:31,6
DA:32,6
DA:33,6
DA:34,6
DA:36,6
DA:37,6
DA:38,6
DA:39,6
DA:40,6
DA:41,6
DA:42,6
DA:43,6
DA:44,6
DA:45,6
DA:46,6
DA:47,6
DA:48,6
DA:54,5
DA:55,5
DA:56,5
DA:57,5
DA:58,5
DA:59,5
DA:62,5
DA:65,5
DA:66,5
DA:67,5
DA:72,5
DA:73,5
DA:74,5
DA:75,5
DA:76,5
DA:77,5
DA:79,5
DA:80,5
DA:81,5
DA:82,5
DA:83,5
DA:84,5
DA:85,5
DA:86,5
DA:87,5
DA:88,5
DA:89,5
DA:90,5
DA:91,5
DA:94,2
DA:95,2
DA:96,2
DA:97,2
DA:98,2
DA:99,2
DA:100,2
DA:103,0
DA:104,0
DA:105,0
DA:106,0
DA:107,0
DA:108,0
DA:109,0
DA:112,2
DA:113,2
DA:114,2
DA:115,2
DA:116,2
DA:117,2
DA:120,2
DA:121,4
DA:122,2
DA:123,2
DA:126,2
DA:127,2
DA:128,2
DA:129,2
DA:130,2
DA:131,2
DA:132,2
DA:135,0
DA:136,0
DA:138,0
DA:139,0
DA:141,0
DA:142,0
DA:145,0
DA:146,0
DA:148,0
DA:149,0
DA:151,0
DA:152,0
DA:155,2
DA:156,2
DA:157,2
DA:158,2
DA:161,1
DA:162,1
DA:163,1
DA:164,1
DA:167,0
DA:168,0
DA:169,0
DA:170,0
DA:173,0
DA:174,0
DA:175,0
DA:176,0
DA:179,0
DA:180,0
DA:181,0
DA:182,0
DA:183,0
DA:184,0
DA:185,0
DA:188,0
DA:189,0
DA:190,0
DA:191,0
DA:192,0
DA:193,0
DA:194,0
DA:201,6
DA:202,6
DA:203,6
DA:204,6
DA:205,6
DA:206,6
DA:207,6
DA:208,6
DA:209,6
DA:210,6
DA:211,6
DA:212,6
DA:214,6
DA:215,6
DA:216,6
DA:217,6
DA:220,1
DA:221,1
DA:222,1
DA:223,1
DA:224,1
DA:225,1
DA:227,1
DA:229,1
DA:230,1
DA:231,1
DA:232,1
DA:233,1
DA:234,1
DA:237,1
DA:238,1
DA:239,1
DA:240,1
DA:241,1
DA:242,1
DA:243,1
DA:245,1
DA:247,1
DA:248,1
DA:249,1
DA:250,1
DA:251,1
DA:252,1
DA:253,1
DA:256,1
DA:257,1
DA:258,1
DA:260,1
DA:261,1
DA:262,1
DA:265,1
DA:266,1
DA:267,1
DA:268,1
DA:269,1
DA:270,1
DA:271,1
DA:273,1
DA:275,1
DA:276,1
DA:278,1
DA:279,1
DA:280,1
DA:281,1
DA:284,1
DA:285,1
DA:286,1
DA:288,1
DA:289,1
DA:291,1
DA:292,1
DA:294,1
DA:295,1
DA:296,1
DA:299,1
DA:300,1
DA:301,1
DA:302,1
DA:303,1
DA:304,1
DA:305,1
DA:307,1
DA:309,1
DA:310,1
DA:311,1
DA:314,1
DA:315,1
DA:316,1
DA:317,1
BRF:0
BRH:0
LF:221
LH:178
end_of_record
SF:/Users/lsh/projects/crates/wami/src/wami/identity/identity_provider/model.rs
FN:175,_RNvNtNtNtNtNtCs9VsQExrgwtF_4wami4wami8identity17identity_provider5model5testss_31test_oidc_provider_validate_url
FN:165,_RNvNtNtNtNtNtCs9VsQExrgwtF_4wami4wami8identity17identity_provider5model5testss_32test_saml_provider_validate_name
FN:183,_RNvNtNtNtNtNtCs9VsQExrgwtF_4wami4wami8identity17identity_provider5model5testss_38test_oidc_provider_validate_thumbprint
FN:116,_RNCNvMNtNtNtNtCs9VsQExrgwtF_4wami4wami8identity17identity_provider5modelNtB4_12SamlProvider13validate_name0Bc_
FN:151,_RNCNvMs_NtNtNtNtCs9VsQExrgwtF_4wami4wami8identity17identity_provider5modelNtB6_12OidcProvider19validate_thumbprint0Be_
FN:107,_RNvMNtNtNtNtCs9VsQExrgwtF_4wami4wami8identity17identity_provider5modelNtB2_12SamlProvider13validate_name
FN:129,_RNvMs_NtNtNtNtCs9VsQExrgwtF_4wami4wami8identity17identity_provider5modelNtB4_12OidcProvider12validate_url
FN:145,_RNvMs_NtNtNtNtCs9VsQExrgwtF_4wami4wami8identity17identity_provider5modelNtB4_12OidcProvider19validate_thumbprint
FNDA:1,_RNvNtNtNtNtNtCs9VsQExrgwtF_4wami4wami8identity17identity_provider5model5testss_31test_oidc_provider_validate_url
FNDA:1,_RNvNtNtNtNtNtCs9VsQExrgwtF_4wami4wami8identity17identity_provider5model5testss_32test_saml_provider_validate_name
FNDA:1,_RNvNtNtNtNtNtCs9VsQExrgwtF_4wami4wami8identity17identity_provider5model5testss_38test_oidc_provider_validate_thumbprint
FNDA:54,_RNCNvMNtNtNtNtCs9VsQExrgwtF_4wami4wami8identity17identity_provider5modelNtB4_12SamlProvider13validate_name0Bc_
FNDA:81,_RNCNvMs_NtNtNtNtCs9VsQExrgwtF_4wami4wami8identity17identity_provider5modelNtB6_12OidcProvider19validate_thumbprint0Be_
FNDA:7,_RNvMNtNtNtNtCs9VsQExrgwtF_4wami4wami8identity17identity_provider5modelNtB2_12SamlProvider13validate_name
FNDA:4,_RNvMs_NtNtNtNtCs9VsQExrgwtF_4wami4wami8identity17identity_provider5modelNtB4_12OidcProvider12validate_url
FNDA:5,_RNvMs_NtNtNtNtCs9VsQExrgwtF_4wami4wami8identity17identity_provider5modelNtB4_12OidcProvider19validate_thumbprint
FNF:8
FNH:8
DA:107,7
DA:108,7
DA:109,2
DA:110,2
DA:111,2
DA:112,5
DA:114,5
DA:115,5
DA:116,54
DA:118,1
DA:119,1
DA:120,1
DA:121,4
DA:122,4
DA:123,7
DA:129,4
DA:130,4
DA:131,1
DA:132,1
DA:133,1
DA:134,3
DA:135,3
DA:136,1
DA:137,1
DA:138,1
DA:139,2
DA:140,2
DA:141,4
DA:145,5
DA:146,5
DA:147,2
DA:148,2
DA:149,2
DA:150,3
DA:151,81
DA:152,1
DA:153,1
DA:154,1
DA:155,2
DA:156,2
DA:157,5
DA:165,1
DA:166,1
DA:167,1
DA:168,1
DA:169,1
DA:170,1
DA:171,1
DA:172,1
DA:175,1
DA:176,1
DA:177,1
DA:178,1
DA:179,1
DA:180,1
DA:183,1
DA:184,1
DA:185,1
DA:187,1
DA:188,1
DA:190,1
DA:191,1
DA:192,1
DA:193,1
DA:195,1
BRF:0
BRH:0
LF:67
LH:67
end_of_record
SF:/Users/lsh/projects/crates/wami/src/wami/identity/identity_provider/operations.rs
FN:64,_RNvNtNtNtNtCs9VsQExrgwtF_4wami4wami8identity17identity_provider10operations17validate_oidc_url
FN:97,_RNvNtNtNtNtCs9VsQExrgwtF_4wami4wami8identity17identity_provider10operations19validate_thumbprint
FN:176,_RNvNtNtNtNtCs9VsQExrgwtF_4wami4wami8identity17identity_provider10operations20parse_oidc_discovery
FN:39,_RNvNtNtNtNtCs9VsQExrgwtF_4wami4wami8identity17identity_provider10operations21extract_saml_validity
FN:13,_RNvNtNtNtNtCs9VsQExrgwtF_4wami4wami8identity17identity_provider10operations22validate_saml_metadata
FN:143,_RNvNtNtNtNtCs9VsQExrgwtF_4wami4wami8identity17identity_provider10operations23validate_client_id_list
FN:120,_RNvNtNtNtNtCs9VsQExrgwtF_4wami4wami8identity17identity_provider10operations24validate_thumbprint_list
FN:107,_RNCNvNtNtNtNtCs9VsQExrgwtF_4wami4wami8identity17identity_provider10operations19validate_thumbprint0Bb_
FN:179,_RNCNvNtNtNtNtCs9VsQExrgwtF_4wami4wami8identity17identity_provider10operations20parse_oidc_discovery0Bb_
FN:41,_RNCNvNtNtNtNtCs9VsQExrgwtF_4wami4wami8identity17identity_provider10operations21extract_saml_validity0Bb_
FN:22,_RNCNvNtNtNtNtCs9VsQExrgwtF_4wami4wami8identity17identity_provider10operations22validate_saml_metadata0Bb_
FN:243,_RNvNtNtNtNtNtCs9VsQExrgwtF_4wami4wami8identity17identity_provider10operations5testss_22test_validate_oidc_url
FN:253,_RNvNtNtNtNtNtCs9VsQExrgwtF_4wami4wami8identity17identity_provider10operations5testss_24test_validate_thumbprint
FN:289,_RNvNtNtNtNtNtCs9VsQExrgwtF_4wami4wami8identity17identity_provider10operations5testss_25test_parse_oidc_discovery
FN:221,_RNvNtNtNtNtNtCs9VsQExrgwtF_4wami4wami8identity17identity_provider10operations5testss_26test_extract_saml_validity
FN:206,_RNvNtNtNtNtNtCs9VsQExrgwtF_4wami4wami8identity17identity_provider10operations5testss_27test_validate_saml_metadata
FN:280,_RNvNtNtNtNtNtCs9VsQExrgwtF_4wami4wami8identity17identity_provider10operations5testss_28test_validate_client_id_list
FN:262,_RNvNtNtNtNtNtCs9VsQExrgwtF_4wami4wami8identity17identity_provider10operations5testss_29test_validate_thumbprint_list
FNDA:7,_RNvNtNtNtNtCs9VsQExrgwtF_4wami4wami8identity17identity_provider10operations17validate_oidc_url
FNDA:10,_RNvNtNtNtNtCs9VsQExrgwtF_4wami4wami8identity17identity_provider10operations19validate_thumbprint
FNDA:3,_RNvNtNtNtNtCs9VsQExrgwtF_4wami4wami8identity17identity_provider10operations20parse_oidc_discovery
FNDA:4,_RNvNtNtNtNtCs9VsQExrgwtF_4wami4wami8identity17identity_provider10operations21extract_saml_validity
FNDA:6,_RNvNtNtNtNtCs9VsQExrgwtF_4wami4wami8identity17identity_provider10operations22validate_saml_metadata
FNDA:6,_RNvNtNtNtNtCs9VsQExrgwtF_4wami4wami8identity17identity_provider10operations23validate_client_id_list
FNDA:6,_RNvNtNtNtNtCs9VsQExrgwtF_4wami4wami8identity17identity_provider10operations24validate_thumbprint_list
FNDA:241,_RNCNvNtNtNtNtCs9VsQExrgwtF_4wami4wami8identity17identity_provider10operations19validate_thumbprint0Bb_
FNDA:1,_RNCNvNtNtNtNtCs9VsQExrgwtF_4wami4wami8identity17identity_provider10operations20parse_oidc_discovery0Bb_
FNDA:0,_RNCNvNtNtNtNtCs9VsQExrgwtF_4wami4wami8identity17identity_provider10operations21extract_saml_validity0Bb_
FNDA:1,_RNCNvNtNtNtNtCs9VsQExrgwtF_4wami4wami8identity17identity_provider10operations22validate_saml_metadata0Bb_
FNDA:1,_RNvNtNtNtNtNtCs9VsQExrgwtF_4wami4wami8identity17identity_provider10operations5testss_22test_validate_oidc_url
FNDA:1,_RNvNtNtNtNtNtCs9VsQExrgwtF_4wami4wami8identity17identity_provider10operations5testss_24test_validate_thumbprint
FNDA:1,_RNvNtNtNtNtNtCs9VsQExrgwtF_4wami4wami8identity17identity_provider10operations5testss_25test_parse_oidc_discovery
FNDA:1,_RNvNtNtNtNtNtCs9VsQExrgwtF_4wami4wami8identity17identity_provider10operations5testss_26test_extract_saml_validity
FNDA:1,_RNvNtNtNtNtNtCs9VsQExrgwtF_4wami4wami8identity17identity_provider10operations5testss_27test_validate_saml_metadata
FNDA:1,_RNvNtNtNtNtNtCs9VsQExrgwtF_4wami4wami8identity17identity_provider10operations5testss_28test_validate_client_id_list
FNDA:1,_RNvNtNtNtNtNtCs9VsQExrgwtF_4wami4wami8identity17identity_provider10operations5testss_29test_validate_thumbprint_list
FNF:18
FNH:17
DA:13,6
DA:14,6
DA:15,1
DA:16,1
DA:17,1
DA:18,5
DA:21,5
DA:22,1
DA:23,1
DA:26,4
DA:27,1
DA:28,1
DA:29,1
DA:30,1
DA:31,3
DA:33,3
DA:34,6
DA:39,4
DA:40,4
DA:41,0
DA:42,0
DA:45,17
DA:46,17
DA:48,1
DA:49,1
DA:52,0
DA:55,16
DA:58,3
DA:59,4
DA:64,7
DA:65,7
DA:66,1
DA:67,1
DA:68,1
DA:69,6
DA:71,6
DA:72,1
DA:73,1
DA:74,1
DA:75,5
DA:77,5
DA:78,1
DA:79,1
DA:80,1
DA:81,4
DA:84,4
DA:85,4
DA:86,1
DA:87,1
DA:88,1
DA:89,3
DA:91,3
DA:92,7
DA:97,10
DA:98,10
DA:99,3
DA:100,3
DA:101,3
DA:102,3
DA:103,3
DA:104,3
DA:105,7
DA:107,241
DA:108,1
DA:109,1
DA:110,1
DA:111,1
DA:112,6
DA:114,6
DA:115,10
DA:120,6
DA:121,6
DA:122,1
DA:123,1
DA:124,1
DA:125,5
DA:127,5
DA:128,1
DA:129,1
DA:130,1
DA:131,4
DA:133,8
DA:134,5
DA:137,3
DA:138,6
DA:143,6
DA:144,6
DA:145,1
DA:146,1
DA:147,1
DA:148,5
DA:150,5
DA:151,1
DA:152,1
DA:153,1
DA:154,4
DA:156,6
DA:157,4
DA:158,1
DA:159,1
DA:160,1
DA:161,3
DA:163,3
DA:164,1
DA:165,1
DA:166,1
DA:167,2
DA:170,2
DA:171,6
DA:176,3
DA:177,2
DA:178,3
DA:179,1
DA:180,1
DA:183,2
DA:184,2
DA:185,2
DA:186,2
DA:187,2
DA:188,2
DA:190,7
DA:191,6
DA:192,1
DA:193,1
DA:194,1
DA:195,5
DA:198,1
DA:199,3
DA:206,1
DA:207,1
DA:208,1
DA:209,1
DA:210,1
DA:211,1
DA:212,1
DA:214,1
DA:215,1
DA:216,1
DA:217,1
DA:218,1
DA:221,1
DA:222,1
DA:223,1
DA:224,1
DA:225,1
DA:226,1
DA:228,1
DA:229,1
DA:230,1
DA:232,1
DA:233,1
DA:234,1
DA:235,1
DA:237,1
DA:238,1
DA:239,1
DA:240,1
DA:243,1
DA:244,1
DA:245,1
DA:246,1
DA:247,1
DA:248,1
DA:249,1
DA:250,1
DA:253,1
DA:254,1
DA:255,1
DA:256,1
DA:257,1
DA:258,1
DA:259,1
DA:262,1
DA:263,1
DA:264,1
DA:265,1
DA:266,1
DA:268,1
DA:270,1
DA:271,1
DA:272,1
DA:273,1
DA:274,1
DA:276,1
DA:277,1
DA:280,1
DA:281,1
DA:282,1
DA:283,1
DA:284,1
DA:285,1
DA:286,1
DA:289,1
DA:290,1
DA:291,1
DA:292,1
DA:293,1
DA:294,1
DA:295,1
DA:297,1
DA:298,1
DA:299,1
DA:300,1
BRF:0
BRH:0
LF:207
LH:203
end_of_record
SF:/Users/lsh/projects/crates/wami/src/wami/identity/role/builder.rs
FN:69,_RNCNvNtNtNtNtCs9VsQExrgwtF_4wami4wami8identity4role7builder17build_role_legacy0Bb_
FN:76,_RNCNvNtNtNtNtCs9VsQExrgwtF_4wami4wami8identity4role7builder17build_role_legacys_0Bb_
FN:59,_RNvNtNtNtNtCs9VsQExrgwtF_4wami4wami8identity4role7builder17build_role_legacy
FN:22,_RNCNvNtNtNtNtCs9VsQExrgwtF_4wami4wami8identity4role7builder10build_role0Bb_
FN:137,_RNCNvNtNtNtNtCs9VsQExrgwtF_4wami4wami8identity4role7builder8add_tags0Bb_
FN:13,_RNvNtNtNtNtCs9VsQExrgwtF_4wami4wami8identity4role7builder10build_role
FN:145,_RNvNtNtNtNtCs9VsQExrgwtF_4wami4wami8identity4role7builder13set_tenant_id
FN:111,_RNvNtNtNtNtCs9VsQExrgwtF_4wami4wami8identity4role7builder18update_description
FN:123,_RNvNtNtNtNtCs9VsQExrgwtF_4wami4wami8identity4role7builder24set_permissions_boundary
FN:105,_RNvNtNtNtNtCs9VsQExrgwtF_4wami4wami8identity4role7builder25update_assume_role_policy
FN:129,_RNvNtNtNtNtCs9VsQExrgwtF_4wami4wami8identity4role7builder26clear_permissions_boundary
FN:117,_RNvNtNtNtNtCs9VsQExrgwtF_4wami4wami8identity4role7builder27update_max_session_duration
FN:135,_RNvNtNtNtNtCs9VsQExrgwtF_4wami4wami8identity4role7builder8add_tags
FN:157,_RNvNtNtNtNtNtCs9VsQExrgwtF_4wami4wami8identity4role7builder5tests12test_context
FN:170,_RNvNtNtNtNtNtCs9VsQExrgwtF_4wami4wami8identity4role7builder5tests17test_trust_policy
FN:311,_RNvNtNtNtNtNtCs9VsQExrgwtF_4wami4wami8identity4role7builder5testss_13test_add_tags
FN:368,_RNvNtNtNtNtNtCs9VsQExrgwtF_4wami4wami8identity4role7builder5testss_18test_set_tenant_id
FN:387,_RNvNtNtNtNtNtCs9VsQExrgwtF_4wami4wami8identity4role7builder5testss_22test_role_immutability
FN:175,_RNvNtNtNtNtNtCs9VsQExrgwtF_4wami4wami8identity4role7builder5testss_23test_build_role_minimal
FN:236,_RNvNtNtNtNtNtCs9VsQExrgwtF_4wami4wami8identity4role7builder5testss_23test_update_description
FN:339,_RNvNtNtNtNtNtCs9VsQExrgwtF_4wami4wami8identity4role7builder5testss_27test_add_tags_no_duplicates
FN:273,_RNvNtNtNtNtNtCs9VsQExrgwtF_4wami4wami8identity4role7builder5testss_29test_set_permissions_boundary
FN:217,_RNvNtNtNtNtNtCs9VsQExrgwtF_4wami4wami8identity4role7builder5testss_30test_update_assume_role_policy
FN:292,_RNvNtNtNtNtNtCs9VsQExrgwtF_4wami4wami8identity4role7builder5testss_31test_clear_permissions_boundary
FN:198,_RNvNtNtNtNtNtCs9VsQExrgwtF_4wami4wami8identity4role7builder5testss_32test_build_role_with_all_options
FN:256,_RNvNtNtNtNtNtCs9VsQExrgwtF_4wami4wami8identity4role7builder5testss_32test_update_max_session_duration
FNDA:0,_RNCNvNtNtNtNtCs9VsQExrgwtF_4wami4wami8identity4role7builder17build_role_legacy0Bb_
FNDA:0,_RNCNvNtNtNtNtCs9VsQExrgwtF_4wami4wami8identity4role7builder17build_role_legacys_0Bb_
FNDA:0,_RNvNtNtNtNtCs9VsQExrgwtF_4wami4wami8identity4role7builder17build_role_legacy
FNDA:13,_RNCNvNtNtNtNtCs9VsQExrgwtF_4wami4wami8identity4role7builder10build_role0Bb_
FNDA:2,_RNCNvNtNtNtNtCs9VsQExrgwtF_4wami4wami8identity4role7builder8add_tags0Bb_
FNDA:39,_RNvNtNtNtNtCs9VsQExrgwtF_4wami4wami8identity4role7builder10build_role
FNDA:1,_RNvNtNtNtNtCs9VsQExrgwtF_4wami4wami8identity4role7builder13set_tenant_id
FNDA:4,_RNvNtNtNtNtCs9VsQExrgwtF_4wami4wami8identity4role7builder18update_description
FNDA:1,_RNvNtNtNtNtCs9VsQExrgwtF_4wami4wami8identity4role7builder24set_permissions_boundary
FNDA:1,_RNvNtNtNtNtCs9VsQExrgwtF_4wami4wami8identity4role7builder25update_assume_role_policy
FNDA:1,_RNvNtNtNtNtCs9VsQExrgwtF_4wami4wami8identity4role7builder26clear_permissions_boundary
FNDA:3,_RNvNtNtNtNtCs9VsQExrgwtF_4wami4wami8identity4role7builder27update_max_session_duration
FNDA:4,_RNvNtNtNtNtCs9VsQExrgwtF_4wami4wami8identity4role7builder8add_tags
FNDA:11,_RNvNtNtNtNtNtCs9VsQExrgwtF_4wami4wami8identity4role7builder5tests12test_context
FNDA:11,_RNvNtNtNtNtNtCs9VsQExrgwtF_4wami4wami8identity4role7builder5tests17test_trust_policy
FNDA:1,_RNvNtNtNtNtNtCs9VsQExrgwtF_4wami4wami8identity4role7builder5testss_13test_add_tags
FNDA:1,_RNvNtNtNtNtNtCs9VsQExrgwtF_4wami4wami8identity4role7builder5testss_18test_set_tenant_id
FNDA:1,_RNvNtNtNtNtNtCs9VsQExrgwtF_4wami4wami8identity4role7builder5testss_22test_role_immutability
FNDA:1,_RNvNtNtNtNtNtCs9VsQExrgwtF_4wami4wami8identity4role7builder5testss_23test_build_role_minimal
FNDA:1,_RNvNtNtNtNtNtCs9VsQExrgwtF_4wami4wami8identity4role7builder5testss_23test_update_description
FNDA:1,_RNvNtNtNtNtNtCs9VsQExrgwtF_4wami4wami8identity4role7builder5testss_27test_add_tags_no_duplicates
FNDA:1,_RNvNtNtNtNtNtCs9VsQExrgwtF_4wami4wami8identity4role7builder5testss_29test_set_permissions_boundary
FNDA:1,_RNvNtNtNtNtNtCs9VsQExrgwtF_4wami4wami8identity4role7builder5testss_30test_update_assume_role_policy
FNDA:1,_RNvNtNtNtNtNtCs9VsQExrgwtF_4wami4wami8identity4role7builder5testss_31test_clear_permissions_boundary
FNDA:1,_RNvNtNtNtNtNtCs9VsQExrgwtF_4wami4wami8identity4role7builder5testss_32test_build_role_with_all_options
FNDA:1,_RNvNtNtNtNtNtCs9VsQExrgwtF_4wami4wami8identity4role7builder5testss_32test_update_max_session_duration
FNF:26
FNH:23
DA:13,39
DA:14,39
